
IronLink Firmware.elf:     file format elf32-littlearm

Sections:
Idx Name          Size      VMA       LMA       File off  Algn
  0 .isr_vector   000000c0  08000000  08000000  00010000  2**0
                  CONTENTS, ALLOC, LOAD, READONLY, DATA
  1 .text         00004be4  080000c0  080000c0  000100c0  2**4
                  CONTENTS, ALLOC, LOAD, READONLY, CODE
  2 .rodata       000001fc  08004ca4  08004ca4  00014ca4  2**2
                  CONTENTS, ALLOC, LOAD, READONLY, DATA
  3 .init_array   00000004  08004ea0  08004ea0  00014ea0  2**2
                  CONTENTS, ALLOC, LOAD, DATA
  4 .fini_array   00000004  08004ea4  08004ea4  00014ea4  2**2
                  CONTENTS, ALLOC, LOAD, DATA
  5 .data         000001e8  20000000  08004ea8  00020000  2**2
                  CONTENTS, ALLOC, LOAD, DATA
  6 .bss          00001f24  200001e8  08005090  000201e8  2**2
                  ALLOC
  7 ._user_heap_stack 00000600  2000210c  08005090  0002210c  2**0
                  ALLOC
  8 .ARM.attributes 00000028  00000000  00000000  000201e8  2**0
                  CONTENTS, READONLY
  9 .debug_info   00030255  00000000  00000000  00020210  2**0
                  CONTENTS, READONLY, DEBUGGING
 10 .debug_abbrev 000062ef  00000000  00000000  00050465  2**0
                  CONTENTS, READONLY, DEBUGGING
 11 .debug_loc    00010955  00000000  00000000  00056754  2**0
                  CONTENTS, READONLY, DEBUGGING
 12 .debug_aranges 00001510  00000000  00000000  000670b0  2**3
                  CONTENTS, READONLY, DEBUGGING
 13 .debug_ranges 00001da0  00000000  00000000  000685c0  2**3
                  CONTENTS, READONLY, DEBUGGING
 14 .debug_line   0000d0fa  00000000  00000000  0006a360  2**0
                  CONTENTS, READONLY, DEBUGGING
 15 .debug_str    00006e35  00000000  00000000  0007745a  2**0
                  CONTENTS, READONLY, DEBUGGING
 16 .comment      0000007c  00000000  00000000  0007e28f  2**0
                  CONTENTS, READONLY
 17 .debug_frame  00004034  00000000  00000000  0007e30c  2**2
                  CONTENTS, READONLY, DEBUGGING

Disassembly of section .text:

080000c0 <__do_global_dtors_aux>:
 80000c0:	b510      	push	{r4, lr}
 80000c2:	4c06      	ldr	r4, [pc, #24]	; (80000dc <__do_global_dtors_aux+0x1c>)
 80000c4:	7823      	ldrb	r3, [r4, #0]
 80000c6:	2b00      	cmp	r3, #0
 80000c8:	d107      	bne.n	80000da <__do_global_dtors_aux+0x1a>
 80000ca:	4b05      	ldr	r3, [pc, #20]	; (80000e0 <__do_global_dtors_aux+0x20>)
 80000cc:	2b00      	cmp	r3, #0
 80000ce:	d002      	beq.n	80000d6 <__do_global_dtors_aux+0x16>
 80000d0:	4804      	ldr	r0, [pc, #16]	; (80000e4 <__do_global_dtors_aux+0x24>)
 80000d2:	e000      	b.n	80000d6 <__do_global_dtors_aux+0x16>
 80000d4:	bf00      	nop
 80000d6:	2301      	movs	r3, #1
 80000d8:	7023      	strb	r3, [r4, #0]
 80000da:	bd10      	pop	{r4, pc}
 80000dc:	200001e8 	.word	0x200001e8
 80000e0:	00000000 	.word	0x00000000
 80000e4:	08004c8c 	.word	0x08004c8c

080000e8 <frame_dummy>:
 80000e8:	4b04      	ldr	r3, [pc, #16]	; (80000fc <frame_dummy+0x14>)
 80000ea:	b510      	push	{r4, lr}
 80000ec:	2b00      	cmp	r3, #0
 80000ee:	d003      	beq.n	80000f8 <frame_dummy+0x10>
 80000f0:	4903      	ldr	r1, [pc, #12]	; (8000100 <frame_dummy+0x18>)
 80000f2:	4804      	ldr	r0, [pc, #16]	; (8000104 <frame_dummy+0x1c>)
 80000f4:	e000      	b.n	80000f8 <frame_dummy+0x10>
 80000f6:	bf00      	nop
 80000f8:	bd10      	pop	{r4, pc}
 80000fa:	46c0      	nop			; (mov r8, r8)
 80000fc:	00000000 	.word	0x00000000
 8000100:	200001ec 	.word	0x200001ec
 8000104:	08004c8c 	.word	0x08004c8c

08000108 <__gnu_thumb1_case_uqi>:
 8000108:	b402      	push	{r1}
 800010a:	4671      	mov	r1, lr
 800010c:	0849      	lsrs	r1, r1, #1
 800010e:	0049      	lsls	r1, r1, #1
 8000110:	5c09      	ldrb	r1, [r1, r0]
 8000112:	0049      	lsls	r1, r1, #1
 8000114:	448e      	add	lr, r1
 8000116:	bc02      	pop	{r1}
 8000118:	4770      	bx	lr
 800011a:	46c0      	nop			; (mov r8, r8)

0800011c <__gnu_thumb1_case_uhi>:
 800011c:	b403      	push	{r0, r1}
 800011e:	4671      	mov	r1, lr
 8000120:	0849      	lsrs	r1, r1, #1
 8000122:	0040      	lsls	r0, r0, #1
 8000124:	0049      	lsls	r1, r1, #1
 8000126:	5a09      	ldrh	r1, [r1, r0]
 8000128:	0049      	lsls	r1, r1, #1
 800012a:	448e      	add	lr, r1
 800012c:	bc03      	pop	{r0, r1}
 800012e:	4770      	bx	lr

08000130 <__udivsi3>:
 8000130:	2200      	movs	r2, #0
 8000132:	0843      	lsrs	r3, r0, #1
 8000134:	428b      	cmp	r3, r1
 8000136:	d374      	bcc.n	8000222 <__udivsi3+0xf2>
 8000138:	0903      	lsrs	r3, r0, #4
 800013a:	428b      	cmp	r3, r1
 800013c:	d35f      	bcc.n	80001fe <__udivsi3+0xce>
 800013e:	0a03      	lsrs	r3, r0, #8
 8000140:	428b      	cmp	r3, r1
 8000142:	d344      	bcc.n	80001ce <__udivsi3+0x9e>
 8000144:	0b03      	lsrs	r3, r0, #12
 8000146:	428b      	cmp	r3, r1
 8000148:	d328      	bcc.n	800019c <__udivsi3+0x6c>
 800014a:	0c03      	lsrs	r3, r0, #16
 800014c:	428b      	cmp	r3, r1
 800014e:	d30d      	bcc.n	800016c <__udivsi3+0x3c>
 8000150:	22ff      	movs	r2, #255	; 0xff
 8000152:	0209      	lsls	r1, r1, #8
 8000154:	ba12      	rev	r2, r2
 8000156:	0c03      	lsrs	r3, r0, #16
 8000158:	428b      	cmp	r3, r1
 800015a:	d302      	bcc.n	8000162 <__udivsi3+0x32>
 800015c:	1212      	asrs	r2, r2, #8
 800015e:	0209      	lsls	r1, r1, #8
 8000160:	d065      	beq.n	800022e <__udivsi3+0xfe>
 8000162:	0b03      	lsrs	r3, r0, #12
 8000164:	428b      	cmp	r3, r1
 8000166:	d319      	bcc.n	800019c <__udivsi3+0x6c>
 8000168:	e000      	b.n	800016c <__udivsi3+0x3c>
 800016a:	0a09      	lsrs	r1, r1, #8
 800016c:	0bc3      	lsrs	r3, r0, #15
 800016e:	428b      	cmp	r3, r1
 8000170:	d301      	bcc.n	8000176 <__udivsi3+0x46>
 8000172:	03cb      	lsls	r3, r1, #15
 8000174:	1ac0      	subs	r0, r0, r3
 8000176:	4152      	adcs	r2, r2
 8000178:	0b83      	lsrs	r3, r0, #14
 800017a:	428b      	cmp	r3, r1
 800017c:	d301      	bcc.n	8000182 <__udivsi3+0x52>
 800017e:	038b      	lsls	r3, r1, #14
 8000180:	1ac0      	subs	r0, r0, r3
 8000182:	4152      	adcs	r2, r2
 8000184:	0b43      	lsrs	r3, r0, #13
 8000186:	428b      	cmp	r3, r1
 8000188:	d301      	bcc.n	800018e <__udivsi3+0x5e>
 800018a:	034b      	lsls	r3, r1, #13
 800018c:	1ac0      	subs	r0, r0, r3
 800018e:	4152      	adcs	r2, r2
 8000190:	0b03      	lsrs	r3, r0, #12
 8000192:	428b      	cmp	r3, r1
 8000194:	d301      	bcc.n	800019a <__udivsi3+0x6a>
 8000196:	030b      	lsls	r3, r1, #12
 8000198:	1ac0      	subs	r0, r0, r3
 800019a:	4152      	adcs	r2, r2
 800019c:	0ac3      	lsrs	r3, r0, #11
 800019e:	428b      	cmp	r3, r1
 80001a0:	d301      	bcc.n	80001a6 <__udivsi3+0x76>
 80001a2:	02cb      	lsls	r3, r1, #11
 80001a4:	1ac0      	subs	r0, r0, r3
 80001a6:	4152      	adcs	r2, r2
 80001a8:	0a83      	lsrs	r3, r0, #10
 80001aa:	428b      	cmp	r3, r1
 80001ac:	d301      	bcc.n	80001b2 <__udivsi3+0x82>
 80001ae:	028b      	lsls	r3, r1, #10
 80001b0:	1ac0      	subs	r0, r0, r3
 80001b2:	4152      	adcs	r2, r2
 80001b4:	0a43      	lsrs	r3, r0, #9
 80001b6:	428b      	cmp	r3, r1
 80001b8:	d301      	bcc.n	80001be <__udivsi3+0x8e>
 80001ba:	024b      	lsls	r3, r1, #9
 80001bc:	1ac0      	subs	r0, r0, r3
 80001be:	4152      	adcs	r2, r2
 80001c0:	0a03      	lsrs	r3, r0, #8
 80001c2:	428b      	cmp	r3, r1
 80001c4:	d301      	bcc.n	80001ca <__udivsi3+0x9a>
 80001c6:	020b      	lsls	r3, r1, #8
 80001c8:	1ac0      	subs	r0, r0, r3
 80001ca:	4152      	adcs	r2, r2
 80001cc:	d2cd      	bcs.n	800016a <__udivsi3+0x3a>
 80001ce:	09c3      	lsrs	r3, r0, #7
 80001d0:	428b      	cmp	r3, r1
 80001d2:	d301      	bcc.n	80001d8 <__udivsi3+0xa8>
 80001d4:	01cb      	lsls	r3, r1, #7
 80001d6:	1ac0      	subs	r0, r0, r3
 80001d8:	4152      	adcs	r2, r2
 80001da:	0983      	lsrs	r3, r0, #6
 80001dc:	428b      	cmp	r3, r1
 80001de:	d301      	bcc.n	80001e4 <__udivsi3+0xb4>
 80001e0:	018b      	lsls	r3, r1, #6
 80001e2:	1ac0      	subs	r0, r0, r3
 80001e4:	4152      	adcs	r2, r2
 80001e6:	0943      	lsrs	r3, r0, #5
 80001e8:	428b      	cmp	r3, r1
 80001ea:	d301      	bcc.n	80001f0 <__udivsi3+0xc0>
 80001ec:	014b      	lsls	r3, r1, #5
 80001ee:	1ac0      	subs	r0, r0, r3
 80001f0:	4152      	adcs	r2, r2
 80001f2:	0903      	lsrs	r3, r0, #4
 80001f4:	428b      	cmp	r3, r1
 80001f6:	d301      	bcc.n	80001fc <__udivsi3+0xcc>
 80001f8:	010b      	lsls	r3, r1, #4
 80001fa:	1ac0      	subs	r0, r0, r3
 80001fc:	4152      	adcs	r2, r2
 80001fe:	08c3      	lsrs	r3, r0, #3
 8000200:	428b      	cmp	r3, r1
 8000202:	d301      	bcc.n	8000208 <__udivsi3+0xd8>
 8000204:	00cb      	lsls	r3, r1, #3
 8000206:	1ac0      	subs	r0, r0, r3
 8000208:	4152      	adcs	r2, r2
 800020a:	0883      	lsrs	r3, r0, #2
 800020c:	428b      	cmp	r3, r1
 800020e:	d301      	bcc.n	8000214 <__udivsi3+0xe4>
 8000210:	008b      	lsls	r3, r1, #2
 8000212:	1ac0      	subs	r0, r0, r3
 8000214:	4152      	adcs	r2, r2
 8000216:	0843      	lsrs	r3, r0, #1
 8000218:	428b      	cmp	r3, r1
 800021a:	d301      	bcc.n	8000220 <__udivsi3+0xf0>
 800021c:	004b      	lsls	r3, r1, #1
 800021e:	1ac0      	subs	r0, r0, r3
 8000220:	4152      	adcs	r2, r2
 8000222:	1a41      	subs	r1, r0, r1
 8000224:	d200      	bcs.n	8000228 <__udivsi3+0xf8>
 8000226:	4601      	mov	r1, r0
 8000228:	4152      	adcs	r2, r2
 800022a:	4610      	mov	r0, r2
 800022c:	4770      	bx	lr
 800022e:	e7ff      	b.n	8000230 <__udivsi3+0x100>
 8000230:	b501      	push	{r0, lr}
 8000232:	2000      	movs	r0, #0
 8000234:	f000 f806 	bl	8000244 <__aeabi_idiv0>
 8000238:	bd02      	pop	{r1, pc}
 800023a:	46c0      	nop			; (mov r8, r8)

0800023c <__aeabi_uidivmod>:
 800023c:	2900      	cmp	r1, #0
 800023e:	d0f7      	beq.n	8000230 <__udivsi3+0x100>
 8000240:	e776      	b.n	8000130 <__udivsi3>
 8000242:	4770      	bx	lr

08000244 <__aeabi_idiv0>:
 8000244:	4770      	bx	lr
 8000246:	46c0      	nop			; (mov r8, r8)

08000248 <StartServiceTask>:
* @param argument: Not used
* @retval None
*/
/* USER CODE END Header_StartServiceTask */
void StartServiceTask(void const * argument)
{
 8000248:	b510      	push	{r4, lr}
  /* USER CODE BEGIN StartServiceTask */
  /* Infinite loop */
  for(;;)
  {
    osDelay(1);
 800024a:	2001      	movs	r0, #1
 800024c:	f003 f9ba 	bl	80035c4 <osDelay>
 8000250:	e7fb      	b.n	800024a <StartServiceTask+0x2>
	...

08000254 <StartDefaultTask>:
{
 8000254:	b510      	push	{r4, lr}
  MX_USB_DEVICE_Init();
 8000256:	f003 fe43 	bl	8003ee0 <MX_USB_DEVICE_Init>
  osDelay(3000);
 800025a:	482b      	ldr	r0, [pc, #172]	; (8000308 <StartDefaultTask+0xb4>)
 800025c:	f003 f9b2 	bl	80035c4 <osDelay>
  lora_module_reboot();
 8000260:	f000 f956 	bl	8000510 <lora_module_reboot>
  osDelay(3000);
 8000264:	4828      	ldr	r0, [pc, #160]	; (8000308 <StartDefaultTask+0xb4>)
 8000266:	f003 f9ad 	bl	80035c4 <osDelay>
  lora_module_set_gpio("GPIO3", 1);
 800026a:	2101      	movs	r1, #1
 800026c:	4827      	ldr	r0, [pc, #156]	; (800030c <StartDefaultTask+0xb8>)
 800026e:	f000 f97f 	bl	8000570 <lora_module_set_gpio>
  lora_module_set_gpio("GPIO4", 1);
 8000272:	2101      	movs	r1, #1
 8000274:	4826      	ldr	r0, [pc, #152]	; (8000310 <StartDefaultTask+0xbc>)
 8000276:	f000 f97b 	bl	8000570 <lora_module_set_gpio>
  lora_module_set_gpio("GPIO5", 1);
 800027a:	2101      	movs	r1, #1
 800027c:	4825      	ldr	r0, [pc, #148]	; (8000314 <StartDefaultTask+0xc0>)
 800027e:	f000 f977 	bl	8000570 <lora_module_set_gpio>
  osDelay(50);
 8000282:	2032      	movs	r0, #50	; 0x32
 8000284:	f003 f99e 	bl	80035c4 <osDelay>
  lora_module_send_command(RN_MAC_RESET_CMD, NULL);
 8000288:	2100      	movs	r1, #0
 800028a:	4823      	ldr	r0, [pc, #140]	; (8000318 <StartDefaultTask+0xc4>)
 800028c:	f000 f9a6 	bl	80005dc <lora_module_send_command>
  osDelay(50);
 8000290:	2032      	movs	r0, #50	; 0x32
 8000292:	f003 f997 	bl	80035c4 <osDelay>
  lora_module_send_command(RN_MAC_SET_DEV_EUI, hweui);
 8000296:	4b21      	ldr	r3, [pc, #132]	; (800031c <StartDefaultTask+0xc8>)
 8000298:	4821      	ldr	r0, [pc, #132]	; (8000320 <StartDefaultTask+0xcc>)
 800029a:	6819      	ldr	r1, [r3, #0]
 800029c:	f000 f99e 	bl	80005dc <lora_module_send_command>
  osDelay(50);
 80002a0:	2032      	movs	r0, #50	; 0x32
 80002a2:	f003 f98f 	bl	80035c4 <osDelay>
  lora_module_send_command(RN_MAC_SET_APP_KEY, appKey);
 80002a6:	4b1f      	ldr	r3, [pc, #124]	; (8000324 <StartDefaultTask+0xd0>)
 80002a8:	481f      	ldr	r0, [pc, #124]	; (8000328 <StartDefaultTask+0xd4>)
 80002aa:	6819      	ldr	r1, [r3, #0]
 80002ac:	f000 f996 	bl	80005dc <lora_module_send_command>
  osDelay(50);
 80002b0:	2032      	movs	r0, #50	; 0x32
 80002b2:	f003 f987 	bl	80035c4 <osDelay>
  lora_module_send_command(RN_MAC_SET_APP_EUI, appEui);
 80002b6:	4b1d      	ldr	r3, [pc, #116]	; (800032c <StartDefaultTask+0xd8>)
 80002b8:	481d      	ldr	r0, [pc, #116]	; (8000330 <StartDefaultTask+0xdc>)
 80002ba:	6819      	ldr	r1, [r3, #0]
 80002bc:	f000 f98e 	bl	80005dc <lora_module_send_command>
  osDelay(50);
 80002c0:	2032      	movs	r0, #50	; 0x32
 80002c2:	f003 f97f 	bl	80035c4 <osDelay>
  lora_module_send_command(RN_MAC_SET_PWRIDX, "1");
 80002c6:	491b      	ldr	r1, [pc, #108]	; (8000334 <StartDefaultTask+0xe0>)
 80002c8:	481b      	ldr	r0, [pc, #108]	; (8000338 <StartDefaultTask+0xe4>)
 80002ca:	f000 f987 	bl	80005dc <lora_module_send_command>
  osDelay(50);
 80002ce:	2032      	movs	r0, #50	; 0x32
 80002d0:	f003 f978 	bl	80035c4 <osDelay>
  lora_module_send_command(RN_MAC_SET_ADR_ON_CMD, "off");
 80002d4:	4c19      	ldr	r4, [pc, #100]	; (800033c <StartDefaultTask+0xe8>)
 80002d6:	481a      	ldr	r0, [pc, #104]	; (8000340 <StartDefaultTask+0xec>)
 80002d8:	0021      	movs	r1, r4
 80002da:	f000 f97f 	bl	80005dc <lora_module_send_command>
  osDelay(50);
 80002de:	2032      	movs	r0, #50	; 0x32
 80002e0:	f003 f970 	bl	80035c4 <osDelay>
  lora_module_send_command(RN_MAC_SET_AR_ON_CMD, "off");
 80002e4:	0021      	movs	r1, r4
 80002e6:	4817      	ldr	r0, [pc, #92]	; (8000344 <StartDefaultTask+0xf0>)
 80002e8:	f000 f978 	bl	80005dc <lora_module_send_command>
  osDelay(50);
 80002ec:	2032      	movs	r0, #50	; 0x32
 80002ee:	f003 f969 	bl	80035c4 <osDelay>
  lora_module_send_command(RN_MAC_SAVE_CMD, NULL);
 80002f2:	4815      	ldr	r0, [pc, #84]	; (8000348 <StartDefaultTask+0xf4>)
 80002f4:	2100      	movs	r1, #0
 80002f6:	f000 f971 	bl	80005dc <lora_module_send_command>
  osDelay(50);
 80002fa:	2032      	movs	r0, #50	; 0x32
 80002fc:	f003 f962 	bl	80035c4 <osDelay>
	  lora_module_join_otaa();
 8000300:	f000 f9b8 	bl	8000674 <lora_module_join_otaa>
	  osDelay(5000);
 8000304:	4811      	ldr	r0, [pc, #68]	; (800034c <StartDefaultTask+0xf8>)
 8000306:	e7f9      	b.n	80002fc <StartDefaultTask+0xa8>
 8000308:	00000bb8 	.word	0x00000bb8
 800030c:	08004cec 	.word	0x08004cec
 8000310:	08004cf2 	.word	0x08004cf2
 8000314:	08004cf8 	.word	0x08004cf8
 8000318:	08004cfe 	.word	0x08004cfe
 800031c:	20000008 	.word	0x20000008
 8000320:	08004d0c 	.word	0x08004d0c
 8000324:	20000004 	.word	0x20000004
 8000328:	08004d1b 	.word	0x08004d1b
 800032c:	20000000 	.word	0x20000000
 8000330:	08004d2a 	.word	0x08004d2a
 8000334:	08004d39 	.word	0x08004d39
 8000338:	08004d3b 	.word	0x08004d3b
 800033c:	08004d4a 	.word	0x08004d4a
 8000340:	08004d4e 	.word	0x08004d4e
 8000344:	08004d5a 	.word	0x08004d5a
 8000348:	08004d65 	.word	0x08004d65
 800034c:	00001388 	.word	0x00001388

08000350 <MX_FREERTOS_Init>:
void MX_FREERTOS_Init(void) {
 8000350:	b570      	push	{r4, r5, r6, lr}
  osThreadDef(defaultTask, StartDefaultTask, osPriorityNormal, 0, 128);
 8000352:	4c0e      	ldr	r4, [pc, #56]	; (800038c <MX_FREERTOS_Init+0x3c>)
void MX_FREERTOS_Init(void) {
 8000354:	b08a      	sub	sp, #40	; 0x28
  osThreadDef(defaultTask, StartDefaultTask, osPriorityNormal, 0, 128);
 8000356:	466b      	mov	r3, sp
 8000358:	0022      	movs	r2, r4
 800035a:	ca62      	ldmia	r2!, {r1, r5, r6}
 800035c:	c362      	stmia	r3!, {r1, r5, r6}
 800035e:	4668      	mov	r0, sp
 8000360:	ca22      	ldmia	r2!, {r1, r5}
 8000362:	c322      	stmia	r3!, {r1, r5}
  defaultTaskHandle = osThreadCreate(osThread(defaultTask), NULL);
 8000364:	2100      	movs	r1, #0
 8000366:	f003 f915 	bl	8003594 <osThreadCreate>
 800036a:	4b09      	ldr	r3, [pc, #36]	; (8000390 <MX_FREERTOS_Init+0x40>)
  osThreadDef(serviceTask, StartServiceTask, osPriorityIdle, 0, 128);
 800036c:	3414      	adds	r4, #20
  defaultTaskHandle = osThreadCreate(osThread(defaultTask), NULL);
 800036e:	6018      	str	r0, [r3, #0]
  osThreadDef(serviceTask, StartServiceTask, osPriorityIdle, 0, 128);
 8000370:	a805      	add	r0, sp, #20
 8000372:	0002      	movs	r2, r0
 8000374:	cc2a      	ldmia	r4!, {r1, r3, r5}
 8000376:	c22a      	stmia	r2!, {r1, r3, r5}
 8000378:	cc0a      	ldmia	r4!, {r1, r3}
 800037a:	c20a      	stmia	r2!, {r1, r3}
  serviceTaskHandle = osThreadCreate(osThread(serviceTask), NULL);
 800037c:	2100      	movs	r1, #0
 800037e:	f003 f909 	bl	8003594 <osThreadCreate>
 8000382:	4b04      	ldr	r3, [pc, #16]	; (8000394 <MX_FREERTOS_Init+0x44>)
 8000384:	6018      	str	r0, [r3, #0]
}
 8000386:	b00a      	add	sp, #40	; 0x28
 8000388:	bd70      	pop	{r4, r5, r6, pc}
 800038a:	46c0      	nop			; (mov r8, r8)
 800038c:	08004ca4 	.word	0x08004ca4
 8000390:	2000117c 	.word	0x2000117c
 8000394:	20001178 	.word	0x20001178

08000398 <MX_GPIO_Init>:
        * Output
        * EVENT_OUT
        * EXTI
*/
void MX_GPIO_Init(void)
{
 8000398:	b570      	push	{r4, r5, r6, lr}
 800039a:	b08a      	sub	sp, #40	; 0x28

  GPIO_InitTypeDef GPIO_InitStruct = {0};
 800039c:	2214      	movs	r2, #20
 800039e:	2100      	movs	r1, #0
 80003a0:	a805      	add	r0, sp, #20
 80003a2:	f004 f83a 	bl	800441a <memset>

  /* GPIO Ports Clock Enable */
  __HAL_RCC_GPIOC_CLK_ENABLE();
 80003a6:	2080      	movs	r0, #128	; 0x80
 80003a8:	4b24      	ldr	r3, [pc, #144]	; (800043c <MX_GPIO_Init+0xa4>)
 80003aa:	0300      	lsls	r0, r0, #12
 80003ac:	6959      	ldr	r1, [r3, #20]
  __HAL_RCC_GPIOF_CLK_ENABLE();
  __HAL_RCC_GPIOA_CLK_ENABLE();
  __HAL_RCC_GPIOB_CLK_ENABLE();

  /*Configure GPIO pin Output Level */
  HAL_GPIO_WritePin(GPIOB, GPIO_PIN_12, GPIO_PIN_RESET);
 80003ae:	2680      	movs	r6, #128	; 0x80
  __HAL_RCC_GPIOC_CLK_ENABLE();
 80003b0:	4301      	orrs	r1, r0
 80003b2:	6159      	str	r1, [r3, #20]
 80003b4:	695a      	ldr	r2, [r3, #20]
  HAL_GPIO_WritePin(GPIOB, GPIO_PIN_12, GPIO_PIN_RESET);
 80003b6:	4d22      	ldr	r5, [pc, #136]	; (8000440 <MX_GPIO_Init+0xa8>)
  __HAL_RCC_GPIOC_CLK_ENABLE();
 80003b8:	4002      	ands	r2, r0
  __HAL_RCC_GPIOF_CLK_ENABLE();
 80003ba:	2080      	movs	r0, #128	; 0x80
  __HAL_RCC_GPIOC_CLK_ENABLE();
 80003bc:	9201      	str	r2, [sp, #4]
 80003be:	9a01      	ldr	r2, [sp, #4]
  __HAL_RCC_GPIOF_CLK_ENABLE();
 80003c0:	6959      	ldr	r1, [r3, #20]
 80003c2:	03c0      	lsls	r0, r0, #15
 80003c4:	4301      	orrs	r1, r0
 80003c6:	6159      	str	r1, [r3, #20]
 80003c8:	695a      	ldr	r2, [r3, #20]
  HAL_GPIO_WritePin(GPIOB, GPIO_PIN_12, GPIO_PIN_RESET);
 80003ca:	0176      	lsls	r6, r6, #5
  __HAL_RCC_GPIOF_CLK_ENABLE();
 80003cc:	4002      	ands	r2, r0
  __HAL_RCC_GPIOA_CLK_ENABLE();
 80003ce:	2080      	movs	r0, #128	; 0x80
  __HAL_RCC_GPIOF_CLK_ENABLE();
 80003d0:	9202      	str	r2, [sp, #8]
 80003d2:	9a02      	ldr	r2, [sp, #8]
  __HAL_RCC_GPIOA_CLK_ENABLE();
 80003d4:	6959      	ldr	r1, [r3, #20]
 80003d6:	0280      	lsls	r0, r0, #10
 80003d8:	4301      	orrs	r1, r0
 80003da:	6159      	str	r1, [r3, #20]
  __HAL_RCC_GPIOB_CLK_ENABLE();
 80003dc:	2180      	movs	r1, #128	; 0x80
  __HAL_RCC_GPIOA_CLK_ENABLE();
 80003de:	695a      	ldr	r2, [r3, #20]
  __HAL_RCC_GPIOB_CLK_ENABLE();
 80003e0:	02c9      	lsls	r1, r1, #11
  __HAL_RCC_GPIOA_CLK_ENABLE();
 80003e2:	4002      	ands	r2, r0
 80003e4:	9203      	str	r2, [sp, #12]
 80003e6:	9a03      	ldr	r2, [sp, #12]
  __HAL_RCC_GPIOB_CLK_ENABLE();
 80003e8:	695a      	ldr	r2, [r3, #20]
  HAL_GPIO_WritePin(GPIOB, GPIO_PIN_12, GPIO_PIN_RESET);
 80003ea:	0028      	movs	r0, r5
  __HAL_RCC_GPIOB_CLK_ENABLE();
 80003ec:	430a      	orrs	r2, r1
 80003ee:	615a      	str	r2, [r3, #20]
 80003f0:	695b      	ldr	r3, [r3, #20]
  HAL_GPIO_WritePin(GPIOB, GPIO_PIN_12, GPIO_PIN_RESET);
 80003f2:	2200      	movs	r2, #0
  __HAL_RCC_GPIOB_CLK_ENABLE();
 80003f4:	400b      	ands	r3, r1
 80003f6:	9304      	str	r3, [sp, #16]
  HAL_GPIO_WritePin(GPIOB, GPIO_PIN_12, GPIO_PIN_RESET);
 80003f8:	0031      	movs	r1, r6
  __HAL_RCC_GPIOB_CLK_ENABLE();
 80003fa:	9b04      	ldr	r3, [sp, #16]
  HAL_GPIO_WritePin(GPIOB, GPIO_PIN_12, GPIO_PIN_RESET);
 80003fc:	f000 fc60 	bl	8000cc0 <HAL_GPIO_WritePin>

  /*Configure GPIO pin : PC13 */
  GPIO_InitStruct.Pin = GPIO_PIN_13;
 8000400:	2380      	movs	r3, #128	; 0x80
  GPIO_InitStruct.Mode = GPIO_MODE_INPUT;
 8000402:	2400      	movs	r4, #0
  GPIO_InitStruct.Pin = GPIO_PIN_13;
 8000404:	019b      	lsls	r3, r3, #6
  GPIO_InitStruct.Pull = GPIO_NOPULL;
  HAL_GPIO_Init(GPIOC, &GPIO_InitStruct);
 8000406:	a905      	add	r1, sp, #20
 8000408:	480e      	ldr	r0, [pc, #56]	; (8000444 <MX_GPIO_Init+0xac>)
  GPIO_InitStruct.Pin = GPIO_PIN_13;
 800040a:	9305      	str	r3, [sp, #20]
  GPIO_InitStruct.Mode = GPIO_MODE_INPUT;
 800040c:	9406      	str	r4, [sp, #24]
  GPIO_InitStruct.Pull = GPIO_NOPULL;
 800040e:	9407      	str	r4, [sp, #28]
  HAL_GPIO_Init(GPIOC, &GPIO_InitStruct);
 8000410:	f000 fba6 	bl	8000b60 <HAL_GPIO_Init>

  /*Configure GPIO pins : PB0 PB8 */
  GPIO_InitStruct.Pin = GPIO_PIN_0|GPIO_PIN_8;
 8000414:	2302      	movs	r3, #2
  GPIO_InitStruct.Mode = GPIO_MODE_INPUT;
  GPIO_InitStruct.Pull = GPIO_NOPULL;
  HAL_GPIO_Init(GPIOB, &GPIO_InitStruct);
 8000416:	a905      	add	r1, sp, #20
  GPIO_InitStruct.Pin = GPIO_PIN_0|GPIO_PIN_8;
 8000418:	33ff      	adds	r3, #255	; 0xff
  HAL_GPIO_Init(GPIOB, &GPIO_InitStruct);
 800041a:	0028      	movs	r0, r5
  GPIO_InitStruct.Pin = GPIO_PIN_0|GPIO_PIN_8;
 800041c:	9305      	str	r3, [sp, #20]
  GPIO_InitStruct.Mode = GPIO_MODE_INPUT;
 800041e:	9406      	str	r4, [sp, #24]
  GPIO_InitStruct.Pull = GPIO_NOPULL;
 8000420:	9407      	str	r4, [sp, #28]
  HAL_GPIO_Init(GPIOB, &GPIO_InitStruct);
 8000422:	f000 fb9d 	bl	8000b60 <HAL_GPIO_Init>

  /*Configure GPIO pin : PB12 */
  GPIO_InitStruct.Pin = GPIO_PIN_12;
  GPIO_InitStruct.Mode = GPIO_MODE_OUTPUT_PP;
 8000426:	2301      	movs	r3, #1
  GPIO_InitStruct.Pull = GPIO_NOPULL;
  GPIO_InitStruct.Speed = GPIO_SPEED_FREQ_LOW;
  HAL_GPIO_Init(GPIOB, &GPIO_InitStruct);
 8000428:	a905      	add	r1, sp, #20
 800042a:	0028      	movs	r0, r5
  GPIO_InitStruct.Pin = GPIO_PIN_12;
 800042c:	9605      	str	r6, [sp, #20]
  GPIO_InitStruct.Mode = GPIO_MODE_OUTPUT_PP;
 800042e:	9306      	str	r3, [sp, #24]
  GPIO_InitStruct.Pull = GPIO_NOPULL;
 8000430:	9407      	str	r4, [sp, #28]
  GPIO_InitStruct.Speed = GPIO_SPEED_FREQ_LOW;
 8000432:	9408      	str	r4, [sp, #32]
  HAL_GPIO_Init(GPIOB, &GPIO_InitStruct);
 8000434:	f000 fb94 	bl	8000b60 <HAL_GPIO_Init>

}
 8000438:	b00a      	add	sp, #40	; 0x28
 800043a:	bd70      	pop	{r4, r5, r6, pc}
 800043c:	40021000 	.word	0x40021000
 8000440:	48000400 	.word	0x48000400
 8000444:	48000800 	.word	0x48000800

08000448 <MX_I2C1_Init>:

I2C_HandleTypeDef hi2c1;

/* I2C1 init function */
void MX_I2C1_Init(void)
{
 8000448:	b510      	push	{r4, lr}

  hi2c1.Instance = I2C1;
 800044a:	4b13      	ldr	r3, [pc, #76]	; (8000498 <MX_I2C1_Init+0x50>)
 800044c:	4c13      	ldr	r4, [pc, #76]	; (800049c <MX_I2C1_Init+0x54>)
  hi2c1.Init.Timing = 0x2000090E;
  hi2c1.Init.OwnAddress1 = 0;
  hi2c1.Init.AddressingMode = I2C_ADDRESSINGMODE_7BIT;
 800044e:	2201      	movs	r2, #1
  hi2c1.Instance = I2C1;
 8000450:	6023      	str	r3, [r4, #0]
  hi2c1.Init.Timing = 0x2000090E;
 8000452:	4b13      	ldr	r3, [pc, #76]	; (80004a0 <MX_I2C1_Init+0x58>)
  hi2c1.Init.DualAddressMode = I2C_DUALADDRESS_DISABLE;
  hi2c1.Init.OwnAddress2 = 0;
  hi2c1.Init.OwnAddress2Masks = I2C_OA2_NOMASK;
  hi2c1.Init.GeneralCallMode = I2C_GENERALCALL_DISABLE;
  hi2c1.Init.NoStretchMode = I2C_NOSTRETCH_DISABLE;
  if (HAL_I2C_Init(&hi2c1) != HAL_OK)
 8000454:	0020      	movs	r0, r4
  hi2c1.Init.Timing = 0x2000090E;
 8000456:	6063      	str	r3, [r4, #4]
  hi2c1.Init.OwnAddress1 = 0;
 8000458:	2300      	movs	r3, #0
  hi2c1.Init.AddressingMode = I2C_ADDRESSINGMODE_7BIT;
 800045a:	60e2      	str	r2, [r4, #12]
  hi2c1.Init.OwnAddress1 = 0;
 800045c:	60a3      	str	r3, [r4, #8]
  hi2c1.Init.DualAddressMode = I2C_DUALADDRESS_DISABLE;
 800045e:	6123      	str	r3, [r4, #16]
  hi2c1.Init.OwnAddress2 = 0;
 8000460:	6163      	str	r3, [r4, #20]
  hi2c1.Init.OwnAddress2Masks = I2C_OA2_NOMASK;
 8000462:	61a3      	str	r3, [r4, #24]
  hi2c1.Init.GeneralCallMode = I2C_GENERALCALL_DISABLE;
 8000464:	61e3      	str	r3, [r4, #28]
  hi2c1.Init.NoStretchMode = I2C_NOSTRETCH_DISABLE;
 8000466:	6223      	str	r3, [r4, #32]
  if (HAL_I2C_Init(&hi2c1) != HAL_OK)
 8000468:	f000 fc30 	bl	8000ccc <HAL_I2C_Init>
 800046c:	2800      	cmp	r0, #0
 800046e:	d001      	beq.n	8000474 <MX_I2C1_Init+0x2c>
  {
    Error_Handler();
 8000470:	f000 f992 	bl	8000798 <Error_Handler>
  }
  /** Configure Analogue filter 
  */
  if (HAL_I2CEx_ConfigAnalogFilter(&hi2c1, I2C_ANALOGFILTER_ENABLE) != HAL_OK)
 8000474:	2100      	movs	r1, #0
 8000476:	0020      	movs	r0, r4
 8000478:	f000 fc7e 	bl	8000d78 <HAL_I2CEx_ConfigAnalogFilter>
 800047c:	2800      	cmp	r0, #0
 800047e:	d001      	beq.n	8000484 <MX_I2C1_Init+0x3c>
  {
    Error_Handler();
 8000480:	f000 f98a 	bl	8000798 <Error_Handler>
  }
  /** Configure Digital filter 
  */
  if (HAL_I2CEx_ConfigDigitalFilter(&hi2c1, 0) != HAL_OK)
 8000484:	2100      	movs	r1, #0
 8000486:	0020      	movs	r0, r4
 8000488:	f000 fc9c 	bl	8000dc4 <HAL_I2CEx_ConfigDigitalFilter>
 800048c:	2800      	cmp	r0, #0
 800048e:	d001      	beq.n	8000494 <MX_I2C1_Init+0x4c>
  {
    Error_Handler();
 8000490:	f000 f982 	bl	8000798 <Error_Handler>
  }

}
 8000494:	bd10      	pop	{r4, pc}
 8000496:	46c0      	nop			; (mov r8, r8)
 8000498:	40005400 	.word	0x40005400
 800049c:	20001184 	.word	0x20001184
 80004a0:	2000090e 	.word	0x2000090e

080004a4 <HAL_I2C_MspInit>:

void HAL_I2C_MspInit(I2C_HandleTypeDef* i2cHandle)
{
 80004a4:	b510      	push	{r4, lr}
 80004a6:	0004      	movs	r4, r0
 80004a8:	b088      	sub	sp, #32

  GPIO_InitTypeDef GPIO_InitStruct = {0};
 80004aa:	2214      	movs	r2, #20
 80004ac:	2100      	movs	r1, #0
 80004ae:	a803      	add	r0, sp, #12
 80004b0:	f003 ffb3 	bl	800441a <memset>
  if(i2cHandle->Instance==I2C1)
 80004b4:	4b13      	ldr	r3, [pc, #76]	; (8000504 <HAL_I2C_MspInit+0x60>)
 80004b6:	6822      	ldr	r2, [r4, #0]
 80004b8:	429a      	cmp	r2, r3
 80004ba:	d120      	bne.n	80004fe <HAL_I2C_MspInit+0x5a>
  {
  /* USER CODE BEGIN I2C1_MspInit 0 */

  /* USER CODE END I2C1_MspInit 0 */
  
    __HAL_RCC_GPIOB_CLK_ENABLE();
 80004bc:	2180      	movs	r1, #128	; 0x80
 80004be:	4c12      	ldr	r4, [pc, #72]	; (8000508 <HAL_I2C_MspInit+0x64>)
 80004c0:	02c9      	lsls	r1, r1, #11
 80004c2:	6962      	ldr	r2, [r4, #20]
    GPIO_InitStruct.Pin = GPIO_PIN_6|GPIO_PIN_9;
    GPIO_InitStruct.Mode = GPIO_MODE_AF_OD;
    GPIO_InitStruct.Pull = GPIO_PULLUP;
    GPIO_InitStruct.Speed = GPIO_SPEED_FREQ_HIGH;
    GPIO_InitStruct.Alternate = GPIO_AF1_I2C1;
    HAL_GPIO_Init(GPIOB, &GPIO_InitStruct);
 80004c4:	4811      	ldr	r0, [pc, #68]	; (800050c <HAL_I2C_MspInit+0x68>)
    __HAL_RCC_GPIOB_CLK_ENABLE();
 80004c6:	430a      	orrs	r2, r1
 80004c8:	6162      	str	r2, [r4, #20]
 80004ca:	6963      	ldr	r3, [r4, #20]
    GPIO_InitStruct.Speed = GPIO_SPEED_FREQ_HIGH;
 80004cc:	2203      	movs	r2, #3
    __HAL_RCC_GPIOB_CLK_ENABLE();
 80004ce:	400b      	ands	r3, r1
 80004d0:	9301      	str	r3, [sp, #4]
 80004d2:	9b01      	ldr	r3, [sp, #4]
    GPIO_InitStruct.Pin = GPIO_PIN_6|GPIO_PIN_9;
 80004d4:	2390      	movs	r3, #144	; 0x90
 80004d6:	009b      	lsls	r3, r3, #2
 80004d8:	9303      	str	r3, [sp, #12]
    GPIO_InitStruct.Mode = GPIO_MODE_AF_OD;
 80004da:	2312      	movs	r3, #18
    HAL_GPIO_Init(GPIOB, &GPIO_InitStruct);
 80004dc:	a903      	add	r1, sp, #12
    GPIO_InitStruct.Mode = GPIO_MODE_AF_OD;
 80004de:	9304      	str	r3, [sp, #16]
    GPIO_InitStruct.Pull = GPIO_PULLUP;
 80004e0:	3b11      	subs	r3, #17
 80004e2:	9305      	str	r3, [sp, #20]
    GPIO_InitStruct.Speed = GPIO_SPEED_FREQ_HIGH;
 80004e4:	9206      	str	r2, [sp, #24]
    GPIO_InitStruct.Alternate = GPIO_AF1_I2C1;
 80004e6:	9307      	str	r3, [sp, #28]
    HAL_GPIO_Init(GPIOB, &GPIO_InitStruct);
 80004e8:	f000 fb3a 	bl	8000b60 <HAL_GPIO_Init>

    /* I2C1 clock enable */
    __HAL_RCC_I2C1_CLK_ENABLE();
 80004ec:	2180      	movs	r1, #128	; 0x80
 80004ee:	69e2      	ldr	r2, [r4, #28]
 80004f0:	0389      	lsls	r1, r1, #14
 80004f2:	430a      	orrs	r2, r1
 80004f4:	61e2      	str	r2, [r4, #28]
 80004f6:	69e3      	ldr	r3, [r4, #28]
 80004f8:	400b      	ands	r3, r1
 80004fa:	9302      	str	r3, [sp, #8]
 80004fc:	9b02      	ldr	r3, [sp, #8]
  /* USER CODE BEGIN I2C1_MspInit 1 */

  /* USER CODE END I2C1_MspInit 1 */
  }
}
 80004fe:	b008      	add	sp, #32
 8000500:	bd10      	pop	{r4, pc}
 8000502:	46c0      	nop			; (mov r8, r8)
 8000504:	40005400 	.word	0x40005400
 8000508:	40021000 	.word	0x40021000
 800050c:	48000400 	.word	0x48000400

08000510 <lora_module_reboot>:
 *      Author: frazer
 */

#include "lora.h"

void lora_module_reboot() {
 8000510:	b530      	push	{r4, r5, lr}
 8000512:	b08f      	sub	sp, #60	; 0x3c

	char buffer[50] = {'\0'};
 8000514:	2232      	movs	r2, #50	; 0x32
 8000516:	2100      	movs	r1, #0
 8000518:	a801      	add	r0, sp, #4
 800051a:	f003 ff7e 	bl	800441a <memset>

	while(i) {

		len = sprintf(buffer, "%s\r\n", RN_SYS_RESET);
		HAL_UART_Transmit(&huart3, (uint8_t*)buffer, len, 100);
		memset(buffer, '\0', 50);
 800051e:	2432      	movs	r4, #50	; 0x32
		len = sprintf(buffer, "%s\r\n", RN_SYS_RESET);
 8000520:	4a0f      	ldr	r2, [pc, #60]	; (8000560 <lora_module_reboot+0x50>)
 8000522:	4910      	ldr	r1, [pc, #64]	; (8000564 <lora_module_reboot+0x54>)
 8000524:	a801      	add	r0, sp, #4
 8000526:	f003 ff81 	bl	800442c <siprintf>
		HAL_UART_Transmit(&huart3, (uint8_t*)buffer, len, 100);
 800052a:	4d0f      	ldr	r5, [pc, #60]	; (8000568 <lora_module_reboot+0x58>)
 800052c:	b2c2      	uxtb	r2, r0
 800052e:	2364      	movs	r3, #100	; 0x64
 8000530:	a901      	add	r1, sp, #4
 8000532:	0028      	movs	r0, r5
 8000534:	f002 f98a 	bl	800284c <HAL_UART_Transmit>
		memset(buffer, '\0', 50);
 8000538:	0022      	movs	r2, r4
 800053a:	2100      	movs	r1, #0
 800053c:	a801      	add	r0, sp, #4
 800053e:	f003 ff6c 	bl	800441a <memset>
		if (HAL_UART_Receive(&huart3, (uint8_t*)buffer, 50, 5000) == HAL_TIMEOUT) {
 8000542:	a901      	add	r1, sp, #4
 8000544:	0028      	movs	r0, r5
 8000546:	4b09      	ldr	r3, [pc, #36]	; (800056c <lora_module_reboot+0x5c>)
 8000548:	0022      	movs	r2, r4
 800054a:	f002 f9e5 	bl	8002918 <HAL_UART_Receive>
			i = 0;
		}

		CDC_Transmit_FS((uint8_t*)buffer, 50);
 800054e:	0021      	movs	r1, r4
		if (HAL_UART_Receive(&huart3, (uint8_t*)buffer, 50, 5000) == HAL_TIMEOUT) {
 8000550:	0005      	movs	r5, r0
		CDC_Transmit_FS((uint8_t*)buffer, 50);
 8000552:	a801      	add	r0, sp, #4
 8000554:	f003 fd16 	bl	8003f84 <CDC_Transmit_FS>
	while(i) {
 8000558:	2d03      	cmp	r5, #3
 800055a:	d1e1      	bne.n	8000520 <lora_module_reboot+0x10>
	}
}
 800055c:	b00f      	add	sp, #60	; 0x3c
 800055e:	bd30      	pop	{r4, r5, pc}
 8000560:	08004dd7 	.word	0x08004dd7
 8000564:	08004de4 	.word	0x08004de4
 8000568:	20001210 	.word	0x20001210
 800056c:	00001388 	.word	0x00001388

08000570 <lora_module_set_gpio>:

void lora_module_set_gpio(char *gpio, uint8_t state) {
 8000570:	b5f0      	push	{r4, r5, r6, r7, lr}
 8000572:	b089      	sub	sp, #36	; 0x24
 8000574:	0006      	movs	r6, r0
 8000576:	000f      	movs	r7, r1

	char buffer[30] = {'\0'};
 8000578:	221e      	movs	r2, #30
 800057a:	2100      	movs	r1, #0
 800057c:	4668      	mov	r0, sp
 800057e:	f003 ff4c 	bl	800441a <memset>
	uint8_t len = 0;

	while(strstr(buffer, "ok") == NULL) {
 8000582:	4913      	ldr	r1, [pc, #76]	; (80005d0 <lora_module_set_gpio+0x60>)
 8000584:	4668      	mov	r0, sp
 8000586:	f003 ff73 	bl	8004470 <strstr>
 800058a:	1e04      	subs	r4, r0, #0
 800058c:	d001      	beq.n	8000592 <lora_module_set_gpio+0x22>
		memset(buffer, '\0', 30);
		HAL_UART_Receive(&huart3, (uint8_t*)buffer, 30, 200);

		//CDC_Transmit_FS((uint8_t*)buffer, 30);
	}
}
 800058e:	b009      	add	sp, #36	; 0x24
 8000590:	bdf0      	pop	{r4, r5, r6, r7, pc}
		memset(buffer, '\0', 30);
 8000592:	0021      	movs	r1, r4
 8000594:	221e      	movs	r2, #30
 8000596:	4668      	mov	r0, sp
 8000598:	f003 ff3f 	bl	800441a <memset>
		len = sprintf(buffer, "sys set pindig %s %u\r\n", gpio, state);
 800059c:	003b      	movs	r3, r7
 800059e:	0032      	movs	r2, r6
 80005a0:	490c      	ldr	r1, [pc, #48]	; (80005d4 <lora_module_set_gpio+0x64>)
 80005a2:	4668      	mov	r0, sp
 80005a4:	f003 ff42 	bl	800442c <siprintf>
		HAL_UART_Transmit(&huart3, (uint8_t*)buffer, len, 100);
 80005a8:	4d0b      	ldr	r5, [pc, #44]	; (80005d8 <lora_module_set_gpio+0x68>)
 80005aa:	b2c2      	uxtb	r2, r0
 80005ac:	2364      	movs	r3, #100	; 0x64
 80005ae:	4669      	mov	r1, sp
 80005b0:	0028      	movs	r0, r5
 80005b2:	f002 f94b 	bl	800284c <HAL_UART_Transmit>
		memset(buffer, '\0', 30);
 80005b6:	0021      	movs	r1, r4
 80005b8:	221e      	movs	r2, #30
 80005ba:	4668      	mov	r0, sp
 80005bc:	f003 ff2d 	bl	800441a <memset>
		HAL_UART_Receive(&huart3, (uint8_t*)buffer, 30, 200);
 80005c0:	23c8      	movs	r3, #200	; 0xc8
 80005c2:	221e      	movs	r2, #30
 80005c4:	4669      	mov	r1, sp
 80005c6:	0028      	movs	r0, r5
 80005c8:	f002 f9a6 	bl	8002918 <HAL_UART_Receive>
 80005cc:	e7d9      	b.n	8000582 <lora_module_set_gpio+0x12>
 80005ce:	46c0      	nop			; (mov r8, r8)
 80005d0:	08004e00 	.word	0x08004e00
 80005d4:	08004de9 	.word	0x08004de9
 80005d8:	20001210 	.word	0x20001210

080005dc <lora_module_send_command>:

void lora_module_send_command(char *command, char *value) {
 80005dc:	b5f0      	push	{r4, r5, r6, r7, lr}
 80005de:	b08f      	sub	sp, #60	; 0x3c
 80005e0:	0006      	movs	r6, r0
 80005e2:	000f      	movs	r7, r1

	char buffer[50] = {'\0'};
 80005e4:	2232      	movs	r2, #50	; 0x32
 80005e6:	2100      	movs	r1, #0
 80005e8:	a801      	add	r0, sp, #4
 80005ea:	f003 ff16 	bl	800441a <memset>
	uint8_t len = 0;
	uint8_t loop_count = 0;

	while(strstr(buffer, "ok") == NULL) {
 80005ee:	2504      	movs	r5, #4
 80005f0:	491c      	ldr	r1, [pc, #112]	; (8000664 <lora_module_send_command+0x88>)
 80005f2:	a801      	add	r0, sp, #4
 80005f4:	f003 ff3c 	bl	8004470 <strstr>
 80005f8:	1e01      	subs	r1, r0, #0
 80005fa:	d12a      	bne.n	8000652 <lora_module_send_command+0x76>

		memset(buffer, '\0', 50);
 80005fc:	2232      	movs	r2, #50	; 0x32
 80005fe:	a801      	add	r0, sp, #4
 8000600:	f003 ff0b 	bl	800441a <memset>

		if(value != NULL) {
 8000604:	2f00      	cmp	r7, #0
 8000606:	d026      	beq.n	8000656 <lora_module_send_command+0x7a>
			len = sprintf(buffer, "%s %s\r\n", command, value);
 8000608:	003b      	movs	r3, r7
 800060a:	0032      	movs	r2, r6
 800060c:	4916      	ldr	r1, [pc, #88]	; (8000668 <lora_module_send_command+0x8c>)
 800060e:	a801      	add	r0, sp, #4
 8000610:	f003 ff0c 	bl	800442c <siprintf>
			CDC_Transmit_FS((uint8_t*)buffer, 50);
		}
		else {
			len = sprintf(buffer, "%s\r\n", command);
 8000614:	b2c4      	uxtb	r4, r0
			CDC_Transmit_FS((uint8_t*)buffer, 50);
 8000616:	2132      	movs	r1, #50	; 0x32
 8000618:	a801      	add	r0, sp, #4
 800061a:	f003 fcb3 	bl	8003f84 <CDC_Transmit_FS>
		}

		HAL_UART_Transmit(&huart3, (uint8_t*)buffer, len, 100);
 800061e:	b2a2      	uxth	r2, r4
 8000620:	4c12      	ldr	r4, [pc, #72]	; (800066c <lora_module_send_command+0x90>)
 8000622:	2364      	movs	r3, #100	; 0x64
 8000624:	a901      	add	r1, sp, #4
 8000626:	0020      	movs	r0, r4
 8000628:	f002 f910 	bl	800284c <HAL_UART_Transmit>

		memset(buffer, '\0', 50);
 800062c:	2232      	movs	r2, #50	; 0x32
 800062e:	2100      	movs	r1, #0
 8000630:	a801      	add	r0, sp, #4
 8000632:	f003 fef2 	bl	800441a <memset>
 8000636:	3d01      	subs	r5, #1
		HAL_UART_Receive(&huart3, (uint8_t*)buffer, 50, 200);
 8000638:	23c8      	movs	r3, #200	; 0xc8
 800063a:	2232      	movs	r2, #50	; 0x32
 800063c:	a901      	add	r1, sp, #4
 800063e:	0020      	movs	r0, r4
 8000640:	f002 f96a 	bl	8002918 <HAL_UART_Receive>
 8000644:	b2ed      	uxtb	r5, r5

		CDC_Transmit_FS((uint8_t*)buffer, 50);
 8000646:	2132      	movs	r1, #50	; 0x32
 8000648:	a801      	add	r0, sp, #4
 800064a:	f003 fc9b 	bl	8003f84 <CDC_Transmit_FS>

		if(loop_count >= 3) {
 800064e:	2d00      	cmp	r5, #0
 8000650:	d1ce      	bne.n	80005f0 <lora_module_send_command+0x14>
		else {
			loop_count++;
		}

	}
}
 8000652:	b00f      	add	sp, #60	; 0x3c
 8000654:	bdf0      	pop	{r4, r5, r6, r7, pc}
			len = sprintf(buffer, "%s\r\n", command);
 8000656:	0032      	movs	r2, r6
 8000658:	4905      	ldr	r1, [pc, #20]	; (8000670 <lora_module_send_command+0x94>)
 800065a:	a801      	add	r0, sp, #4
 800065c:	f003 fee6 	bl	800442c <siprintf>
 8000660:	e7d8      	b.n	8000614 <lora_module_send_command+0x38>
 8000662:	46c0      	nop			; (mov r8, r8)
 8000664:	08004e00 	.word	0x08004e00
 8000668:	08004de1 	.word	0x08004de1
 800066c:	20001210 	.word	0x20001210
 8000670:	08004de4 	.word	0x08004de4

08000674 <lora_module_join_otaa>:

void lora_module_join_otaa() {
 8000674:	b570      	push	{r4, r5, r6, lr}
 8000676:	b08e      	sub	sp, #56	; 0x38

	char buffer[50] = {'\0'};
 8000678:	2232      	movs	r2, #50	; 0x32
 800067a:	2100      	movs	r1, #0
 800067c:	a801      	add	r0, sp, #4
	while(i) {

		len = sprintf(buffer, "%s\r\n", RN_JOIN_OTAA_MODE);
		HAL_UART_Transmit(&huart3, (uint8_t*)buffer, len, 100);
		memset(buffer, '\0', 50);
		if (HAL_UART_Receive(&huart3, (uint8_t*)buffer, 50, 1000) == HAL_TIMEOUT) {
 800067e:	25fa      	movs	r5, #250	; 0xfa
	char buffer[50] = {'\0'};
 8000680:	f003 fecb 	bl	800441a <memset>
		memset(buffer, '\0', 50);
 8000684:	2432      	movs	r4, #50	; 0x32
		if (HAL_UART_Receive(&huart3, (uint8_t*)buffer, 50, 1000) == HAL_TIMEOUT) {
 8000686:	00ad      	lsls	r5, r5, #2
		len = sprintf(buffer, "%s\r\n", RN_JOIN_OTAA_MODE);
 8000688:	4a0f      	ldr	r2, [pc, #60]	; (80006c8 <lora_module_join_otaa+0x54>)
 800068a:	4910      	ldr	r1, [pc, #64]	; (80006cc <lora_module_join_otaa+0x58>)
 800068c:	a801      	add	r0, sp, #4
 800068e:	f003 fecd 	bl	800442c <siprintf>
		HAL_UART_Transmit(&huart3, (uint8_t*)buffer, len, 100);
 8000692:	4e0f      	ldr	r6, [pc, #60]	; (80006d0 <lora_module_join_otaa+0x5c>)
 8000694:	b2c2      	uxtb	r2, r0
 8000696:	2364      	movs	r3, #100	; 0x64
 8000698:	a901      	add	r1, sp, #4
 800069a:	0030      	movs	r0, r6
 800069c:	f002 f8d6 	bl	800284c <HAL_UART_Transmit>
		memset(buffer, '\0', 50);
 80006a0:	0022      	movs	r2, r4
 80006a2:	2100      	movs	r1, #0
 80006a4:	a801      	add	r0, sp, #4
 80006a6:	f003 feb8 	bl	800441a <memset>
		if (HAL_UART_Receive(&huart3, (uint8_t*)buffer, 50, 1000) == HAL_TIMEOUT) {
 80006aa:	a901      	add	r1, sp, #4
 80006ac:	0030      	movs	r0, r6
 80006ae:	002b      	movs	r3, r5
 80006b0:	0022      	movs	r2, r4
 80006b2:	f002 f931 	bl	8002918 <HAL_UART_Receive>
			i = 0;
		}

		CDC_Transmit_FS((uint8_t*)buffer, 50);
 80006b6:	0021      	movs	r1, r4
		if (HAL_UART_Receive(&huart3, (uint8_t*)buffer, 50, 1000) == HAL_TIMEOUT) {
 80006b8:	0006      	movs	r6, r0
		CDC_Transmit_FS((uint8_t*)buffer, 50);
 80006ba:	a801      	add	r0, sp, #4
 80006bc:	f003 fc62 	bl	8003f84 <CDC_Transmit_FS>
	while(i) {
 80006c0:	2e03      	cmp	r6, #3
 80006c2:	d1e1      	bne.n	8000688 <lora_module_join_otaa+0x14>
	}

}
 80006c4:	b00e      	add	sp, #56	; 0x38
 80006c6:	bd70      	pop	{r4, r5, r6, pc}
 80006c8:	08004dc9 	.word	0x08004dc9
 80006cc:	08004de4 	.word	0x08004de4
 80006d0:	20001210 	.word	0x20001210

080006d4 <SystemClock_Config>:
/**
  * @brief System Clock Configuration
  * @retval None
  */
void SystemClock_Config(void)
{
 80006d4:	b530      	push	{r4, r5, lr}
  RCC_OscInitTypeDef RCC_OscInitStruct = {0};
  RCC_ClkInitTypeDef RCC_ClkInitStruct = {0};
 80006d6:	2410      	movs	r4, #16
{
 80006d8:	b097      	sub	sp, #92	; 0x5c
  RCC_OscInitTypeDef RCC_OscInitStruct = {0};
 80006da:	2230      	movs	r2, #48	; 0x30
 80006dc:	2100      	movs	r1, #0
 80006de:	a80a      	add	r0, sp, #40	; 0x28
 80006e0:	f003 fe9b 	bl	800441a <memset>
  RCC_ClkInitTypeDef RCC_ClkInitStruct = {0};
 80006e4:	0022      	movs	r2, r4
 80006e6:	2100      	movs	r1, #0
 80006e8:	a801      	add	r0, sp, #4
 80006ea:	f003 fe96 	bl	800441a <memset>
  RCC_PeriphCLKInitTypeDef PeriphClkInit = {0};
 80006ee:	2214      	movs	r2, #20
 80006f0:	2100      	movs	r1, #0
 80006f2:	a805      	add	r0, sp, #20
 80006f4:	f003 fe91 	bl	800441a <memset>

  /** Initializes the CPU, AHB and APB busses clocks 
  */
  RCC_OscInitStruct.OscillatorType = RCC_OSCILLATORTYPE_HSI|RCC_OSCILLATORTYPE_HSE;
 80006f8:	2303      	movs	r3, #3
 80006fa:	930a      	str	r3, [sp, #40]	; 0x28
  RCC_OscInitStruct.HSEState = RCC_HSE_ON;
  RCC_OscInitStruct.HSIState = RCC_HSI_ON;
  RCC_OscInitStruct.HSICalibrationValue = RCC_HSICALIBRATION_DEFAULT;
  RCC_OscInitStruct.PLL.PLLState = RCC_PLL_ON;
  RCC_OscInitStruct.PLL.PLLSource = RCC_PLLSOURCE_HSE;
 80006fc:	2380      	movs	r3, #128	; 0x80
 80006fe:	025b      	lsls	r3, r3, #9
 8000700:	9313      	str	r3, [sp, #76]	; 0x4c
  RCC_OscInitStruct.PLL.PLLMUL = RCC_PLL_MUL6;
 8000702:	2380      	movs	r3, #128	; 0x80
  RCC_OscInitStruct.HSEState = RCC_HSE_ON;
 8000704:	2501      	movs	r5, #1
  RCC_OscInitStruct.HSICalibrationValue = RCC_HSICALIBRATION_DEFAULT;
 8000706:	940e      	str	r4, [sp, #56]	; 0x38
  RCC_OscInitStruct.PLL.PLLMUL = RCC_PLL_MUL6;
 8000708:	035b      	lsls	r3, r3, #13
  RCC_OscInitStruct.PLL.PLLState = RCC_PLL_ON;
 800070a:	3c0e      	subs	r4, #14
  RCC_OscInitStruct.PLL.PREDIV = RCC_PREDIV_DIV1;
  if (HAL_RCC_OscConfig(&RCC_OscInitStruct) != HAL_OK)
 800070c:	a80a      	add	r0, sp, #40	; 0x28
  RCC_OscInitStruct.PLL.PLLState = RCC_PLL_ON;
 800070e:	9412      	str	r4, [sp, #72]	; 0x48
  RCC_OscInitStruct.PLL.PLLMUL = RCC_PLL_MUL6;
 8000710:	9314      	str	r3, [sp, #80]	; 0x50
  RCC_OscInitStruct.HSEState = RCC_HSE_ON;
 8000712:	950b      	str	r5, [sp, #44]	; 0x2c
  RCC_OscInitStruct.HSIState = RCC_HSI_ON;
 8000714:	950d      	str	r5, [sp, #52]	; 0x34
  if (HAL_RCC_OscConfig(&RCC_OscInitStruct) != HAL_OK)
 8000716:	f001 fa81 	bl	8001c1c <HAL_RCC_OscConfig>
  {
    Error_Handler();
  }
  /** Initializes the CPU, AHB and APB busses clocks 
  */
  RCC_ClkInitStruct.ClockType = RCC_CLOCKTYPE_HCLK|RCC_CLOCKTYPE_SYSCLK
 800071a:	2307      	movs	r3, #7
                              |RCC_CLOCKTYPE_PCLK1;
  RCC_ClkInitStruct.SYSCLKSource = RCC_SYSCLKSOURCE_PLLCLK;
 800071c:	9402      	str	r4, [sp, #8]
  RCC_ClkInitStruct.AHBCLKDivider = RCC_SYSCLK_DIV1;
 800071e:	2400      	movs	r4, #0
  RCC_ClkInitStruct.APB1CLKDivider = RCC_HCLK_DIV1;

  if (HAL_RCC_ClockConfig(&RCC_ClkInitStruct, FLASH_LATENCY_1) != HAL_OK)
 8000720:	0029      	movs	r1, r5
 8000722:	a801      	add	r0, sp, #4
  RCC_ClkInitStruct.ClockType = RCC_CLOCKTYPE_HCLK|RCC_CLOCKTYPE_SYSCLK
 8000724:	9301      	str	r3, [sp, #4]
  RCC_ClkInitStruct.AHBCLKDivider = RCC_SYSCLK_DIV1;
 8000726:	9403      	str	r4, [sp, #12]
  RCC_ClkInitStruct.APB1CLKDivider = RCC_HCLK_DIV1;
 8000728:	9404      	str	r4, [sp, #16]
  if (HAL_RCC_ClockConfig(&RCC_ClkInitStruct, FLASH_LATENCY_1) != HAL_OK)
 800072a:	f001 fc8f 	bl	800204c <HAL_RCC_ClockConfig>
  {
    Error_Handler();
  }
  PeriphClkInit.PeriphClockSelection = RCC_PERIPHCLK_USB|RCC_PERIPHCLK_I2C1;
 800072e:	4b05      	ldr	r3, [pc, #20]	; (8000744 <SystemClock_Config+0x70>)
  PeriphClkInit.I2c1ClockSelection = RCC_I2C1CLKSOURCE_HSI;
  PeriphClkInit.UsbClockSelection = RCC_USBCLKSOURCE_PLL;

  if (HAL_RCCEx_PeriphCLKConfig(&PeriphClkInit) != HAL_OK)
 8000730:	a805      	add	r0, sp, #20
  PeriphClkInit.PeriphClockSelection = RCC_PERIPHCLK_USB|RCC_PERIPHCLK_I2C1;
 8000732:	9305      	str	r3, [sp, #20]
  PeriphClkInit.UsbClockSelection = RCC_USBCLKSOURCE_PLL;
 8000734:	2380      	movs	r3, #128	; 0x80
  PeriphClkInit.I2c1ClockSelection = RCC_I2C1CLKSOURCE_HSI;
 8000736:	9408      	str	r4, [sp, #32]
  PeriphClkInit.UsbClockSelection = RCC_USBCLKSOURCE_PLL;
 8000738:	9309      	str	r3, [sp, #36]	; 0x24
  if (HAL_RCCEx_PeriphCLKConfig(&PeriphClkInit) != HAL_OK)
 800073a:	f001 fd49 	bl	80021d0 <HAL_RCCEx_PeriphCLKConfig>
  {
    Error_Handler();
  }
}
 800073e:	b017      	add	sp, #92	; 0x5c
 8000740:	bd30      	pop	{r4, r5, pc}
 8000742:	46c0      	nop			; (mov r8, r8)
 8000744:	00020020 	.word	0x00020020

08000748 <main>:
{
 8000748:	b510      	push	{r4, lr}
  HAL_Init();
 800074a:	f000 f98d 	bl	8000a68 <HAL_Init>
  SystemClock_Config();
 800074e:	f7ff ffc1 	bl	80006d4 <SystemClock_Config>
  MX_GPIO_Init();
 8000752:	f7ff fe21 	bl	8000398 <MX_GPIO_Init>
  MX_I2C1_Init();
 8000756:	f7ff fe77 	bl	8000448 <MX_I2C1_Init>
  MX_USART2_UART_Init();
 800075a:	f000 f8e9 	bl	8000930 <MX_USART2_UART_Init>
  MX_USART3_UART_Init();
 800075e:	f000 f903 	bl	8000968 <MX_USART3_UART_Init>
  uart_rx_flag = 0;
 8000762:	2200      	movs	r2, #0
 8000764:	4b03      	ldr	r3, [pc, #12]	; (8000774 <main+0x2c>)
 8000766:	701a      	strb	r2, [r3, #0]
  MX_FREERTOS_Init();
 8000768:	f7ff fdf2 	bl	8000350 <MX_FREERTOS_Init>
  osKernelStart();
 800076c:	f002 ff0d 	bl	800358a <osKernelStart>
 8000770:	e7fe      	b.n	8000770 <main+0x28>
 8000772:	46c0      	nop			; (mov r8, r8)
 8000774:	20001180 	.word	0x20001180

08000778 <HAL_TIM_PeriodElapsedCallback>:
void HAL_TIM_PeriodElapsedCallback(TIM_HandleTypeDef *htim)
{
  /* USER CODE BEGIN Callback 0 */

  /* USER CODE END Callback 0 */
  if (htim->Instance == TIM1) {
 8000778:	4b03      	ldr	r3, [pc, #12]	; (8000788 <HAL_TIM_PeriodElapsedCallback+0x10>)
 800077a:	6802      	ldr	r2, [r0, #0]
{
 800077c:	b510      	push	{r4, lr}
  if (htim->Instance == TIM1) {
 800077e:	429a      	cmp	r2, r3
 8000780:	d101      	bne.n	8000786 <HAL_TIM_PeriodElapsedCallback+0xe>
    HAL_IncTick();
 8000782:	f000 f981 	bl	8000a88 <HAL_IncTick>
  }
  /* USER CODE BEGIN Callback 1 */

  /* USER CODE END Callback 1 */
}
 8000786:	bd10      	pop	{r4, pc}
 8000788:	40012c00 	.word	0x40012c00

0800078c <HAL_UART_RxCpltCallback>:

void HAL_UART_RxCpltCallback(UART_HandleTypeDef *huart) {
	uart_rx_flag = 1;
 800078c:	2201      	movs	r2, #1
 800078e:	4b01      	ldr	r3, [pc, #4]	; (8000794 <HAL_UART_RxCpltCallback+0x8>)
 8000790:	701a      	strb	r2, [r3, #0]
}
 8000792:	4770      	bx	lr
 8000794:	20001180 	.word	0x20001180

08000798 <Error_Handler>:
{
  /* USER CODE BEGIN Error_Handler_Debug */
  /* User can add his own implementation to report the HAL error return state */

  /* USER CODE END Error_Handler_Debug */
}
 8000798:	4770      	bx	lr
	...

0800079c <HAL_MspInit>:
/* USER CODE END 0 */
/**
  * Initializes the Global MSP.
  */
void HAL_MspInit(void)
{
 800079c:	b507      	push	{r0, r1, r2, lr}
  /* USER CODE BEGIN MspInit 0 */

  /* USER CODE END MspInit 0 */

  __HAL_RCC_SYSCFG_CLK_ENABLE();
 800079e:	2001      	movs	r0, #1
 80007a0:	4b0b      	ldr	r3, [pc, #44]	; (80007d0 <HAL_MspInit+0x34>)
 80007a2:	6999      	ldr	r1, [r3, #24]
 80007a4:	4301      	orrs	r1, r0
 80007a6:	6199      	str	r1, [r3, #24]
  __HAL_RCC_PWR_CLK_ENABLE();
 80007a8:	2180      	movs	r1, #128	; 0x80
  __HAL_RCC_SYSCFG_CLK_ENABLE();
 80007aa:	699a      	ldr	r2, [r3, #24]
  __HAL_RCC_PWR_CLK_ENABLE();
 80007ac:	0549      	lsls	r1, r1, #21
  __HAL_RCC_SYSCFG_CLK_ENABLE();
 80007ae:	4002      	ands	r2, r0
 80007b0:	9200      	str	r2, [sp, #0]
 80007b2:	9a00      	ldr	r2, [sp, #0]
  __HAL_RCC_PWR_CLK_ENABLE();
 80007b4:	69da      	ldr	r2, [r3, #28]

  /* System interrupt init*/
  /* PendSV_IRQn interrupt configuration */
  HAL_NVIC_SetPriority(PendSV_IRQn, 3, 0);
 80007b6:	3803      	subs	r0, #3
  __HAL_RCC_PWR_CLK_ENABLE();
 80007b8:	430a      	orrs	r2, r1
 80007ba:	61da      	str	r2, [r3, #28]
 80007bc:	69db      	ldr	r3, [r3, #28]
  HAL_NVIC_SetPriority(PendSV_IRQn, 3, 0);
 80007be:	2200      	movs	r2, #0
  __HAL_RCC_PWR_CLK_ENABLE();
 80007c0:	400b      	ands	r3, r1
 80007c2:	9301      	str	r3, [sp, #4]
  HAL_NVIC_SetPriority(PendSV_IRQn, 3, 0);
 80007c4:	2103      	movs	r1, #3
  __HAL_RCC_PWR_CLK_ENABLE();
 80007c6:	9b01      	ldr	r3, [sp, #4]
  HAL_NVIC_SetPriority(PendSV_IRQn, 3, 0);
 80007c8:	f000 f96c 	bl	8000aa4 <HAL_NVIC_SetPriority>

  /* USER CODE BEGIN MspInit 1 */

  /* USER CODE END MspInit 1 */
}
 80007cc:	bd07      	pop	{r0, r1, r2, pc}
 80007ce:	46c0      	nop			; (mov r8, r8)
 80007d0:	40021000 	.word	0x40021000

080007d4 <HAL_InitTick>:
  *         reset by HAL_Init() or at any time when clock is configured, by HAL_RCC_ClockConfig(). 
  * @param  TickPriority: Tick interrupt priority.
  * @retval HAL status
  */
HAL_StatusTypeDef HAL_InitTick(uint32_t TickPriority)
{
 80007d4:	b510      	push	{r4, lr}
 80007d6:	0001      	movs	r1, r0
 80007d8:	b086      	sub	sp, #24
  uint32_t              uwTimclock = 0;
  uint32_t              uwPrescalerValue = 0;
  uint32_t              pFLatency;
  
  /*Configure the TIM1 IRQ priority */
  HAL_NVIC_SetPriority(TIM1_BRK_UP_TRG_COM_IRQn, TickPriority ,0); 
 80007da:	2200      	movs	r2, #0
 80007dc:	200d      	movs	r0, #13
 80007de:	f000 f961 	bl	8000aa4 <HAL_NVIC_SetPriority>
  
  /* Enable the TIM1 global Interrupt */
  HAL_NVIC_EnableIRQ(TIM1_BRK_UP_TRG_COM_IRQn); 
 80007e2:	200d      	movs	r0, #13
 80007e4:	f000 f98e 	bl	8000b04 <HAL_NVIC_EnableIRQ>
  
  /* Enable TIM1 clock */
  __HAL_RCC_TIM1_CLK_ENABLE();
 80007e8:	2080      	movs	r0, #128	; 0x80
 80007ea:	4a14      	ldr	r2, [pc, #80]	; (800083c <HAL_InitTick+0x68>)
 80007ec:	0100      	lsls	r0, r0, #4
 80007ee:	6991      	ldr	r1, [r2, #24]
 80007f0:	4301      	orrs	r1, r0
 80007f2:	6191      	str	r1, [r2, #24]
 80007f4:	6993      	ldr	r3, [r2, #24]
  
  /* Get clock configuration */
  HAL_RCC_GetClockConfig(&clkconfig, &pFLatency);
 80007f6:	4669      	mov	r1, sp
  __HAL_RCC_TIM1_CLK_ENABLE();
 80007f8:	4003      	ands	r3, r0
 80007fa:	9301      	str	r3, [sp, #4]
  HAL_RCC_GetClockConfig(&clkconfig, &pFLatency);
 80007fc:	a802      	add	r0, sp, #8
  __HAL_RCC_TIM1_CLK_ENABLE();
 80007fe:	9b01      	ldr	r3, [sp, #4]
  HAL_RCC_GetClockConfig(&clkconfig, &pFLatency);
 8000800:	f001 fcca 	bl	8002198 <HAL_RCC_GetClockConfig>
  
  /* Compute TIM1 clock */
  uwTimclock = HAL_RCC_GetPCLK1Freq();
 8000804:	f001 fcb8 	bl	8002178 <HAL_RCC_GetPCLK1Freq>
   
  /* Compute the prescaler value to have TIM1 counter clock equal to 1MHz */
  uwPrescalerValue = (uint32_t) ((uwTimclock / 1000000) - 1);
  
  /* Initialize TIM1 */
  htim1.Instance = TIM1;
 8000808:	4c0d      	ldr	r4, [pc, #52]	; (8000840 <HAL_InitTick+0x6c>)
 800080a:	4b0e      	ldr	r3, [pc, #56]	; (8000844 <HAL_InitTick+0x70>)
  uwPrescalerValue = (uint32_t) ((uwTimclock / 1000000) - 1);
 800080c:	490e      	ldr	r1, [pc, #56]	; (8000848 <HAL_InitTick+0x74>)
  htim1.Instance = TIM1;
 800080e:	6023      	str	r3, [r4, #0]
  + Period = [(TIM1CLK/1000) - 1]. to have a (1/1000) s time base.
  + Prescaler = (uwTimclock/1000000 - 1) to have a 1MHz counter clock.
  + ClockDivision = 0
  + Counter direction = Up
  */
  htim1.Init.Period = (1000000 / 1000) - 1;
 8000810:	4b0e      	ldr	r3, [pc, #56]	; (800084c <HAL_InitTick+0x78>)
 8000812:	60e3      	str	r3, [r4, #12]
  uwPrescalerValue = (uint32_t) ((uwTimclock / 1000000) - 1);
 8000814:	f7ff fc8c 	bl	8000130 <__udivsi3>
  htim1.Init.Prescaler = uwPrescalerValue;
  htim1.Init.ClockDivision = 0;
 8000818:	2300      	movs	r3, #0
  uwPrescalerValue = (uint32_t) ((uwTimclock / 1000000) - 1);
 800081a:	3801      	subs	r0, #1
  htim1.Init.Prescaler = uwPrescalerValue;
 800081c:	6060      	str	r0, [r4, #4]
  htim1.Init.CounterMode = TIM_COUNTERMODE_UP;
  if(HAL_TIM_Base_Init(&htim1) == HAL_OK)
 800081e:	0020      	movs	r0, r4
  htim1.Init.ClockDivision = 0;
 8000820:	6123      	str	r3, [r4, #16]
  htim1.Init.CounterMode = TIM_COUNTERMODE_UP;
 8000822:	60a3      	str	r3, [r4, #8]
  if(HAL_TIM_Base_Init(&htim1) == HAL_OK)
 8000824:	f001 fe5c 	bl	80024e0 <HAL_TIM_Base_Init>
 8000828:	0003      	movs	r3, r0
    /* Start the TIM time Base generation in interrupt mode */
    return HAL_TIM_Base_Start_IT(&htim1);
  }
  
  /* Return function status */
  return HAL_ERROR;
 800082a:	2001      	movs	r0, #1
  if(HAL_TIM_Base_Init(&htim1) == HAL_OK)
 800082c:	2b00      	cmp	r3, #0
 800082e:	d102      	bne.n	8000836 <HAL_InitTick+0x62>
    return HAL_TIM_Base_Start_IT(&htim1);
 8000830:	0020      	movs	r0, r4
 8000832:	f001 fd5a 	bl	80022ea <HAL_TIM_Base_Start_IT>
}
 8000836:	b006      	add	sp, #24
 8000838:	bd10      	pop	{r4, pc}
 800083a:	46c0      	nop			; (mov r8, r8)
 800083c:	40021000 	.word	0x40021000
 8000840:	200011d0 	.word	0x200011d0
 8000844:	40012c00 	.word	0x40012c00
 8000848:	000f4240 	.word	0x000f4240
 800084c:	000003e7 	.word	0x000003e7

08000850 <NMI_Handler>:

  /* USER CODE END NonMaskableInt_IRQn 0 */
  /* USER CODE BEGIN NonMaskableInt_IRQn 1 */

  /* USER CODE END NonMaskableInt_IRQn 1 */
}
 8000850:	4770      	bx	lr

08000852 <HardFault_Handler>:

/**
  * @brief This function handles Hard fault interrupt.
  */
void HardFault_Handler(void)
{
 8000852:	e7fe      	b.n	8000852 <HardFault_Handler>

08000854 <TIM1_BRK_UP_TRG_COM_IRQHandler>:

/**
  * @brief This function handles TIM1 break, update, trigger and commutation interrupts.
  */
void TIM1_BRK_UP_TRG_COM_IRQHandler(void)
{
 8000854:	b510      	push	{r4, lr}
  /* USER CODE BEGIN TIM1_BRK_UP_TRG_COM_IRQn 0 */

  /* USER CODE END TIM1_BRK_UP_TRG_COM_IRQn 0 */
  HAL_TIM_IRQHandler(&htim1);
 8000856:	4802      	ldr	r0, [pc, #8]	; (8000860 <TIM1_BRK_UP_TRG_COM_IRQHandler+0xc>)
 8000858:	f001 fd55 	bl	8002306 <HAL_TIM_IRQHandler>
  /* USER CODE BEGIN TIM1_BRK_UP_TRG_COM_IRQn 1 */

  /* USER CODE END TIM1_BRK_UP_TRG_COM_IRQn 1 */
}
 800085c:	bd10      	pop	{r4, pc}
 800085e:	46c0      	nop			; (mov r8, r8)
 8000860:	200011d0 	.word	0x200011d0

08000864 <USART2_IRQHandler>:

/**
  * @brief This function handles USART2 global interrupt.
  */
void USART2_IRQHandler(void)
{
 8000864:	b510      	push	{r4, lr}
  /* USER CODE BEGIN USART2_IRQn 0 */

  /* USER CODE END USART2_IRQn 0 */
  HAL_UART_IRQHandler(&huart2);
 8000866:	4802      	ldr	r0, [pc, #8]	; (8000870 <USART2_IRQHandler+0xc>)
 8000868:	f002 f954 	bl	8002b14 <HAL_UART_IRQHandler>
  /* USER CODE BEGIN USART2_IRQn 1 */

  /* USER CODE END USART2_IRQn 1 */
}
 800086c:	bd10      	pop	{r4, pc}
 800086e:	46c0      	nop			; (mov r8, r8)
 8000870:	20001280 	.word	0x20001280

08000874 <USART3_4_IRQHandler>:

/**
  * @brief This function handles USART3 and USART4 global interrupts.
  */
void USART3_4_IRQHandler(void)
{
 8000874:	b510      	push	{r4, lr}
  /* USER CODE BEGIN USART3_4_IRQn 0 */

  /* USER CODE END USART3_4_IRQn 0 */
  HAL_UART_IRQHandler(&huart3);
 8000876:	4802      	ldr	r0, [pc, #8]	; (8000880 <USART3_4_IRQHandler+0xc>)
 8000878:	f002 f94c 	bl	8002b14 <HAL_UART_IRQHandler>
  /* USER CODE BEGIN USART3_4_IRQn 1 */

  /* USER CODE END USART3_4_IRQn 1 */
}
 800087c:	bd10      	pop	{r4, pc}
 800087e:	46c0      	nop			; (mov r8, r8)
 8000880:	20001210 	.word	0x20001210

08000884 <USB_IRQHandler>:

/**
  * @brief This function handles USB global interrupt / USB wake-up interrupt through EXTI line 18.
  */
void USB_IRQHandler(void)
{
 8000884:	b510      	push	{r4, lr}
  /* USER CODE BEGIN USB_IRQn 0 */

  /* USER CODE END USB_IRQn 0 */
  HAL_PCD_IRQHandler(&hpcd_USB_FS);
 8000886:	4802      	ldr	r0, [pc, #8]	; (8000890 <USB_IRQHandler+0xc>)
 8000888:	f000 ff74 	bl	8001774 <HAL_PCD_IRQHandler>
  /* USER CODE BEGIN USB_IRQn 1 */

  /* USER CODE END USB_IRQn 1 */
}
 800088c:	bd10      	pop	{r4, pc}
 800088e:	46c0      	nop			; (mov r8, r8)
 8000890:	20001ee8 	.word	0x20001ee8

08000894 <_sbrk>:
{
	extern char end asm("end");
	static char *heap_end;
	char *prev_heap_end;

	if (heap_end == 0)
 8000894:	4b0a      	ldr	r3, [pc, #40]	; (80008c0 <_sbrk+0x2c>)
{
 8000896:	b510      	push	{r4, lr}
	if (heap_end == 0)
 8000898:	6819      	ldr	r1, [r3, #0]
{
 800089a:	0002      	movs	r2, r0
	if (heap_end == 0)
 800089c:	2900      	cmp	r1, #0
 800089e:	d101      	bne.n	80008a4 <_sbrk+0x10>
		heap_end = &end;
 80008a0:	4908      	ldr	r1, [pc, #32]	; (80008c4 <_sbrk+0x30>)
 80008a2:	6019      	str	r1, [r3, #0]

	prev_heap_end = heap_end;
	if (heap_end + incr > stack_ptr)
 80008a4:	4669      	mov	r1, sp
	prev_heap_end = heap_end;
 80008a6:	6818      	ldr	r0, [r3, #0]
	if (heap_end + incr > stack_ptr)
 80008a8:	1882      	adds	r2, r0, r2
 80008aa:	428a      	cmp	r2, r1
 80008ac:	d906      	bls.n	80008bc <_sbrk+0x28>
	{
//		write(1, "Heap and stack collision\n", 25);
//		abort();
		errno = ENOMEM;
 80008ae:	f003 fd81 	bl	80043b4 <__errno>
 80008b2:	230c      	movs	r3, #12
 80008b4:	6003      	str	r3, [r0, #0]
		return (caddr_t) -1;
 80008b6:	2001      	movs	r0, #1
 80008b8:	4240      	negs	r0, r0
	}

	heap_end += incr;

	return (caddr_t) prev_heap_end;
}
 80008ba:	bd10      	pop	{r4, pc}
	heap_end += incr;
 80008bc:	601a      	str	r2, [r3, #0]
	return (caddr_t) prev_heap_end;
 80008be:	e7fc      	b.n	80008ba <_sbrk+0x26>
 80008c0:	20000204 	.word	0x20000204
 80008c4:	2000210c 	.word	0x2000210c

080008c8 <SystemInit>:
  */
void SystemInit(void)
{
  /* Reset the RCC clock configuration to the default reset state ------------*/
  /* Set HSION bit */
  RCC->CR |= (uint32_t)0x00000001U;
 80008c8:	2101      	movs	r1, #1
 80008ca:	4b13      	ldr	r3, [pc, #76]	; (8000918 <SystemInit+0x50>)
#if defined (STM32F051x8) || defined (STM32F058x8)
  /* Reset SW[1:0], HPRE[3:0], PPRE[2:0], ADCPRE and MCOSEL[2:0] bits */
  RCC->CFGR &= (uint32_t)0xF8FFB80CU;
#else
  /* Reset SW[1:0], HPRE[3:0], PPRE[2:0], ADCPRE, MCOSEL[2:0], MCOPRE[2:0] and PLLNODIV bits */
  RCC->CFGR &= (uint32_t)0x08FFB80CU;
 80008cc:	4813      	ldr	r0, [pc, #76]	; (800091c <SystemInit+0x54>)
  RCC->CR |= (uint32_t)0x00000001U;
 80008ce:	681a      	ldr	r2, [r3, #0]
 80008d0:	430a      	orrs	r2, r1
 80008d2:	601a      	str	r2, [r3, #0]
  RCC->CFGR &= (uint32_t)0x08FFB80CU;
 80008d4:	685a      	ldr	r2, [r3, #4]
 80008d6:	4002      	ands	r2, r0
 80008d8:	605a      	str	r2, [r3, #4]
#endif /* STM32F051x8 or STM32F058x8 */
  
  /* Reset HSEON, CSSON and PLLON bits */
  RCC->CR &= (uint32_t)0xFEF6FFFFU;
 80008da:	681a      	ldr	r2, [r3, #0]
 80008dc:	4810      	ldr	r0, [pc, #64]	; (8000920 <SystemInit+0x58>)
 80008de:	4002      	ands	r2, r0
 80008e0:	601a      	str	r2, [r3, #0]

  /* Reset HSEBYP bit */
  RCC->CR &= (uint32_t)0xFFFBFFFFU;
 80008e2:	681a      	ldr	r2, [r3, #0]
 80008e4:	480f      	ldr	r0, [pc, #60]	; (8000924 <SystemInit+0x5c>)
 80008e6:	4002      	ands	r2, r0
 80008e8:	601a      	str	r2, [r3, #0]

  /* Reset PLLSRC, PLLXTPRE and PLLMUL[3:0] bits */
  RCC->CFGR &= (uint32_t)0xFFC0FFFFU;
 80008ea:	685a      	ldr	r2, [r3, #4]
 80008ec:	480e      	ldr	r0, [pc, #56]	; (8000928 <SystemInit+0x60>)
 80008ee:	4002      	ands	r2, r0

  /* Reset PREDIV[3:0] bits */
  RCC->CFGR2 &= (uint32_t)0xFFFFFFF0U;
 80008f0:	200f      	movs	r0, #15
  RCC->CFGR &= (uint32_t)0xFFC0FFFFU;
 80008f2:	605a      	str	r2, [r3, #4]
  RCC->CFGR2 &= (uint32_t)0xFFFFFFF0U;
 80008f4:	6ada      	ldr	r2, [r3, #44]	; 0x2c
 80008f6:	4382      	bics	r2, r0
 80008f8:	62da      	str	r2, [r3, #44]	; 0x2c
#elif defined (STM32F042x6) || defined (STM32F048xx)
  /* Reset USART1SW[1:0], I2C1SW, CECSW, USBSW and ADCSW bits */
  RCC->CFGR3 &= (uint32_t)0xFFFFFE2CU;
#elif defined (STM32F070x6) || defined (STM32F070xB)
  /* Reset USART1SW[1:0], I2C1SW, USBSW and ADCSW bits */
  RCC->CFGR3 &= (uint32_t)0xFFFFFE6CU;
 80008fa:	6b1a      	ldr	r2, [r3, #48]	; 0x30
 80008fc:	480b      	ldr	r0, [pc, #44]	; (800092c <SystemInit+0x64>)
 80008fe:	4002      	ands	r2, r0
 8000900:	631a      	str	r2, [r3, #48]	; 0x30
  /* Set default USB clock to PLLCLK, since there is no HSI48 */
  RCC->CFGR3 |= (uint32_t)0x00000080U;  
 8000902:	2280      	movs	r2, #128	; 0x80
 8000904:	6b18      	ldr	r0, [r3, #48]	; 0x30
 8000906:	4302      	orrs	r2, r0
 8000908:	631a      	str	r2, [r3, #48]	; 0x30
#else
 #warning "No target selected"
#endif

  /* Reset HSI14 bit */
  RCC->CR2 &= (uint32_t)0xFFFFFFFEU;
 800090a:	6b5a      	ldr	r2, [r3, #52]	; 0x34
 800090c:	438a      	bics	r2, r1
 800090e:	635a      	str	r2, [r3, #52]	; 0x34

  /* Disable all interrupts */
  RCC->CIR = 0x00000000U;
 8000910:	2200      	movs	r2, #0
 8000912:	609a      	str	r2, [r3, #8]

}
 8000914:	4770      	bx	lr
 8000916:	46c0      	nop			; (mov r8, r8)
 8000918:	40021000 	.word	0x40021000
 800091c:	08ffb80c 	.word	0x08ffb80c
 8000920:	fef6ffff 	.word	0xfef6ffff
 8000924:	fffbffff 	.word	0xfffbffff
 8000928:	ffc0ffff 	.word	0xffc0ffff
 800092c:	fffffe6c 	.word	0xfffffe6c

08000930 <MX_USART2_UART_Init>:
/* USART2 init function */

void MX_USART2_UART_Init(void)
{

  huart2.Instance = USART2;
 8000930:	480b      	ldr	r0, [pc, #44]	; (8000960 <MX_USART2_UART_Init+0x30>)
 8000932:	4b0c      	ldr	r3, [pc, #48]	; (8000964 <MX_USART2_UART_Init+0x34>)
{
 8000934:	b510      	push	{r4, lr}
  huart2.Instance = USART2;
 8000936:	6003      	str	r3, [r0, #0]
  huart2.Init.BaudRate = 38400;
 8000938:	2396      	movs	r3, #150	; 0x96
 800093a:	021b      	lsls	r3, r3, #8
 800093c:	6043      	str	r3, [r0, #4]
  huart2.Init.WordLength = UART_WORDLENGTH_8B;
  huart2.Init.StopBits = UART_STOPBITS_1;
  huart2.Init.Parity = UART_PARITY_NONE;
  huart2.Init.Mode = UART_MODE_TX_RX;
 800093e:	220c      	movs	r2, #12
  huart2.Init.WordLength = UART_WORDLENGTH_8B;
 8000940:	2300      	movs	r3, #0
  huart2.Init.Mode = UART_MODE_TX_RX;
 8000942:	6142      	str	r2, [r0, #20]
  huart2.Init.WordLength = UART_WORDLENGTH_8B;
 8000944:	6083      	str	r3, [r0, #8]
  huart2.Init.StopBits = UART_STOPBITS_1;
 8000946:	60c3      	str	r3, [r0, #12]
  huart2.Init.Parity = UART_PARITY_NONE;
 8000948:	6103      	str	r3, [r0, #16]
  huart2.Init.HwFlowCtl = UART_HWCONTROL_NONE;
 800094a:	6183      	str	r3, [r0, #24]
  huart2.Init.OverSampling = UART_OVERSAMPLING_16;
 800094c:	61c3      	str	r3, [r0, #28]
  huart2.Init.OneBitSampling = UART_ONE_BIT_SAMPLE_DISABLE;
 800094e:	6203      	str	r3, [r0, #32]
  huart2.AdvancedInit.AdvFeatureInit = UART_ADVFEATURE_NO_INIT;
 8000950:	6243      	str	r3, [r0, #36]	; 0x24
  if (HAL_UART_Init(&huart2) != HAL_OK)
 8000952:	f001 ff0d 	bl	8002770 <HAL_UART_Init>
 8000956:	2800      	cmp	r0, #0
 8000958:	d001      	beq.n	800095e <MX_USART2_UART_Init+0x2e>
  {
    Error_Handler();
 800095a:	f7ff ff1d 	bl	8000798 <Error_Handler>
  }

}
 800095e:	bd10      	pop	{r4, pc}
 8000960:	20001280 	.word	0x20001280
 8000964:	40004400 	.word	0x40004400

08000968 <MX_USART3_UART_Init>:
/* USART3 init function */

void MX_USART3_UART_Init(void)
{

  huart3.Instance = USART3;
 8000968:	480b      	ldr	r0, [pc, #44]	; (8000998 <MX_USART3_UART_Init+0x30>)
 800096a:	4b0c      	ldr	r3, [pc, #48]	; (800099c <MX_USART3_UART_Init+0x34>)
{
 800096c:	b510      	push	{r4, lr}
  huart3.Instance = USART3;
 800096e:	6003      	str	r3, [r0, #0]
  huart3.Init.BaudRate = 57600;
 8000970:	23e1      	movs	r3, #225	; 0xe1
 8000972:	021b      	lsls	r3, r3, #8
 8000974:	6043      	str	r3, [r0, #4]
  huart3.Init.WordLength = UART_WORDLENGTH_8B;
  huart3.Init.StopBits = UART_STOPBITS_1;
  huart3.Init.Parity = UART_PARITY_NONE;
  huart3.Init.Mode = UART_MODE_TX_RX;
 8000976:	220c      	movs	r2, #12
  huart3.Init.WordLength = UART_WORDLENGTH_8B;
 8000978:	2300      	movs	r3, #0
  huart3.Init.Mode = UART_MODE_TX_RX;
 800097a:	6142      	str	r2, [r0, #20]
  huart3.Init.WordLength = UART_WORDLENGTH_8B;
 800097c:	6083      	str	r3, [r0, #8]
  huart3.Init.StopBits = UART_STOPBITS_1;
 800097e:	60c3      	str	r3, [r0, #12]
  huart3.Init.Parity = UART_PARITY_NONE;
 8000980:	6103      	str	r3, [r0, #16]
  huart3.Init.HwFlowCtl = UART_HWCONTROL_NONE;
 8000982:	6183      	str	r3, [r0, #24]
  huart3.Init.OverSampling = UART_OVERSAMPLING_16;
 8000984:	61c3      	str	r3, [r0, #28]
  huart3.Init.OneBitSampling = UART_ONE_BIT_SAMPLE_DISABLE;
 8000986:	6203      	str	r3, [r0, #32]
  huart3.AdvancedInit.AdvFeatureInit = UART_ADVFEATURE_NO_INIT;
 8000988:	6243      	str	r3, [r0, #36]	; 0x24
  if (HAL_UART_Init(&huart3) != HAL_OK)
 800098a:	f001 fef1 	bl	8002770 <HAL_UART_Init>
 800098e:	2800      	cmp	r0, #0
 8000990:	d001      	beq.n	8000996 <MX_USART3_UART_Init+0x2e>
  {
    Error_Handler();
 8000992:	f7ff ff01 	bl	8000798 <Error_Handler>
  }

}
 8000996:	bd10      	pop	{r4, pc}
 8000998:	20001210 	.word	0x20001210
 800099c:	40004800 	.word	0x40004800

080009a0 <HAL_UART_MspInit>:

void HAL_UART_MspInit(UART_HandleTypeDef* uartHandle)
{
 80009a0:	b510      	push	{r4, lr}
 80009a2:	0004      	movs	r4, r0
 80009a4:	b08a      	sub	sp, #40	; 0x28

  GPIO_InitTypeDef GPIO_InitStruct = {0};
 80009a6:	2214      	movs	r2, #20
 80009a8:	2100      	movs	r1, #0
 80009aa:	a805      	add	r0, sp, #20
 80009ac:	f003 fd35 	bl	800441a <memset>
  if(uartHandle->Instance==USART2)
 80009b0:	6823      	ldr	r3, [r4, #0]
 80009b2:	4a29      	ldr	r2, [pc, #164]	; (8000a58 <HAL_UART_MspInit+0xb8>)
 80009b4:	4293      	cmp	r3, r2
 80009b6:	d127      	bne.n	8000a08 <HAL_UART_MspInit+0x68>
  {
  /* USER CODE BEGIN USART2_MspInit 0 */

  /* USER CODE END USART2_MspInit 0 */
    /* USART2 clock enable */
    __HAL_RCC_USART2_CLK_ENABLE();
 80009b8:	2280      	movs	r2, #128	; 0x80
 80009ba:	4b28      	ldr	r3, [pc, #160]	; (8000a5c <HAL_UART_MspInit+0xbc>)
 80009bc:	0292      	lsls	r2, r2, #10
 80009be:	69d9      	ldr	r1, [r3, #28]
    GPIO_InitStruct.Pin = GPIO_PIN_2|GPIO_PIN_3;
    GPIO_InitStruct.Mode = GPIO_MODE_AF_PP;
    GPIO_InitStruct.Pull = GPIO_NOPULL;
    GPIO_InitStruct.Speed = GPIO_SPEED_FREQ_HIGH;
    GPIO_InitStruct.Alternate = GPIO_AF1_USART2;
    HAL_GPIO_Init(GPIOA, &GPIO_InitStruct);
 80009c0:	2090      	movs	r0, #144	; 0x90
    __HAL_RCC_USART2_CLK_ENABLE();
 80009c2:	4311      	orrs	r1, r2
 80009c4:	61d9      	str	r1, [r3, #28]
 80009c6:	69d9      	ldr	r1, [r3, #28]
    GPIO_InitStruct.Speed = GPIO_SPEED_FREQ_HIGH;
 80009c8:	2403      	movs	r4, #3
    __HAL_RCC_USART2_CLK_ENABLE();
 80009ca:	4011      	ands	r1, r2
 80009cc:	9101      	str	r1, [sp, #4]
 80009ce:	9901      	ldr	r1, [sp, #4]
    __HAL_RCC_GPIOA_CLK_ENABLE();
 80009d0:	6959      	ldr	r1, [r3, #20]
    HAL_GPIO_Init(GPIOA, &GPIO_InitStruct);
 80009d2:	05c0      	lsls	r0, r0, #23
    __HAL_RCC_GPIOA_CLK_ENABLE();
 80009d4:	4311      	orrs	r1, r2
 80009d6:	6159      	str	r1, [r3, #20]
 80009d8:	695b      	ldr	r3, [r3, #20]
    HAL_GPIO_Init(GPIOA, &GPIO_InitStruct);
 80009da:	a905      	add	r1, sp, #20
    __HAL_RCC_GPIOA_CLK_ENABLE();
 80009dc:	401a      	ands	r2, r3
 80009de:	9202      	str	r2, [sp, #8]
 80009e0:	9b02      	ldr	r3, [sp, #8]
    GPIO_InitStruct.Pin = GPIO_PIN_2|GPIO_PIN_3;
 80009e2:	230c      	movs	r3, #12
 80009e4:	9305      	str	r3, [sp, #20]
    GPIO_InitStruct.Mode = GPIO_MODE_AF_PP;
 80009e6:	3b0a      	subs	r3, #10
 80009e8:	9306      	str	r3, [sp, #24]
    GPIO_InitStruct.Alternate = GPIO_AF1_USART2;
 80009ea:	3b01      	subs	r3, #1
 80009ec:	9309      	str	r3, [sp, #36]	; 0x24
    GPIO_InitStruct.Speed = GPIO_SPEED_FREQ_HIGH;
 80009ee:	9408      	str	r4, [sp, #32]
    HAL_GPIO_Init(GPIOA, &GPIO_InitStruct);
 80009f0:	f000 f8b6 	bl	8000b60 <HAL_GPIO_Init>

    /* USART2 interrupt Init */
    HAL_NVIC_SetPriority(USART2_IRQn, 3, 0);
 80009f4:	201c      	movs	r0, #28
 80009f6:	2200      	movs	r2, #0
 80009f8:	0021      	movs	r1, r4
 80009fa:	f000 f853 	bl	8000aa4 <HAL_NVIC_SetPriority>
    HAL_NVIC_EnableIRQ(USART2_IRQn);
 80009fe:	201c      	movs	r0, #28
    GPIO_InitStruct.Alternate = GPIO_AF4_USART3;
    HAL_GPIO_Init(GPIOB, &GPIO_InitStruct);

    /* USART3 interrupt Init */
    HAL_NVIC_SetPriority(USART3_4_IRQn, 3, 0);
    HAL_NVIC_EnableIRQ(USART3_4_IRQn);
 8000a00:	f000 f880 	bl	8000b04 <HAL_NVIC_EnableIRQ>
  /* USER CODE BEGIN USART3_MspInit 1 */

  /* USER CODE END USART3_MspInit 1 */
  }
}
 8000a04:	b00a      	add	sp, #40	; 0x28
 8000a06:	bd10      	pop	{r4, pc}
  else if(uartHandle->Instance==USART3)
 8000a08:	4a15      	ldr	r2, [pc, #84]	; (8000a60 <HAL_UART_MspInit+0xc0>)
 8000a0a:	4293      	cmp	r3, r2
 8000a0c:	d1fa      	bne.n	8000a04 <HAL_UART_MspInit+0x64>
    __HAL_RCC_USART3_CLK_ENABLE();
 8000a0e:	2280      	movs	r2, #128	; 0x80
 8000a10:	4b12      	ldr	r3, [pc, #72]	; (8000a5c <HAL_UART_MspInit+0xbc>)
 8000a12:	02d2      	lsls	r2, r2, #11
 8000a14:	69d9      	ldr	r1, [r3, #28]
    GPIO_InitStruct.Speed = GPIO_SPEED_FREQ_HIGH;
 8000a16:	2403      	movs	r4, #3
    __HAL_RCC_USART3_CLK_ENABLE();
 8000a18:	4311      	orrs	r1, r2
 8000a1a:	61d9      	str	r1, [r3, #28]
 8000a1c:	69d9      	ldr	r1, [r3, #28]
    HAL_GPIO_Init(GPIOB, &GPIO_InitStruct);
 8000a1e:	4811      	ldr	r0, [pc, #68]	; (8000a64 <HAL_UART_MspInit+0xc4>)
    __HAL_RCC_USART3_CLK_ENABLE();
 8000a20:	4011      	ands	r1, r2
 8000a22:	9103      	str	r1, [sp, #12]
 8000a24:	9903      	ldr	r1, [sp, #12]
    __HAL_RCC_GPIOB_CLK_ENABLE();
 8000a26:	6959      	ldr	r1, [r3, #20]
 8000a28:	4311      	orrs	r1, r2
 8000a2a:	6159      	str	r1, [r3, #20]
 8000a2c:	695b      	ldr	r3, [r3, #20]
    HAL_GPIO_Init(GPIOB, &GPIO_InitStruct);
 8000a2e:	a905      	add	r1, sp, #20
    __HAL_RCC_GPIOB_CLK_ENABLE();
 8000a30:	401a      	ands	r2, r3
 8000a32:	9204      	str	r2, [sp, #16]
 8000a34:	9b04      	ldr	r3, [sp, #16]
    GPIO_InitStruct.Pin = GPIO_PIN_10|GPIO_PIN_11;
 8000a36:	23c0      	movs	r3, #192	; 0xc0
 8000a38:	011b      	lsls	r3, r3, #4
 8000a3a:	9305      	str	r3, [sp, #20]
    GPIO_InitStruct.Mode = GPIO_MODE_AF_PP;
 8000a3c:	2302      	movs	r3, #2
 8000a3e:	9306      	str	r3, [sp, #24]
    GPIO_InitStruct.Alternate = GPIO_AF4_USART3;
 8000a40:	18db      	adds	r3, r3, r3
 8000a42:	9309      	str	r3, [sp, #36]	; 0x24
    GPIO_InitStruct.Speed = GPIO_SPEED_FREQ_HIGH;
 8000a44:	9408      	str	r4, [sp, #32]
    HAL_GPIO_Init(GPIOB, &GPIO_InitStruct);
 8000a46:	f000 f88b 	bl	8000b60 <HAL_GPIO_Init>
    HAL_NVIC_SetPriority(USART3_4_IRQn, 3, 0);
 8000a4a:	201d      	movs	r0, #29
 8000a4c:	2200      	movs	r2, #0
 8000a4e:	0021      	movs	r1, r4
 8000a50:	f000 f828 	bl	8000aa4 <HAL_NVIC_SetPriority>
    HAL_NVIC_EnableIRQ(USART3_4_IRQn);
 8000a54:	201d      	movs	r0, #29
 8000a56:	e7d3      	b.n	8000a00 <HAL_UART_MspInit+0x60>
 8000a58:	40004400 	.word	0x40004400
 8000a5c:	40021000 	.word	0x40021000
 8000a60:	40004800 	.word	0x40004800
 8000a64:	48000400 	.word	0x48000400

08000a68 <HAL_Init>:
  */
HAL_StatusTypeDef HAL_Init(void)
{
  /* Configure Flash prefetch */ 
#if (PREFETCH_ENABLE != 0)
  __HAL_FLASH_PREFETCH_BUFFER_ENABLE();
 8000a68:	2310      	movs	r3, #16
 8000a6a:	4a06      	ldr	r2, [pc, #24]	; (8000a84 <HAL_Init+0x1c>)
{
 8000a6c:	b510      	push	{r4, lr}
  __HAL_FLASH_PREFETCH_BUFFER_ENABLE();
 8000a6e:	6811      	ldr	r1, [r2, #0]
#endif /* PREFETCH_ENABLE */

  /* Use systick as time base source and configure 1ms tick (default clock after Reset is HSI) */

  HAL_InitTick(TICK_INT_PRIORITY);
 8000a70:	2000      	movs	r0, #0
  __HAL_FLASH_PREFETCH_BUFFER_ENABLE();
 8000a72:	430b      	orrs	r3, r1
 8000a74:	6013      	str	r3, [r2, #0]
  HAL_InitTick(TICK_INT_PRIORITY);
 8000a76:	f7ff fead 	bl	80007d4 <HAL_InitTick>

  /* Init the low level hardware */
  HAL_MspInit();
 8000a7a:	f7ff fe8f 	bl	800079c <HAL_MspInit>

  /* Return function status */
  return HAL_OK;
}
 8000a7e:	2000      	movs	r0, #0
 8000a80:	bd10      	pop	{r4, pc}
 8000a82:	46c0      	nop			; (mov r8, r8)
 8000a84:	40022000 	.word	0x40022000

08000a88 <HAL_IncTick>:
  *       implementations in user file.
  * @retval None
  */
__weak void HAL_IncTick(void)
{
  uwTick++;
 8000a88:	4a02      	ldr	r2, [pc, #8]	; (8000a94 <HAL_IncTick+0xc>)
 8000a8a:	6813      	ldr	r3, [r2, #0]
 8000a8c:	3301      	adds	r3, #1
 8000a8e:	6013      	str	r3, [r2, #0]
}
 8000a90:	4770      	bx	lr
 8000a92:	46c0      	nop			; (mov r8, r8)
 8000a94:	200012f0 	.word	0x200012f0

08000a98 <HAL_GetTick>:
  *       implementations in user file.
  * @retval tick value
  */
__weak uint32_t HAL_GetTick(void)
{
  return uwTick;
 8000a98:	4b01      	ldr	r3, [pc, #4]	; (8000aa0 <HAL_GetTick+0x8>)
 8000a9a:	6818      	ldr	r0, [r3, #0]
}
 8000a9c:	4770      	bx	lr
 8000a9e:	46c0      	nop			; (mov r8, r8)
 8000aa0:	200012f0 	.word	0x200012f0

08000aa4 <HAL_NVIC_SetPriority>:
  *         with stm32f0xx devices, this parameter is a dummy value and it is ignored, because 
  *         no subpriority supported in Cortex M0 based products.   
  * @retval None
  */
void HAL_NVIC_SetPriority(IRQn_Type IRQn, uint32_t PreemptPriority, uint32_t SubPriority)
{ 
 8000aa4:	b570      	push	{r4, r5, r6, lr}
 8000aa6:	0189      	lsls	r1, r1, #6
  \param [in]      IRQn  Interrupt number.
  \param [in]  priority  Priority to set.
 */
__STATIC_INLINE void NVIC_SetPriority(IRQn_Type IRQn, uint32_t priority)
{
  if ((int32_t)(IRQn) < 0)
 8000aa8:	2800      	cmp	r0, #0
 8000aaa:	da14      	bge.n	8000ad6 <HAL_NVIC_SetPriority+0x32>
  {
    SCB->SHP[_SHP_IDX(IRQn)] = ((uint32_t)(SCB->SHP[_SHP_IDX(IRQn)] & ~(0xFFUL << _BIT_SHIFT(IRQn))) |
 8000aac:	230f      	movs	r3, #15
 8000aae:	b2c0      	uxtb	r0, r0
 8000ab0:	4003      	ands	r3, r0
 8000ab2:	3b08      	subs	r3, #8
 8000ab4:	4a11      	ldr	r2, [pc, #68]	; (8000afc <HAL_NVIC_SetPriority+0x58>)
 8000ab6:	089b      	lsrs	r3, r3, #2
 8000ab8:	009b      	lsls	r3, r3, #2
 8000aba:	189b      	adds	r3, r3, r2
 8000abc:	2203      	movs	r2, #3
 8000abe:	4010      	ands	r0, r2
 8000ac0:	4090      	lsls	r0, r2
 8000ac2:	32fc      	adds	r2, #252	; 0xfc
 8000ac4:	0015      	movs	r5, r2
       (((priority << (8U - __NVIC_PRIO_BITS)) & (uint32_t)0xFFUL) << _BIT_SHIFT(IRQn)));
 8000ac6:	4011      	ands	r1, r2
    SCB->SHP[_SHP_IDX(IRQn)] = ((uint32_t)(SCB->SHP[_SHP_IDX(IRQn)] & ~(0xFFUL << _BIT_SHIFT(IRQn))) |
 8000ac8:	4085      	lsls	r5, r0
       (((priority << (8U - __NVIC_PRIO_BITS)) & (uint32_t)0xFFUL) << _BIT_SHIFT(IRQn)));
 8000aca:	4081      	lsls	r1, r0
    SCB->SHP[_SHP_IDX(IRQn)] = ((uint32_t)(SCB->SHP[_SHP_IDX(IRQn)] & ~(0xFFUL << _BIT_SHIFT(IRQn))) |
 8000acc:	69dc      	ldr	r4, [r3, #28]
 8000ace:	43ac      	bics	r4, r5
 8000ad0:	4321      	orrs	r1, r4
 8000ad2:	61d9      	str	r1, [r3, #28]
  /* Check the parameters */
  assert_param(IS_NVIC_PREEMPTION_PRIORITY(PreemptPriority));
  NVIC_SetPriority(IRQn,PreemptPriority);
}
 8000ad4:	bd70      	pop	{r4, r5, r6, pc}
  }
  else
  {
    NVIC->IP[_IP_IDX(IRQn)]  = ((uint32_t)(NVIC->IP[_IP_IDX(IRQn)]  & ~(0xFFUL << _BIT_SHIFT(IRQn))) |
 8000ad6:	2503      	movs	r5, #3
 8000ad8:	0883      	lsrs	r3, r0, #2
 8000ada:	4028      	ands	r0, r5
 8000adc:	40a8      	lsls	r0, r5
 8000ade:	35fc      	adds	r5, #252	; 0xfc
 8000ae0:	002e      	movs	r6, r5
 8000ae2:	4a07      	ldr	r2, [pc, #28]	; (8000b00 <HAL_NVIC_SetPriority+0x5c>)
 8000ae4:	009b      	lsls	r3, r3, #2
 8000ae6:	189b      	adds	r3, r3, r2
 8000ae8:	22c0      	movs	r2, #192	; 0xc0
 8000aea:	4086      	lsls	r6, r0
       (((priority << (8U - __NVIC_PRIO_BITS)) & (uint32_t)0xFFUL) << _BIT_SHIFT(IRQn)));
 8000aec:	4029      	ands	r1, r5
 8000aee:	4081      	lsls	r1, r0
    NVIC->IP[_IP_IDX(IRQn)]  = ((uint32_t)(NVIC->IP[_IP_IDX(IRQn)]  & ~(0xFFUL << _BIT_SHIFT(IRQn))) |
 8000af0:	0092      	lsls	r2, r2, #2
 8000af2:	589c      	ldr	r4, [r3, r2]
 8000af4:	43b4      	bics	r4, r6
 8000af6:	4321      	orrs	r1, r4
 8000af8:	5099      	str	r1, [r3, r2]
 8000afa:	e7eb      	b.n	8000ad4 <HAL_NVIC_SetPriority+0x30>
 8000afc:	e000ed00 	.word	0xe000ed00
 8000b00:	e000e100 	.word	0xe000e100

08000b04 <HAL_NVIC_EnableIRQ>:
  NVIC->ISER[0U] = (uint32_t)(1UL << (((uint32_t)(int32_t)IRQn) & 0x1FUL));
 8000b04:	231f      	movs	r3, #31
 8000b06:	4018      	ands	r0, r3
 8000b08:	3b1e      	subs	r3, #30
 8000b0a:	4083      	lsls	r3, r0
 8000b0c:	4a01      	ldr	r2, [pc, #4]	; (8000b14 <HAL_NVIC_EnableIRQ+0x10>)
 8000b0e:	6013      	str	r3, [r2, #0]
  /* Check the parameters */
  assert_param(IS_NVIC_DEVICE_IRQ(IRQn));
  
  /* Enable interrupt */
  NVIC_EnableIRQ(IRQn);
}
 8000b10:	4770      	bx	lr
 8000b12:	46c0      	nop			; (mov r8, r8)
 8000b14:	e000e100 	.word	0xe000e100

08000b18 <HAL_DMA_Abort_IT>:
  * @param  hdma  pointer to a DMA_HandleTypeDef structure that contains
  *               the configuration information for the specified DMA Stream.
  * @retval HAL status
  */
HAL_StatusTypeDef HAL_DMA_Abort_IT(DMA_HandleTypeDef *hdma)
{  
 8000b18:	b570      	push	{r4, r5, r6, lr}
  HAL_StatusTypeDef status = HAL_OK;
  
  if(HAL_DMA_STATE_BUSY != hdma->State)
 8000b1a:	1c84      	adds	r4, r0, #2
 8000b1c:	7fe3      	ldrb	r3, [r4, #31]
 8000b1e:	2b02      	cmp	r3, #2
 8000b20:	d004      	beq.n	8000b2c <HAL_DMA_Abort_IT+0x14>
  {
    /* no transfer ongoing */
    hdma->ErrorCode = HAL_DMA_ERROR_NO_XFER;
 8000b22:	2304      	movs	r3, #4
 8000b24:	6383      	str	r3, [r0, #56]	; 0x38
        
    status = HAL_ERROR;
 8000b26:	3b03      	subs	r3, #3
    {
      hdma->XferAbortCallback(hdma);
    } 
  }
  return status;
}
 8000b28:	0018      	movs	r0, r3
 8000b2a:	bd70      	pop	{r4, r5, r6, pc}
    hdma->Instance->CCR &= ~(DMA_IT_TC | DMA_IT_HT | DMA_IT_TE);
 8000b2c:	210e      	movs	r1, #14
 8000b2e:	6803      	ldr	r3, [r0, #0]
    hdma->DmaBaseAddress->IFCR = DMA_FLAG_GL1 << hdma->ChannelIndex;
 8000b30:	6c05      	ldr	r5, [r0, #64]	; 0x40
    hdma->Instance->CCR &= ~(DMA_IT_TC | DMA_IT_HT | DMA_IT_TE);
 8000b32:	681a      	ldr	r2, [r3, #0]
 8000b34:	438a      	bics	r2, r1
 8000b36:	601a      	str	r2, [r3, #0]
    hdma->Instance->CCR &= ~DMA_CCR_EN;
 8000b38:	2201      	movs	r2, #1
 8000b3a:	6819      	ldr	r1, [r3, #0]
 8000b3c:	4391      	bics	r1, r2
 8000b3e:	6019      	str	r1, [r3, #0]
    hdma->DmaBaseAddress->IFCR = DMA_FLAG_GL1 << hdma->ChannelIndex;
 8000b40:	0011      	movs	r1, r2
 8000b42:	40a9      	lsls	r1, r5
 8000b44:	6bc3      	ldr	r3, [r0, #60]	; 0x3c
 8000b46:	6059      	str	r1, [r3, #4]
    hdma->State = HAL_DMA_STATE_READY;
 8000b48:	77e2      	strb	r2, [r4, #31]
    __HAL_UNLOCK(hdma);
 8000b4a:	2400      	movs	r4, #0
 8000b4c:	1883      	adds	r3, r0, r2
    if(hdma->XferAbortCallback != NULL)
 8000b4e:	6b42      	ldr	r2, [r0, #52]	; 0x34
    __HAL_UNLOCK(hdma);
 8000b50:	77dc      	strb	r4, [r3, #31]
  HAL_StatusTypeDef status = HAL_OK;
 8000b52:	0013      	movs	r3, r2
    if(hdma->XferAbortCallback != NULL)
 8000b54:	42a2      	cmp	r2, r4
 8000b56:	d0e7      	beq.n	8000b28 <HAL_DMA_Abort_IT+0x10>
      hdma->XferAbortCallback(hdma);
 8000b58:	4790      	blx	r2
  HAL_StatusTypeDef status = HAL_OK;
 8000b5a:	0023      	movs	r3, r4
 8000b5c:	e7e4      	b.n	8000b28 <HAL_DMA_Abort_IT+0x10>
	...

08000b60 <HAL_GPIO_Init>:
  * @param  GPIO_Init pointer to a GPIO_InitTypeDef structure that contains
  *         the configuration information for the specified GPIO peripheral.
  * @retval None
  */
void HAL_GPIO_Init(GPIO_TypeDef  *GPIOx, GPIO_InitTypeDef *GPIO_Init)
{ 
 8000b60:	b5f0      	push	{r4, r5, r6, r7, lr}
  assert_param(IS_GPIO_PIN(GPIO_Init->Pin));
  assert_param(IS_GPIO_MODE(GPIO_Init->Mode));
  assert_param(IS_GPIO_PULL(GPIO_Init->Pull)); 

  /* Configure the port pins */
  while (((GPIO_Init->Pin) >> position) != RESET)
 8000b62:	680b      	ldr	r3, [r1, #0]
{ 
 8000b64:	b087      	sub	sp, #28
  while (((GPIO_Init->Pin) >> position) != RESET)
 8000b66:	9302      	str	r3, [sp, #8]
  uint32_t position = 0x00U;
 8000b68:	2300      	movs	r3, #0
{ 
 8000b6a:	9101      	str	r1, [sp, #4]
  while (((GPIO_Init->Pin) >> position) != RESET)
 8000b6c:	9a02      	ldr	r2, [sp, #8]
 8000b6e:	40da      	lsrs	r2, r3
 8000b70:	d101      	bne.n	8000b76 <HAL_GPIO_Init+0x16>
      }
    }
    
    position++;
  } 
}
 8000b72:	b007      	add	sp, #28
 8000b74:	bdf0      	pop	{r4, r5, r6, r7, pc}
    iocurrent = (GPIO_Init->Pin) & (1U << position);
 8000b76:	2201      	movs	r2, #1
 8000b78:	409a      	lsls	r2, r3
 8000b7a:	9203      	str	r2, [sp, #12]
 8000b7c:	9903      	ldr	r1, [sp, #12]
 8000b7e:	9a02      	ldr	r2, [sp, #8]
 8000b80:	400a      	ands	r2, r1
 8000b82:	9200      	str	r2, [sp, #0]
    if(iocurrent)
 8000b84:	d100      	bne.n	8000b88 <HAL_GPIO_Init+0x28>
 8000b86:	e08c      	b.n	8000ca2 <HAL_GPIO_Init+0x142>
      if((GPIO_Init->Mode == GPIO_MODE_AF_PP) || (GPIO_Init->Mode == GPIO_MODE_AF_OD)) 
 8000b88:	9a01      	ldr	r2, [sp, #4]
 8000b8a:	2110      	movs	r1, #16
 8000b8c:	6852      	ldr	r2, [r2, #4]
 8000b8e:	0016      	movs	r6, r2
 8000b90:	438e      	bics	r6, r1
 8000b92:	2e02      	cmp	r6, #2
 8000b94:	d10e      	bne.n	8000bb4 <HAL_GPIO_Init+0x54>
        CLEAR_BIT(temp, 0xFU << ((uint32_t)(position & 0x07U) * 4U)) ;      
 8000b96:	2507      	movs	r5, #7
 8000b98:	401d      	ands	r5, r3
 8000b9a:	00ad      	lsls	r5, r5, #2
 8000b9c:	3901      	subs	r1, #1
 8000b9e:	40a9      	lsls	r1, r5
        temp = GPIOx->AFR[position >> 3];
 8000ba0:	08dc      	lsrs	r4, r3, #3
 8000ba2:	00a4      	lsls	r4, r4, #2
 8000ba4:	1904      	adds	r4, r0, r4
 8000ba6:	6a27      	ldr	r7, [r4, #32]
        CLEAR_BIT(temp, 0xFU << ((uint32_t)(position & 0x07U) * 4U)) ;      
 8000ba8:	438f      	bics	r7, r1
        SET_BIT(temp, (uint32_t)(GPIO_Init->Alternate) << (((uint32_t)position & 0x07U) * 4U));       
 8000baa:	9901      	ldr	r1, [sp, #4]
 8000bac:	6909      	ldr	r1, [r1, #16]
 8000bae:	40a9      	lsls	r1, r5
 8000bb0:	430f      	orrs	r7, r1
        GPIOx->AFR[position >> 3U] = temp;
 8000bb2:	6227      	str	r7, [r4, #32]
      CLEAR_BIT(temp, GPIO_MODER_MODER0 << (position * 2U));   
 8000bb4:	2403      	movs	r4, #3
 8000bb6:	005f      	lsls	r7, r3, #1
 8000bb8:	40bc      	lsls	r4, r7
 8000bba:	43e4      	mvns	r4, r4
      temp = GPIOx->MODER;
 8000bbc:	6805      	ldr	r5, [r0, #0]
      if ((GPIO_Init->Mode == GPIO_MODE_OUTPUT_PP) || (GPIO_Init->Mode == GPIO_MODE_AF_PP) ||
 8000bbe:	3e01      	subs	r6, #1
      CLEAR_BIT(temp, GPIO_MODER_MODER0 << (position * 2U));   
 8000bc0:	4025      	ands	r5, r4
 8000bc2:	46ac      	mov	ip, r5
      SET_BIT(temp, (GPIO_Init->Mode & GPIO_MODE) << (position * 2U));
 8000bc4:	2503      	movs	r5, #3
 8000bc6:	4015      	ands	r5, r2
 8000bc8:	40bd      	lsls	r5, r7
 8000bca:	4661      	mov	r1, ip
 8000bcc:	430d      	orrs	r5, r1
      GPIOx->MODER = temp;
 8000bce:	6005      	str	r5, [r0, #0]
      if ((GPIO_Init->Mode == GPIO_MODE_OUTPUT_PP) || (GPIO_Init->Mode == GPIO_MODE_AF_PP) ||
 8000bd0:	2e01      	cmp	r6, #1
 8000bd2:	d80f      	bhi.n	8000bf4 <HAL_GPIO_Init+0x94>
        SET_BIT(temp, GPIO_Init->Speed << (position * 2U));
 8000bd4:	9901      	ldr	r1, [sp, #4]
        temp = GPIOx->OSPEEDR; 
 8000bd6:	6886      	ldr	r6, [r0, #8]
        SET_BIT(temp, GPIO_Init->Speed << (position * 2U));
 8000bd8:	68cd      	ldr	r5, [r1, #12]
        CLEAR_BIT(temp, GPIO_OSPEEDER_OSPEEDR0 << (position * 2U));
 8000bda:	4026      	ands	r6, r4
        SET_BIT(temp, GPIO_Init->Speed << (position * 2U));
 8000bdc:	40bd      	lsls	r5, r7
 8000bde:	4335      	orrs	r5, r6
        GPIOx->OSPEEDR = temp;
 8000be0:	6085      	str	r5, [r0, #8]
        temp = GPIOx->OTYPER;
 8000be2:	6846      	ldr	r6, [r0, #4]
        CLEAR_BIT(temp, GPIO_OTYPER_OT_0 << position) ;
 8000be4:	9903      	ldr	r1, [sp, #12]
        SET_BIT(temp, ((GPIO_Init->Mode & GPIO_OUTPUT_TYPE) >> 4U) << position);
 8000be6:	0915      	lsrs	r5, r2, #4
        CLEAR_BIT(temp, GPIO_OTYPER_OT_0 << position) ;
 8000be8:	438e      	bics	r6, r1
        SET_BIT(temp, ((GPIO_Init->Mode & GPIO_OUTPUT_TYPE) >> 4U) << position);
 8000bea:	2101      	movs	r1, #1
 8000bec:	400d      	ands	r5, r1
 8000bee:	409d      	lsls	r5, r3
 8000bf0:	4335      	orrs	r5, r6
        GPIOx->OTYPER = temp;
 8000bf2:	6045      	str	r5, [r0, #4]
      temp = GPIOx->PUPDR;
 8000bf4:	68c5      	ldr	r5, [r0, #12]
      SET_BIT(temp, (GPIO_Init->Pull) << (position * 2U));
 8000bf6:	9901      	ldr	r1, [sp, #4]
      CLEAR_BIT(temp, GPIO_PUPDR_PUPDR0 << (position * 2U));
 8000bf8:	402c      	ands	r4, r5
      SET_BIT(temp, (GPIO_Init->Pull) << (position * 2U));
 8000bfa:	688d      	ldr	r5, [r1, #8]
      if((GPIO_Init->Mode & EXTI_MODE) == EXTI_MODE) 
 8000bfc:	2180      	movs	r1, #128	; 0x80
      SET_BIT(temp, (GPIO_Init->Pull) << (position * 2U));
 8000bfe:	40bd      	lsls	r5, r7
      if((GPIO_Init->Mode & EXTI_MODE) == EXTI_MODE) 
 8000c00:	0549      	lsls	r1, r1, #21
      SET_BIT(temp, (GPIO_Init->Pull) << (position * 2U));
 8000c02:	432c      	orrs	r4, r5
      GPIOx->PUPDR = temp;
 8000c04:	60c4      	str	r4, [r0, #12]
      if((GPIO_Init->Mode & EXTI_MODE) == EXTI_MODE) 
 8000c06:	420a      	tst	r2, r1
 8000c08:	d04b      	beq.n	8000ca2 <HAL_GPIO_Init+0x142>
        __HAL_RCC_SYSCFG_CLK_ENABLE();
 8000c0a:	2101      	movs	r1, #1
 8000c0c:	4c26      	ldr	r4, [pc, #152]	; (8000ca8 <HAL_GPIO_Init+0x148>)
        CLEAR_BIT(temp, (0x0FU) << (4U * (position & 0x03U)));
 8000c0e:	2603      	movs	r6, #3
        __HAL_RCC_SYSCFG_CLK_ENABLE();
 8000c10:	69a5      	ldr	r5, [r4, #24]
        CLEAR_BIT(temp, (0x0FU) << (4U * (position & 0x03U)));
 8000c12:	401e      	ands	r6, r3
        __HAL_RCC_SYSCFG_CLK_ENABLE();
 8000c14:	430d      	orrs	r5, r1
 8000c16:	61a5      	str	r5, [r4, #24]
 8000c18:	69a4      	ldr	r4, [r4, #24]
        temp = SYSCFG->EXTICR[position >> 2];
 8000c1a:	089d      	lsrs	r5, r3, #2
        __HAL_RCC_SYSCFG_CLK_ENABLE();
 8000c1c:	400c      	ands	r4, r1
 8000c1e:	9405      	str	r4, [sp, #20]
 8000c20:	9c05      	ldr	r4, [sp, #20]
        CLEAR_BIT(temp, (0x0FU) << (4U * (position & 0x03U)));
 8000c22:	240f      	movs	r4, #15
 8000c24:	4921      	ldr	r1, [pc, #132]	; (8000cac <HAL_GPIO_Init+0x14c>)
 8000c26:	00ad      	lsls	r5, r5, #2
 8000c28:	00b6      	lsls	r6, r6, #2
 8000c2a:	186d      	adds	r5, r5, r1
 8000c2c:	40b4      	lsls	r4, r6
        SET_BIT(temp, (GPIO_GET_INDEX(GPIOx)) << (4U * (position & 0x03U)));
 8000c2e:	2190      	movs	r1, #144	; 0x90
        temp = SYSCFG->EXTICR[position >> 2];
 8000c30:	68af      	ldr	r7, [r5, #8]
        SET_BIT(temp, (GPIO_GET_INDEX(GPIOx)) << (4U * (position & 0x03U)));
 8000c32:	05c9      	lsls	r1, r1, #23
        CLEAR_BIT(temp, (0x0FU) << (4U * (position & 0x03U)));
 8000c34:	43a7      	bics	r7, r4
        SET_BIT(temp, (GPIO_GET_INDEX(GPIOx)) << (4U * (position & 0x03U)));
 8000c36:	2400      	movs	r4, #0
 8000c38:	4288      	cmp	r0, r1
 8000c3a:	d00c      	beq.n	8000c56 <HAL_GPIO_Init+0xf6>
 8000c3c:	491c      	ldr	r1, [pc, #112]	; (8000cb0 <HAL_GPIO_Init+0x150>)
 8000c3e:	3401      	adds	r4, #1
 8000c40:	4288      	cmp	r0, r1
 8000c42:	d008      	beq.n	8000c56 <HAL_GPIO_Init+0xf6>
 8000c44:	491b      	ldr	r1, [pc, #108]	; (8000cb4 <HAL_GPIO_Init+0x154>)
 8000c46:	3401      	adds	r4, #1
 8000c48:	4288      	cmp	r0, r1
 8000c4a:	d004      	beq.n	8000c56 <HAL_GPIO_Init+0xf6>
 8000c4c:	491a      	ldr	r1, [pc, #104]	; (8000cb8 <HAL_GPIO_Init+0x158>)
 8000c4e:	3403      	adds	r4, #3
 8000c50:	4288      	cmp	r0, r1
 8000c52:	d100      	bne.n	8000c56 <HAL_GPIO_Init+0xf6>
 8000c54:	3c02      	subs	r4, #2
 8000c56:	40b4      	lsls	r4, r6
        CLEAR_BIT(temp, (uint32_t)iocurrent);
 8000c58:	9900      	ldr	r1, [sp, #0]
        SET_BIT(temp, (GPIO_GET_INDEX(GPIOx)) << (4U * (position & 0x03U)));
 8000c5a:	433c      	orrs	r4, r7
          SET_BIT(temp, iocurrent); 
 8000c5c:	000e      	movs	r6, r1
        SYSCFG->EXTICR[position >> 2] = temp;
 8000c5e:	60ac      	str	r4, [r5, #8]
        temp = EXTI->IMR;
 8000c60:	4c16      	ldr	r4, [pc, #88]	; (8000cbc <HAL_GPIO_Init+0x15c>)
        CLEAR_BIT(temp, (uint32_t)iocurrent);
 8000c62:	43cd      	mvns	r5, r1
        temp = EXTI->IMR;
 8000c64:	6827      	ldr	r7, [r4, #0]
          SET_BIT(temp, iocurrent); 
 8000c66:	433e      	orrs	r6, r7
        if((GPIO_Init->Mode & GPIO_MODE_IT) == GPIO_MODE_IT)
 8000c68:	03d1      	lsls	r1, r2, #15
 8000c6a:	d401      	bmi.n	8000c70 <HAL_GPIO_Init+0x110>
        CLEAR_BIT(temp, (uint32_t)iocurrent);
 8000c6c:	003e      	movs	r6, r7
 8000c6e:	402e      	ands	r6, r5
        EXTI->IMR = temp;
 8000c70:	6026      	str	r6, [r4, #0]
        temp = EXTI->EMR;
 8000c72:	6867      	ldr	r7, [r4, #4]
          SET_BIT(temp, iocurrent); 
 8000c74:	9e00      	ldr	r6, [sp, #0]
 8000c76:	433e      	orrs	r6, r7
        if((GPIO_Init->Mode & GPIO_MODE_EVT) == GPIO_MODE_EVT)
 8000c78:	0391      	lsls	r1, r2, #14
 8000c7a:	d401      	bmi.n	8000c80 <HAL_GPIO_Init+0x120>
        CLEAR_BIT(temp, (uint32_t)iocurrent);      
 8000c7c:	003e      	movs	r6, r7
 8000c7e:	402e      	ands	r6, r5
        EXTI->EMR = temp;
 8000c80:	6066      	str	r6, [r4, #4]
        temp = EXTI->RTSR;
 8000c82:	68a7      	ldr	r7, [r4, #8]
          SET_BIT(temp, iocurrent); 
 8000c84:	9e00      	ldr	r6, [sp, #0]
 8000c86:	433e      	orrs	r6, r7
        if((GPIO_Init->Mode & RISING_EDGE) == RISING_EDGE)
 8000c88:	02d1      	lsls	r1, r2, #11
 8000c8a:	d401      	bmi.n	8000c90 <HAL_GPIO_Init+0x130>
        CLEAR_BIT(temp, (uint32_t)iocurrent); 
 8000c8c:	003e      	movs	r6, r7
 8000c8e:	402e      	ands	r6, r5
        EXTI->RTSR = temp;
 8000c90:	60a6      	str	r6, [r4, #8]
        temp = EXTI->FTSR;
 8000c92:	68e6      	ldr	r6, [r4, #12]
          SET_BIT(temp, iocurrent); 
 8000c94:	9f00      	ldr	r7, [sp, #0]
 8000c96:	4337      	orrs	r7, r6
        if((GPIO_Init->Mode & FALLING_EDGE) == FALLING_EDGE)
 8000c98:	0292      	lsls	r2, r2, #10
 8000c9a:	d401      	bmi.n	8000ca0 <HAL_GPIO_Init+0x140>
        CLEAR_BIT(temp, (uint32_t)iocurrent); 
 8000c9c:	402e      	ands	r6, r5
 8000c9e:	0037      	movs	r7, r6
        EXTI->FTSR = temp;
 8000ca0:	60e7      	str	r7, [r4, #12]
    position++;
 8000ca2:	3301      	adds	r3, #1
 8000ca4:	e762      	b.n	8000b6c <HAL_GPIO_Init+0xc>
 8000ca6:	46c0      	nop			; (mov r8, r8)
 8000ca8:	40021000 	.word	0x40021000
 8000cac:	40010000 	.word	0x40010000
 8000cb0:	48000400 	.word	0x48000400
 8000cb4:	48000800 	.word	0x48000800
 8000cb8:	48000c00 	.word	0x48000c00
 8000cbc:	40010400 	.word	0x40010400

08000cc0 <HAL_GPIO_WritePin>:
{
  /* Check the parameters */
  assert_param(IS_GPIO_PIN(GPIO_Pin));
  assert_param(IS_GPIO_PIN_ACTION(PinState));

  if (PinState != GPIO_PIN_RESET)
 8000cc0:	2a00      	cmp	r2, #0
 8000cc2:	d001      	beq.n	8000cc8 <HAL_GPIO_WritePin+0x8>
  {
    GPIOx->BSRR = (uint32_t)GPIO_Pin;
 8000cc4:	6181      	str	r1, [r0, #24]
  }
  else
  {
    GPIOx->BRR = (uint32_t)GPIO_Pin;
  }
}
 8000cc6:	4770      	bx	lr
    GPIOx->BRR = (uint32_t)GPIO_Pin;
 8000cc8:	6281      	str	r1, [r0, #40]	; 0x28
}
 8000cca:	e7fc      	b.n	8000cc6 <HAL_GPIO_WritePin+0x6>

08000ccc <HAL_I2C_Init>:
  * @param  hi2c Pointer to a I2C_HandleTypeDef structure that contains
  *                the configuration information for the specified I2C.
  * @retval HAL status
  */
HAL_StatusTypeDef HAL_I2C_Init(I2C_HandleTypeDef *hi2c)
{
 8000ccc:	b570      	push	{r4, r5, r6, lr}
 8000cce:	0004      	movs	r4, r0
  /* Check the I2C handle allocation */
  if (hi2c == NULL)
  {
    return HAL_ERROR;
 8000cd0:	2001      	movs	r0, #1
  if (hi2c == NULL)
 8000cd2:	2c00      	cmp	r4, #0
 8000cd4:	d03f      	beq.n	8000d56 <HAL_I2C_Init+0x8a>
  assert_param(IS_I2C_OWN_ADDRESS2(hi2c->Init.OwnAddress2));
  assert_param(IS_I2C_OWN_ADDRESS2_MASK(hi2c->Init.OwnAddress2Masks));
  assert_param(IS_I2C_GENERAL_CALL(hi2c->Init.GeneralCallMode));
  assert_param(IS_I2C_NO_STRETCH(hi2c->Init.NoStretchMode));

  if (hi2c->State == HAL_I2C_STATE_RESET)
 8000cd6:	0025      	movs	r5, r4
 8000cd8:	3541      	adds	r5, #65	; 0x41
 8000cda:	782b      	ldrb	r3, [r5, #0]
 8000cdc:	b2db      	uxtb	r3, r3
 8000cde:	2b00      	cmp	r3, #0
 8000ce0:	d105      	bne.n	8000cee <HAL_I2C_Init+0x22>
  {
    /* Allocate lock resource and initialize it */
    hi2c->Lock = HAL_UNLOCKED;
 8000ce2:	0022      	movs	r2, r4
 8000ce4:	3240      	adds	r2, #64	; 0x40
 8000ce6:	7013      	strb	r3, [r2, #0]

    /* Init the low level hardware : GPIO, CLOCK, CORTEX...etc */
    HAL_I2C_MspInit(hi2c);
 8000ce8:	0020      	movs	r0, r4
 8000cea:	f7ff fbdb 	bl	80004a4 <HAL_I2C_MspInit>
  }

  hi2c->State = HAL_I2C_STATE_BUSY;
 8000cee:	2324      	movs	r3, #36	; 0x24

  /* Disable the selected I2C peripheral */
  __HAL_I2C_DISABLE(hi2c);
 8000cf0:	2101      	movs	r1, #1
  hi2c->State = HAL_I2C_STATE_BUSY;
 8000cf2:	702b      	strb	r3, [r5, #0]
  __HAL_I2C_DISABLE(hi2c);
 8000cf4:	6823      	ldr	r3, [r4, #0]
  /*---------------------------- I2Cx OAR1 Configuration ---------------------*/
  /* Disable Own Address1 before set the Own Address1 configuration */
  hi2c->Instance->OAR1 &= ~I2C_OAR1_OA1EN;

  /* Configure I2Cx: Own Address1 and ack own address1 mode */
  if (hi2c->Init.AddressingMode == I2C_ADDRESSINGMODE_7BIT)
 8000cf6:	68e0      	ldr	r0, [r4, #12]
  __HAL_I2C_DISABLE(hi2c);
 8000cf8:	681a      	ldr	r2, [r3, #0]
 8000cfa:	68a6      	ldr	r6, [r4, #8]
 8000cfc:	438a      	bics	r2, r1
 8000cfe:	601a      	str	r2, [r3, #0]
  hi2c->Instance->TIMINGR = hi2c->Init.Timing & TIMING_CLEAR_MASK;
 8000d00:	6861      	ldr	r1, [r4, #4]
 8000d02:	4a1a      	ldr	r2, [pc, #104]	; (8000d6c <HAL_I2C_Init+0xa0>)
 8000d04:	400a      	ands	r2, r1
 8000d06:	611a      	str	r2, [r3, #16]
  hi2c->Instance->OAR1 &= ~I2C_OAR1_OA1EN;
 8000d08:	6899      	ldr	r1, [r3, #8]
 8000d0a:	4a19      	ldr	r2, [pc, #100]	; (8000d70 <HAL_I2C_Init+0xa4>)
 8000d0c:	4011      	ands	r1, r2
 8000d0e:	6099      	str	r1, [r3, #8]
  if (hi2c->Init.AddressingMode == I2C_ADDRESSINGMODE_7BIT)
 8000d10:	2801      	cmp	r0, #1
 8000d12:	d121      	bne.n	8000d58 <HAL_I2C_Init+0x8c>
  {
    hi2c->Instance->OAR1 = (I2C_OAR1_OA1EN | hi2c->Init.OwnAddress1);
 8000d14:	2180      	movs	r1, #128	; 0x80
 8000d16:	0209      	lsls	r1, r1, #8
 8000d18:	4331      	orrs	r1, r6
 8000d1a:	6099      	str	r1, [r3, #8]
  if (hi2c->Init.AddressingMode == I2C_ADDRESSINGMODE_10BIT)
  {
    hi2c->Instance->CR2 = (I2C_CR2_ADD10);
  }
  /* Enable the AUTOEND by default, and enable NACK (should be disable only during Slave process */
  hi2c->Instance->CR2 |= (I2C_CR2_AUTOEND | I2C_CR2_NACK);
 8000d1c:	6858      	ldr	r0, [r3, #4]
 8000d1e:	4915      	ldr	r1, [pc, #84]	; (8000d74 <HAL_I2C_Init+0xa8>)
 8000d20:	4301      	orrs	r1, r0
 8000d22:	6059      	str	r1, [r3, #4]

  /*---------------------------- I2Cx OAR2 Configuration ---------------------*/
  /* Disable Own Address2 before set the Own Address2 configuration */
  hi2c->Instance->OAR2 &= ~I2C_DUALADDRESS_ENABLE;
 8000d24:	68d9      	ldr	r1, [r3, #12]
  hi2c->Instance->CR1 = (hi2c->Init.GeneralCallMode | hi2c->Init.NoStretchMode);

  /* Enable the selected I2C peripheral */
  __HAL_I2C_ENABLE(hi2c);

  hi2c->ErrorCode = HAL_I2C_ERROR_NONE;
 8000d26:	2000      	movs	r0, #0
  hi2c->Instance->OAR2 &= ~I2C_DUALADDRESS_ENABLE;
 8000d28:	400a      	ands	r2, r1
 8000d2a:	60da      	str	r2, [r3, #12]
  hi2c->Instance->OAR2 = (hi2c->Init.DualAddressMode | hi2c->Init.OwnAddress2 | (hi2c->Init.OwnAddress2Masks << 8));
 8000d2c:	6961      	ldr	r1, [r4, #20]
 8000d2e:	6922      	ldr	r2, [r4, #16]
 8000d30:	430a      	orrs	r2, r1
 8000d32:	69a1      	ldr	r1, [r4, #24]
 8000d34:	0209      	lsls	r1, r1, #8
 8000d36:	430a      	orrs	r2, r1
 8000d38:	60da      	str	r2, [r3, #12]
  hi2c->Instance->CR1 = (hi2c->Init.GeneralCallMode | hi2c->Init.NoStretchMode);
 8000d3a:	6a21      	ldr	r1, [r4, #32]
 8000d3c:	69e2      	ldr	r2, [r4, #28]
 8000d3e:	430a      	orrs	r2, r1
 8000d40:	601a      	str	r2, [r3, #0]
  __HAL_I2C_ENABLE(hi2c);
 8000d42:	2201      	movs	r2, #1
 8000d44:	6819      	ldr	r1, [r3, #0]
 8000d46:	430a      	orrs	r2, r1
 8000d48:	601a      	str	r2, [r3, #0]
  hi2c->State = HAL_I2C_STATE_READY;
 8000d4a:	2320      	movs	r3, #32
  hi2c->ErrorCode = HAL_I2C_ERROR_NONE;
 8000d4c:	6460      	str	r0, [r4, #68]	; 0x44
  hi2c->State = HAL_I2C_STATE_READY;
 8000d4e:	702b      	strb	r3, [r5, #0]
  hi2c->PreviousState = I2C_STATE_NONE;
 8000d50:	6320      	str	r0, [r4, #48]	; 0x30
  hi2c->Mode = HAL_I2C_MODE_NONE;
 8000d52:	3442      	adds	r4, #66	; 0x42
 8000d54:	7020      	strb	r0, [r4, #0]

  return HAL_OK;
}
 8000d56:	bd70      	pop	{r4, r5, r6, pc}
    hi2c->Instance->OAR1 = (I2C_OAR1_OA1EN | I2C_OAR1_OA1MODE | hi2c->Init.OwnAddress1);
 8000d58:	2184      	movs	r1, #132	; 0x84
 8000d5a:	0209      	lsls	r1, r1, #8
 8000d5c:	4331      	orrs	r1, r6
 8000d5e:	6099      	str	r1, [r3, #8]
  if (hi2c->Init.AddressingMode == I2C_ADDRESSINGMODE_10BIT)
 8000d60:	2802      	cmp	r0, #2
 8000d62:	d1db      	bne.n	8000d1c <HAL_I2C_Init+0x50>
    hi2c->Instance->CR2 = (I2C_CR2_ADD10);
 8000d64:	2180      	movs	r1, #128	; 0x80
 8000d66:	0109      	lsls	r1, r1, #4
 8000d68:	6059      	str	r1, [r3, #4]
 8000d6a:	e7d7      	b.n	8000d1c <HAL_I2C_Init+0x50>
 8000d6c:	f0ffffff 	.word	0xf0ffffff
 8000d70:	ffff7fff 	.word	0xffff7fff
 8000d74:	02008000 	.word	0x02008000

08000d78 <HAL_I2CEx_ConfigAnalogFilter>:
  *                the configuration information for the specified I2Cx peripheral.
  * @param  AnalogFilter New state of the Analog filter.
  * @retval HAL status
  */
HAL_StatusTypeDef HAL_I2CEx_ConfigAnalogFilter(I2C_HandleTypeDef *hi2c, uint32_t AnalogFilter)
{
 8000d78:	b5f0      	push	{r4, r5, r6, r7, lr}
  /* Check the parameters */
  assert_param(IS_I2C_ALL_INSTANCE(hi2c->Instance));
  assert_param(IS_I2C_ANALOG_FILTER(AnalogFilter));

  if (hi2c->State == HAL_I2C_STATE_READY)
 8000d7a:	0004      	movs	r4, r0
 8000d7c:	3441      	adds	r4, #65	; 0x41
 8000d7e:	7822      	ldrb	r2, [r4, #0]
{
 8000d80:	0003      	movs	r3, r0
  if (hi2c->State == HAL_I2C_STATE_READY)
 8000d82:	b2d2      	uxtb	r2, r2

    return HAL_OK;
  }
  else
  {
    return HAL_BUSY;
 8000d84:	2002      	movs	r0, #2
  if (hi2c->State == HAL_I2C_STATE_READY)
 8000d86:	2a20      	cmp	r2, #32
 8000d88:	d118      	bne.n	8000dbc <HAL_I2CEx_ConfigAnalogFilter+0x44>
    __HAL_LOCK(hi2c);
 8000d8a:	001d      	movs	r5, r3
 8000d8c:	3540      	adds	r5, #64	; 0x40
 8000d8e:	782e      	ldrb	r6, [r5, #0]
 8000d90:	2e01      	cmp	r6, #1
 8000d92:	d013      	beq.n	8000dbc <HAL_I2CEx_ConfigAnalogFilter+0x44>
    __HAL_I2C_DISABLE(hi2c);
 8000d94:	681b      	ldr	r3, [r3, #0]
    hi2c->State = HAL_I2C_STATE_BUSY;
 8000d96:	3022      	adds	r0, #34	; 0x22
 8000d98:	7020      	strb	r0, [r4, #0]
    __HAL_I2C_DISABLE(hi2c);
 8000d9a:	681e      	ldr	r6, [r3, #0]
 8000d9c:	3823      	subs	r0, #35	; 0x23
 8000d9e:	4386      	bics	r6, r0
 8000da0:	601e      	str	r6, [r3, #0]
    hi2c->Instance->CR1 &= ~(I2C_CR1_ANFOFF);
 8000da2:	681e      	ldr	r6, [r3, #0]
 8000da4:	4f06      	ldr	r7, [pc, #24]	; (8000dc0 <HAL_I2CEx_ConfigAnalogFilter+0x48>)
 8000da6:	403e      	ands	r6, r7
 8000da8:	601e      	str	r6, [r3, #0]
    hi2c->Instance->CR1 |= AnalogFilter;
 8000daa:	681e      	ldr	r6, [r3, #0]
 8000dac:	4331      	orrs	r1, r6
 8000dae:	6019      	str	r1, [r3, #0]
    __HAL_I2C_ENABLE(hi2c);
 8000db0:	6819      	ldr	r1, [r3, #0]
 8000db2:	4308      	orrs	r0, r1
 8000db4:	6018      	str	r0, [r3, #0]
    __HAL_UNLOCK(hi2c);
 8000db6:	2000      	movs	r0, #0
    hi2c->State = HAL_I2C_STATE_READY;
 8000db8:	7022      	strb	r2, [r4, #0]
    __HAL_UNLOCK(hi2c);
 8000dba:	7028      	strb	r0, [r5, #0]
  }
}
 8000dbc:	bdf0      	pop	{r4, r5, r6, r7, pc}
 8000dbe:	46c0      	nop			; (mov r8, r8)
 8000dc0:	ffffefff 	.word	0xffffefff

08000dc4 <HAL_I2CEx_ConfigDigitalFilter>:
  *                the configuration information for the specified I2Cx peripheral.
  * @param  DigitalFilter Coefficient of digital noise filter between Min_Data=0x00 and Max_Data=0x0F.
  * @retval HAL status
  */
HAL_StatusTypeDef HAL_I2CEx_ConfigDigitalFilter(I2C_HandleTypeDef *hi2c, uint32_t DigitalFilter)
{
 8000dc4:	b5f0      	push	{r4, r5, r6, r7, lr}

  /* Check the parameters */
  assert_param(IS_I2C_ALL_INSTANCE(hi2c->Instance));
  assert_param(IS_I2C_DIGITAL_FILTER(DigitalFilter));

  if (hi2c->State == HAL_I2C_STATE_READY)
 8000dc6:	0005      	movs	r5, r0
 8000dc8:	3541      	adds	r5, #65	; 0x41
 8000dca:	782a      	ldrb	r2, [r5, #0]
{
 8000dcc:	0003      	movs	r3, r0
  if (hi2c->State == HAL_I2C_STATE_READY)
 8000dce:	b2d2      	uxtb	r2, r2

    return HAL_OK;
  }
  else
  {
    return HAL_BUSY;
 8000dd0:	2002      	movs	r0, #2
  if (hi2c->State == HAL_I2C_STATE_READY)
 8000dd2:	2a20      	cmp	r2, #32
 8000dd4:	d117      	bne.n	8000e06 <HAL_I2CEx_ConfigDigitalFilter+0x42>
    __HAL_LOCK(hi2c);
 8000dd6:	001c      	movs	r4, r3
 8000dd8:	3440      	adds	r4, #64	; 0x40
 8000dda:	7826      	ldrb	r6, [r4, #0]
 8000ddc:	2e01      	cmp	r6, #1
 8000dde:	d012      	beq.n	8000e06 <HAL_I2CEx_ConfigDigitalFilter+0x42>
    __HAL_I2C_DISABLE(hi2c);
 8000de0:	681b      	ldr	r3, [r3, #0]
    hi2c->State = HAL_I2C_STATE_BUSY;
 8000de2:	3022      	adds	r0, #34	; 0x22
 8000de4:	7028      	strb	r0, [r5, #0]
    __HAL_I2C_DISABLE(hi2c);
 8000de6:	681e      	ldr	r6, [r3, #0]
 8000de8:	3823      	subs	r0, #35	; 0x23
 8000dea:	4386      	bics	r6, r0
 8000dec:	601e      	str	r6, [r3, #0]
    tmpreg = hi2c->Instance->CR1;
 8000dee:	681e      	ldr	r6, [r3, #0]
    tmpreg &= ~(I2C_CR1_DNF);
 8000df0:	4f05      	ldr	r7, [pc, #20]	; (8000e08 <HAL_I2CEx_ConfigDigitalFilter+0x44>)
    tmpreg |= DigitalFilter << 8U;
 8000df2:	0209      	lsls	r1, r1, #8
    tmpreg &= ~(I2C_CR1_DNF);
 8000df4:	403e      	ands	r6, r7
    tmpreg |= DigitalFilter << 8U;
 8000df6:	4331      	orrs	r1, r6
    hi2c->Instance->CR1 = tmpreg;
 8000df8:	6019      	str	r1, [r3, #0]
    __HAL_I2C_ENABLE(hi2c);
 8000dfa:	6819      	ldr	r1, [r3, #0]
 8000dfc:	4308      	orrs	r0, r1
 8000dfe:	6018      	str	r0, [r3, #0]
    __HAL_UNLOCK(hi2c);
 8000e00:	2000      	movs	r0, #0
    hi2c->State = HAL_I2C_STATE_READY;
 8000e02:	702a      	strb	r2, [r5, #0]
    __HAL_UNLOCK(hi2c);
 8000e04:	7020      	strb	r0, [r4, #0]
  }
}
 8000e06:	bdf0      	pop	{r4, r5, r6, r7, pc}
 8000e08:	fffff0ff 	.word	0xfffff0ff

08000e0c <HAL_PCD_Init>:
  *         parameters in the PCD_InitTypeDef and create the associated handle.
  * @param  hpcd PCD handle
  * @retval HAL status
  */
HAL_StatusTypeDef HAL_PCD_Init(PCD_HandleTypeDef *hpcd)
{ 
 8000e0c:	b570      	push	{r4, r5, r6, lr}
 8000e0e:	0004      	movs	r4, r0
  uint32_t wInterrupt_Mask = 0U;
  
  /* Check the PCD handle allocation */
  if(hpcd == NULL)
  {
    return HAL_ERROR;
 8000e10:	2001      	movs	r0, #1
  if(hpcd == NULL)
 8000e12:	2c00      	cmp	r4, #0
 8000e14:	d02b      	beq.n	8000e6e <HAL_PCD_Init+0x62>
  }
  
  /* Check the parameters */
  assert_param(IS_PCD_ALL_INSTANCE(hpcd->Instance));

  if(hpcd->State == HAL_PCD_STATE_RESET)
 8000e16:	25ea      	movs	r5, #234	; 0xea
 8000e18:	35ff      	adds	r5, #255	; 0xff
 8000e1a:	5d63      	ldrb	r3, [r4, r5]
 8000e1c:	b2db      	uxtb	r3, r3
 8000e1e:	2b00      	cmp	r3, #0
 8000e20:	d105      	bne.n	8000e2e <HAL_PCD_Init+0x22>
  {  
    /* Allocate lock resource and initialize it */
    hpcd->Lock = HAL_UNLOCKED;
 8000e22:	22f4      	movs	r2, #244	; 0xf4
 8000e24:	0052      	lsls	r2, r2, #1
 8000e26:	54a3      	strb	r3, [r4, r2]
  
    /* Init the low level hardware : GPIO, CLOCK, NVIC... */
    HAL_PCD_MspInit(hpcd);
 8000e28:	0020      	movs	r0, r4
 8000e2a:	f003 f939 	bl	80040a0 <HAL_PCD_MspInit>
  }

  hpcd->State = HAL_PCD_STATE_BUSY;
 8000e2e:	2303      	movs	r3, #3
 
 /* Init endpoints structures */
 for (i = 0U; i < hpcd->Init.dev_endpoints ; i++)
 8000e30:	2200      	movs	r2, #0
  hpcd->State = HAL_PCD_STATE_BUSY;
 8000e32:	5563      	strb	r3, [r4, r5]
 8000e34:	0023      	movs	r3, r4
 8000e36:	0011      	movs	r1, r2
 {
   /* Init ep structure */
   hpcd->IN_ep[i].is_in = 1U;
 8000e38:	2601      	movs	r6, #1
 for (i = 0U; i < hpcd->Init.dev_endpoints ; i++)
 8000e3a:	6860      	ldr	r0, [r4, #4]
 8000e3c:	3328      	adds	r3, #40	; 0x28
 8000e3e:	4282      	cmp	r2, r0
 8000e40:	d116      	bne.n	8000e70 <HAL_PCD_Init+0x64>
 8000e42:	2100      	movs	r1, #0
 8000e44:	0023      	movs	r3, r4
   hpcd->IN_ep[i].xfer_len = 0U;
 }
 
 for (i = 0U; i < hpcd->Init.dev_endpoints ; i++)
 {
   hpcd->OUT_ep[i].is_in = 0U;
 8000e46:	0008      	movs	r0, r1
 8000e48:	3309      	adds	r3, #9
 8000e4a:	33ff      	adds	r3, #255	; 0xff
 for (i = 0U; i < hpcd->Init.dev_endpoints ; i++)
 8000e4c:	428a      	cmp	r2, r1
 8000e4e:	d118      	bne.n	8000e82 <HAL_PCD_Init+0x76>
 /* Init Device */
 /*CNTR_FRES = 1*/
 hpcd->Instance->CNTR = USB_CNTR_FRES;
 
 /*CNTR_FRES = 0*/
 hpcd->Instance->CNTR = 0;
 8000e50:	2000      	movs	r0, #0
 hpcd->Instance->CNTR = USB_CNTR_FRES;
 8000e52:	2101      	movs	r1, #1
 8000e54:	6823      	ldr	r3, [r4, #0]
 8000e56:	1c9a      	adds	r2, r3, #2
 
 /*Clear pending interrupts*/
 hpcd->Instance->ISTR = 0;
 8000e58:	1d9e      	adds	r6, r3, #6
 
  /*Set Btable Adress*/
 hpcd->Instance->BTABLE = BTABLE_ADDRESS;
 8000e5a:	3350      	adds	r3, #80	; 0x50
 hpcd->Instance->CNTR = USB_CNTR_FRES;
 8000e5c:	87d1      	strh	r1, [r2, #62]	; 0x3e
 hpcd->Instance->CNTR = 0;
 8000e5e:	87d0      	strh	r0, [r2, #62]	; 0x3e
 hpcd->Instance->ISTR = 0;
 8000e60:	87f0      	strh	r0, [r6, #62]	; 0x3e
 hpcd->Instance->BTABLE = BTABLE_ADDRESS;
 8000e62:	8018      	strh	r0, [r3, #0]
  /*set wInterrupt_Mask global variable*/
 wInterrupt_Mask = USB_CNTR_CTRM  | USB_CNTR_WKUPM | USB_CNTR_SUSPM | USB_CNTR_ERRM \
   | USB_CNTR_SOFM | USB_CNTR_ESOFM | USB_CNTR_RESETM;
  
  /*Set interrupt mask*/
  hpcd->Instance->CNTR = wInterrupt_Mask;
 8000e64:	4b0b      	ldr	r3, [pc, #44]	; (8000e94 <HAL_PCD_Init+0x88>)
 8000e66:	87d3      	strh	r3, [r2, #62]	; 0x3e
  
  hpcd->USB_Address = 0U;
 8000e68:	1d63      	adds	r3, r4, #5
 8000e6a:	77d8      	strb	r0, [r3, #31]
  hpcd->State= HAL_PCD_STATE_READY;
 8000e6c:	5561      	strb	r1, [r4, r5]

 return HAL_OK;
}
 8000e6e:	bd70      	pop	{r4, r5, r6, pc}
   hpcd->IN_ep[i].num = i;
 8000e70:	701a      	strb	r2, [r3, #0]
   hpcd->IN_ep[i].is_in = 1U;
 8000e72:	705e      	strb	r6, [r3, #1]
   hpcd->IN_ep[i].type = PCD_EP_TYPE_CTRL;
 8000e74:	70d9      	strb	r1, [r3, #3]
   hpcd->IN_ep[i].maxpacket =  0U;
 8000e76:	60d9      	str	r1, [r3, #12]
   hpcd->IN_ep[i].xfer_buff = 0U;
 8000e78:	6119      	str	r1, [r3, #16]
   hpcd->IN_ep[i].xfer_len = 0U;
 8000e7a:	6159      	str	r1, [r3, #20]
 for (i = 0U; i < hpcd->Init.dev_endpoints ; i++)
 8000e7c:	3201      	adds	r2, #1
 8000e7e:	331c      	adds	r3, #28
 8000e80:	e7dd      	b.n	8000e3e <HAL_PCD_Init+0x32>
   hpcd->OUT_ep[i].num = i;
 8000e82:	7019      	strb	r1, [r3, #0]
   hpcd->OUT_ep[i].is_in = 0U;
 8000e84:	7058      	strb	r0, [r3, #1]
   hpcd->OUT_ep[i].type = PCD_EP_TYPE_CTRL;
 8000e86:	70d8      	strb	r0, [r3, #3]
   hpcd->OUT_ep[i].maxpacket = 0U;
 8000e88:	60d8      	str	r0, [r3, #12]
   hpcd->OUT_ep[i].xfer_buff = 0U;
 8000e8a:	6118      	str	r0, [r3, #16]
   hpcd->OUT_ep[i].xfer_len = 0U;
 8000e8c:	6158      	str	r0, [r3, #20]
 for (i = 0U; i < hpcd->Init.dev_endpoints ; i++)
 8000e8e:	3101      	adds	r1, #1
 8000e90:	331c      	adds	r3, #28
 8000e92:	e7db      	b.n	8000e4c <HAL_PCD_Init+0x40>
 8000e94:	ffffbf00 	.word	0xffffbf00

08000e98 <HAL_PCD_Start>:
  * @retval HAL status
  */
HAL_StatusTypeDef HAL_PCD_Start(PCD_HandleTypeDef *hpcd)
{ 
  /* Enabling DP Pull-Down bit to Connect internal pull-up on USB DP line */
  hpcd->Instance->BCDR |= USB_BCDR_DPPU;
 8000e98:	2180      	movs	r1, #128	; 0x80
 8000e9a:	6803      	ldr	r3, [r0, #0]
 8000e9c:	0209      	lsls	r1, r1, #8
 8000e9e:	3358      	adds	r3, #88	; 0x58
 8000ea0:	881a      	ldrh	r2, [r3, #0]
  
  return HAL_OK;
}
 8000ea2:	2000      	movs	r0, #0
  hpcd->Instance->BCDR |= USB_BCDR_DPPU;
 8000ea4:	430a      	orrs	r2, r1
 8000ea6:	801a      	strh	r2, [r3, #0]
}
 8000ea8:	4770      	bx	lr

08000eaa <HAL_PCD_SetAddress>:
  * @param  address new device address
  * @retval HAL status
  */
HAL_StatusTypeDef HAL_PCD_SetAddress(PCD_HandleTypeDef *hpcd, uint8_t address)
{
   __HAL_LOCK(hpcd); 
 8000eaa:	22f4      	movs	r2, #244	; 0xf4
{
 8000eac:	b510      	push	{r4, lr}
   __HAL_LOCK(hpcd); 
 8000eae:	0052      	lsls	r2, r2, #1
 8000eb0:	5c83      	ldrb	r3, [r0, r2]
{
 8000eb2:	0004      	movs	r4, r0
   __HAL_LOCK(hpcd); 
 8000eb4:	2002      	movs	r0, #2
 8000eb6:	2b01      	cmp	r3, #1
 8000eb8:	d009      	beq.n	8000ece <HAL_PCD_SetAddress+0x24>
 8000eba:	2301      	movs	r3, #1
 8000ebc:	54a3      	strb	r3, [r4, r2]

   if(address == 0U) 
 8000ebe:	2900      	cmp	r1, #0
 8000ec0:	d106      	bne.n	8000ed0 <HAL_PCD_SetAddress+0x26>
   {
     /* set device address and enable function */
     hpcd->Instance->DADDR = USB_DADDR_EF;
 8000ec2:	6823      	ldr	r3, [r4, #0]
 8000ec4:	3180      	adds	r1, #128	; 0x80
 8000ec6:	334c      	adds	r3, #76	; 0x4c
 8000ec8:	8019      	strh	r1, [r3, #0]
   else /* USB Address will be applied later */
   {
     hpcd->USB_Address = address;
   }

  __HAL_UNLOCK(hpcd);   
 8000eca:	2000      	movs	r0, #0
 8000ecc:	54a0      	strb	r0, [r4, r2]
  return HAL_OK;
}
 8000ece:	bd10      	pop	{r4, pc}
     hpcd->USB_Address = address;
 8000ed0:	1d63      	adds	r3, r4, #5
 8000ed2:	77d9      	strb	r1, [r3, #31]
 8000ed4:	e7f9      	b.n	8000eca <HAL_PCD_SetAddress+0x20>
	...

08000ed8 <HAL_PCD_EP_Open>:
  * @param  ep_mps endpoint max packert size
  * @param  ep_type endpoint type   
  * @retval HAL status
  */
HAL_StatusTypeDef HAL_PCD_EP_Open(PCD_HandleTypeDef *hpcd, uint8_t ep_addr, uint16_t ep_mps, uint8_t ep_type)
{
 8000ed8:	b5f0      	push	{r4, r5, r6, r7, lr}
 8000eda:	b085      	sub	sp, #20
 8000edc:	9001      	str	r0, [sp, #4]
  HAL_StatusTypeDef  ret = HAL_OK;
  PCD_EPTypeDef *ep;
  
  if ((ep_addr & 0x80U) == 0x80U)
 8000ede:	b248      	sxtb	r0, r1
 8000ee0:	241c      	movs	r4, #28
 8000ee2:	2800      	cmp	r0, #0
 8000ee4:	da25      	bge.n	8000f32 <HAL_PCD_EP_Open+0x5a>
  {
    ep = &hpcd->IN_ep[ep_addr & 0x7FU];
 8000ee6:	257f      	movs	r5, #127	; 0x7f
 8000ee8:	400d      	ands	r5, r1
 8000eea:	436c      	muls	r4, r5
 8000eec:	3428      	adds	r4, #40	; 0x28
  }
  else
  {
    ep = &hpcd->OUT_ep[ep_addr & 0x7FU];
 8000eee:	9d01      	ldr	r5, [sp, #4]
  }
  ep->num   = ep_addr & 0x7FU;
  
  ep->is_in = (0x80U & ep_addr) != 0U;
 8000ef0:	0fc0      	lsrs	r0, r0, #31
    ep = &hpcd->OUT_ep[ep_addr & 0x7FU];
 8000ef2:	192c      	adds	r4, r5, r4
  ep->num   = ep_addr & 0x7FU;
 8000ef4:	257f      	movs	r5, #127	; 0x7f
  ep->maxpacket = ep_mps;
  ep->type = ep_type;
 8000ef6:	70e3      	strb	r3, [r4, #3]
  
  __HAL_LOCK(hpcd); 
 8000ef8:	23f4      	movs	r3, #244	; 0xf4
  ep->num   = ep_addr & 0x7FU;
 8000efa:	4029      	ands	r1, r5
 8000efc:	7021      	strb	r1, [r4, #0]
  __HAL_LOCK(hpcd); 
 8000efe:	9901      	ldr	r1, [sp, #4]
  ep->is_in = (0x80U & ep_addr) != 0U;
 8000f00:	7060      	strb	r0, [r4, #1]
  ep->maxpacket = ep_mps;
 8000f02:	60e2      	str	r2, [r4, #12]
  __HAL_LOCK(hpcd); 
 8000f04:	005b      	lsls	r3, r3, #1
 8000f06:	5cc9      	ldrb	r1, [r1, r3]
 8000f08:	2002      	movs	r0, #2
 8000f0a:	2901      	cmp	r1, #1
 8000f0c:	d100      	bne.n	8000f10 <HAL_PCD_EP_Open+0x38>
 8000f0e:	e0ec      	b.n	80010ea <HAL_PCD_EP_Open+0x212>
 8000f10:	2101      	movs	r1, #1
 8000f12:	9801      	ldr	r0, [sp, #4]
 8000f14:	4d8a      	ldr	r5, [pc, #552]	; (8001140 <HAL_PCD_EP_Open+0x268>)
 8000f16:	54c1      	strb	r1, [r0, r3]

  /* initialize Endpoint */
  switch (ep->type)
 8000f18:	78e0      	ldrb	r0, [r4, #3]
 8000f1a:	9b01      	ldr	r3, [sp, #4]
 8000f1c:	681b      	ldr	r3, [r3, #0]
 8000f1e:	2803      	cmp	r0, #3
 8000f20:	d814      	bhi.n	8000f4c <HAL_PCD_EP_Open+0x74>
 8000f22:	7821      	ldrb	r1, [r4, #0]
 8000f24:	4e87      	ldr	r6, [pc, #540]	; (8001144 <HAL_PCD_EP_Open+0x26c>)
    break;
  case PCD_EP_TYPE_BULK:
    PCD_SET_EPTYPE(hpcd->Instance, ep->num, USB_EP_BULK);
    break;
  case PCD_EP_TYPE_INTR:
    PCD_SET_EPTYPE(hpcd->Instance, ep->num, USB_EP_INTERRUPT);
 8000f26:	0089      	lsls	r1, r1, #2
 8000f28:	1859      	adds	r1, r3, r1
  switch (ep->type)
 8000f2a:	f7ff f8ed 	bl	8000108 <__gnu_thumb1_case_uqi>
 8000f2e:	4906      	.short	0x4906
 8000f30:	450b      	.short	0x450b
    ep = &hpcd->OUT_ep[ep_addr & 0x7FU];
 8000f32:	434c      	muls	r4, r1
 8000f34:	3409      	adds	r4, #9
 8000f36:	34ff      	adds	r4, #255	; 0xff
 8000f38:	e7d9      	b.n	8000eee <HAL_PCD_EP_Open+0x16>
    PCD_SET_EPTYPE(hpcd->Instance, ep->num, USB_EP_CONTROL);
 8000f3a:	8808      	ldrh	r0, [r1, #0]
 8000f3c:	4030      	ands	r0, r6
 8000f3e:	4e82      	ldr	r6, [pc, #520]	; (8001148 <HAL_PCD_EP_Open+0x270>)
    break;
  case PCD_EP_TYPE_ISOC:
    PCD_SET_EPTYPE(hpcd->Instance, ep->num, USB_EP_ISOCHRONOUS);
 8000f40:	4306      	orrs	r6, r0
 8000f42:	e002      	b.n	8000f4a <HAL_PCD_EP_Open+0x72>
    PCD_SET_EPTYPE(hpcd->Instance, ep->num, USB_EP_BULK);
 8000f44:	8808      	ldrh	r0, [r1, #0]
 8000f46:	4006      	ands	r6, r0
 8000f48:	432e      	orrs	r6, r5
    PCD_SET_EPTYPE(hpcd->Instance, ep->num, USB_EP_ISOCHRONOUS);
 8000f4a:	800e      	strh	r6, [r1, #0]
    break;
  default:
    break;
  } 
  
  PCD_SET_EP_ADDRESS(hpcd->Instance, ep->num, ep->num);
 8000f4c:	7826      	ldrb	r6, [r4, #0]
 8000f4e:	4f7f      	ldr	r7, [pc, #508]	; (800114c <HAL_PCD_EP_Open+0x274>)
 8000f50:	00b0      	lsls	r0, r6, #2
 8000f52:	1818      	adds	r0, r3, r0
 8000f54:	8801      	ldrh	r1, [r0, #0]
 8000f56:	432e      	orrs	r6, r5
 8000f58:	4039      	ands	r1, r7
 8000f5a:	430e      	orrs	r6, r1
 8000f5c:	8006      	strh	r6, [r0, #0]
  
  if (ep->doublebuffer == 0U) 
 8000f5e:	7aa0      	ldrb	r0, [r4, #10]
 8000f60:	7821      	ldrb	r1, [r4, #0]
 8000f62:	46bc      	mov	ip, r7
 8000f64:	2800      	cmp	r0, #0
 8000f66:	d165      	bne.n	8001034 <HAL_PCD_EP_Open+0x15c>
 8000f68:	001e      	movs	r6, r3
  {
    if (ep->is_in)
 8000f6a:	7860      	ldrb	r0, [r4, #1]
 8000f6c:	3650      	adds	r6, #80	; 0x50
 8000f6e:	9003      	str	r0, [sp, #12]
 8000f70:	88a0      	ldrh	r0, [r4, #4]
 8000f72:	9002      	str	r0, [sp, #8]
 8000f74:	9803      	ldr	r0, [sp, #12]
 8000f76:	2800      	cmp	r0, #0
 8000f78:	d026      	beq.n	8000fc8 <HAL_PCD_EP_Open+0xf0>
    {
      /*Set the endpoint Transmit buffer address */
      PCD_SET_EP_TX_ADDRESS(hpcd->Instance, ep->num, ep->pmaadress);
 8000f7a:	8832      	ldrh	r2, [r6, #0]
 8000f7c:	00c9      	lsls	r1, r1, #3
 8000f7e:	1859      	adds	r1, r3, r1
 8000f80:	1889      	adds	r1, r1, r2
 8000f82:	2280      	movs	r2, #128	; 0x80
 8000f84:	00d2      	lsls	r2, r2, #3
 8000f86:	1889      	adds	r1, r1, r2
 8000f88:	2201      	movs	r2, #1
 8000f8a:	9802      	ldr	r0, [sp, #8]
 8000f8c:	4390      	bics	r0, r2
 8000f8e:	8008      	strh	r0, [r1, #0]
      PCD_CLEAR_TX_DTOG(hpcd->Instance, ep->num)
 8000f90:	7822      	ldrb	r2, [r4, #0]
 8000f92:	0092      	lsls	r2, r2, #2
 8000f94:	189a      	adds	r2, r3, r2
 8000f96:	8811      	ldrh	r1, [r2, #0]
 8000f98:	0648      	lsls	r0, r1, #25
 8000f9a:	d503      	bpl.n	8000fa4 <HAL_PCD_EP_Open+0xcc>
 8000f9c:	400f      	ands	r7, r1
 8000f9e:	496c      	ldr	r1, [pc, #432]	; (8001150 <HAL_PCD_EP_Open+0x278>)
 8000fa0:	430f      	orrs	r7, r1
 8000fa2:	8017      	strh	r7, [r2, #0]
      /* Configure NAK status for the Endpoint*/
      PCD_SET_EP_TX_STATUS(hpcd->Instance, ep->num, USB_EP_TX_NAK) 
 8000fa4:	7822      	ldrb	r2, [r4, #0]
 8000fa6:	496b      	ldr	r1, [pc, #428]	; (8001154 <HAL_PCD_EP_Open+0x27c>)
 8000fa8:	0092      	lsls	r2, r2, #2
 8000faa:	189b      	adds	r3, r3, r2
 8000fac:	881a      	ldrh	r2, [r3, #0]
 8000fae:	4011      	ands	r1, r2
 8000fb0:	2220      	movs	r2, #32
      PCD_SET_EP_RX_ADDRESS(hpcd->Instance, ep->num, ep->pmaadress);
      /*Set the endpoint Receive buffer counter*/
      PCD_SET_EP_RX_CNT(hpcd->Instance, ep->num, ep->maxpacket)
      PCD_CLEAR_RX_DTOG(hpcd->Instance, ep->num)
      /* Configure VALID status for the Endpoint*/
      PCD_SET_EP_RX_STATUS(hpcd->Instance, ep->num, USB_EP_RX_VALID)
 8000fb2:	404a      	eors	r2, r1
      PCD_CLEAR_RX_DTOG(hpcd->Instance, ep->num)
      PCD_CLEAR_TX_DTOG(hpcd->Instance, ep->num)
      PCD_RX_DTOG(hpcd->Instance, ep->num);
      /* Configure DISABLE status for the Endpoint*/
      PCD_SET_EP_TX_STATUS(hpcd->Instance, ep->num, USB_EP_TX_DIS)
      PCD_SET_EP_RX_STATUS(hpcd->Instance, ep->num, USB_EP_RX_DIS)
 8000fb4:	4315      	orrs	r5, r2
 8000fb6:	e092      	b.n	80010de <HAL_PCD_EP_Open+0x206>
    PCD_SET_EPTYPE(hpcd->Instance, ep->num, USB_EP_INTERRUPT);
 8000fb8:	8808      	ldrh	r0, [r1, #0]
 8000fba:	4030      	ands	r0, r6
 8000fbc:	4e66      	ldr	r6, [pc, #408]	; (8001158 <HAL_PCD_EP_Open+0x280>)
 8000fbe:	e7bf      	b.n	8000f40 <HAL_PCD_EP_Open+0x68>
    PCD_SET_EPTYPE(hpcd->Instance, ep->num, USB_EP_ISOCHRONOUS);
 8000fc0:	8808      	ldrh	r0, [r1, #0]
 8000fc2:	4030      	ands	r0, r6
 8000fc4:	4e65      	ldr	r6, [pc, #404]	; (800115c <HAL_PCD_EP_Open+0x284>)
 8000fc6:	e7bb      	b.n	8000f40 <HAL_PCD_EP_Open+0x68>
      PCD_SET_EP_RX_ADDRESS(hpcd->Instance, ep->num, ep->pmaadress);
 8000fc8:	8837      	ldrh	r7, [r6, #0]
 8000fca:	00c9      	lsls	r1, r1, #3
 8000fcc:	19c9      	adds	r1, r1, r7
 8000fce:	2701      	movs	r7, #1
 8000fd0:	4863      	ldr	r0, [pc, #396]	; (8001160 <HAL_PCD_EP_Open+0x288>)
 8000fd2:	1859      	adds	r1, r3, r1
 8000fd4:	1809      	adds	r1, r1, r0
 8000fd6:	9802      	ldr	r0, [sp, #8]
 8000fd8:	43b8      	bics	r0, r7
 8000fda:	8008      	strh	r0, [r1, #0]
      PCD_SET_EP_RX_CNT(hpcd->Instance, ep->num, ep->maxpacket)
 8000fdc:	7821      	ldrb	r1, [r4, #0]
 8000fde:	8830      	ldrh	r0, [r6, #0]
 8000fe0:	00c9      	lsls	r1, r1, #3
 8000fe2:	1809      	adds	r1, r1, r0
 8000fe4:	485f      	ldr	r0, [pc, #380]	; (8001164 <HAL_PCD_EP_Open+0x28c>)
 8000fe6:	1818      	adds	r0, r3, r0
 8000fe8:	1809      	adds	r1, r1, r0
 8000fea:	2a3e      	cmp	r2, #62	; 0x3e
 8000fec:	d91c      	bls.n	8001028 <HAL_PCD_EP_Open+0x150>
 8000fee:	0950      	lsrs	r0, r2, #5
 8000ff0:	06d2      	lsls	r2, r2, #27
 8000ff2:	d101      	bne.n	8000ff8 <HAL_PCD_EP_Open+0x120>
 8000ff4:	3801      	subs	r0, #1
 8000ff6:	b280      	uxth	r0, r0
 8000ff8:	4a5b      	ldr	r2, [pc, #364]	; (8001168 <HAL_PCD_EP_Open+0x290>)
 8000ffa:	0280      	lsls	r0, r0, #10
 8000ffc:	4310      	orrs	r0, r2
 8000ffe:	8008      	strh	r0, [r1, #0]
      PCD_CLEAR_RX_DTOG(hpcd->Instance, ep->num)
 8001000:	7822      	ldrb	r2, [r4, #0]
 8001002:	0092      	lsls	r2, r2, #2
 8001004:	189a      	adds	r2, r3, r2
 8001006:	8811      	ldrh	r1, [r2, #0]
 8001008:	0448      	lsls	r0, r1, #17
 800100a:	d504      	bpl.n	8001016 <HAL_PCD_EP_Open+0x13e>
 800100c:	4660      	mov	r0, ip
 800100e:	4001      	ands	r1, r0
 8001010:	4856      	ldr	r0, [pc, #344]	; (800116c <HAL_PCD_EP_Open+0x294>)
 8001012:	4301      	orrs	r1, r0
 8001014:	8011      	strh	r1, [r2, #0]
      PCD_SET_EP_RX_STATUS(hpcd->Instance, ep->num, USB_EP_RX_VALID)
 8001016:	7822      	ldrb	r2, [r4, #0]
 8001018:	4955      	ldr	r1, [pc, #340]	; (8001170 <HAL_PCD_EP_Open+0x298>)
 800101a:	0092      	lsls	r2, r2, #2
 800101c:	189b      	adds	r3, r3, r2
 800101e:	881a      	ldrh	r2, [r3, #0]
 8001020:	4011      	ands	r1, r2
 8001022:	22c0      	movs	r2, #192	; 0xc0
 8001024:	0192      	lsls	r2, r2, #6
 8001026:	e7c4      	b.n	8000fb2 <HAL_PCD_EP_Open+0xda>
      PCD_SET_EP_RX_CNT(hpcd->Instance, ep->num, ep->maxpacket)
 8001028:	0850      	lsrs	r0, r2, #1
 800102a:	423a      	tst	r2, r7
 800102c:	d000      	beq.n	8001030 <HAL_PCD_EP_Open+0x158>
 800102e:	3001      	adds	r0, #1
 8001030:	0280      	lsls	r0, r0, #10
 8001032:	e7e4      	b.n	8000ffe <HAL_PCD_EP_Open+0x126>
    PCD_SET_EP_DBUF(hpcd->Instance, ep->num);
 8001034:	0089      	lsls	r1, r1, #2
 8001036:	1859      	adds	r1, r3, r1
 8001038:	880a      	ldrh	r2, [r1, #0]
 800103a:	484e      	ldr	r0, [pc, #312]	; (8001174 <HAL_PCD_EP_Open+0x29c>)
 800103c:	4f45      	ldr	r7, [pc, #276]	; (8001154 <HAL_PCD_EP_Open+0x27c>)
 800103e:	4010      	ands	r0, r2
 8001040:	4a4d      	ldr	r2, [pc, #308]	; (8001178 <HAL_PCD_EP_Open+0x2a0>)
 8001042:	4302      	orrs	r2, r0
    PCD_SET_EP_DBUF_ADDR(hpcd->Instance, ep->num,ep->pmaaddr0, ep->pmaaddr1)
 8001044:	0018      	movs	r0, r3
    PCD_SET_EP_DBUF(hpcd->Instance, ep->num);
 8001046:	800a      	strh	r2, [r1, #0]
    PCD_SET_EP_DBUF_ADDR(hpcd->Instance, ep->num,ep->pmaaddr0, ep->pmaaddr1)
 8001048:	7822      	ldrb	r2, [r4, #0]
 800104a:	3050      	adds	r0, #80	; 0x50
 800104c:	8801      	ldrh	r1, [r0, #0]
 800104e:	00d2      	lsls	r2, r2, #3
 8001050:	1852      	adds	r2, r2, r1
 8001052:	2180      	movs	r1, #128	; 0x80
 8001054:	189a      	adds	r2, r3, r2
 8001056:	00c9      	lsls	r1, r1, #3
 8001058:	1852      	adds	r2, r2, r1
 800105a:	2101      	movs	r1, #1
 800105c:	88e6      	ldrh	r6, [r4, #6]
 800105e:	438e      	bics	r6, r1
 8001060:	8016      	strh	r6, [r2, #0]
 8001062:	2680      	movs	r6, #128	; 0x80
 8001064:	7822      	ldrb	r2, [r4, #0]
 8001066:	8800      	ldrh	r0, [r0, #0]
 8001068:	00d2      	lsls	r2, r2, #3
 800106a:	189a      	adds	r2, r3, r2
 800106c:	1812      	adds	r2, r2, r0
 800106e:	483c      	ldr	r0, [pc, #240]	; (8001160 <HAL_PCD_EP_Open+0x288>)
 8001070:	01f6      	lsls	r6, r6, #7
 8001072:	1812      	adds	r2, r2, r0
 8001074:	8920      	ldrh	r0, [r4, #8]
 8001076:	4388      	bics	r0, r1
 8001078:	8010      	strh	r0, [r2, #0]
 800107a:	7822      	ldrb	r2, [r4, #0]
    if (ep->is_in==0U)
 800107c:	7861      	ldrb	r1, [r4, #1]
      PCD_CLEAR_RX_DTOG(hpcd->Instance, ep->num)
 800107e:	0092      	lsls	r2, r2, #2
 8001080:	189a      	adds	r2, r3, r2
    if (ep->is_in==0U)
 8001082:	2900      	cmp	r1, #0
 8001084:	d133      	bne.n	80010ee <HAL_PCD_EP_Open+0x216>
      PCD_CLEAR_RX_DTOG(hpcd->Instance, ep->num)
 8001086:	8811      	ldrh	r1, [r2, #0]
 8001088:	4231      	tst	r1, r6
 800108a:	d004      	beq.n	8001096 <HAL_PCD_EP_Open+0x1be>
 800108c:	4660      	mov	r0, ip
 800108e:	4001      	ands	r1, r0
 8001090:	4836      	ldr	r0, [pc, #216]	; (800116c <HAL_PCD_EP_Open+0x294>)
 8001092:	4301      	orrs	r1, r0
 8001094:	8011      	strh	r1, [r2, #0]
      PCD_CLEAR_TX_DTOG(hpcd->Instance, ep->num)
 8001096:	7822      	ldrb	r2, [r4, #0]
 8001098:	492d      	ldr	r1, [pc, #180]	; (8001150 <HAL_PCD_EP_Open+0x278>)
 800109a:	0092      	lsls	r2, r2, #2
 800109c:	189a      	adds	r2, r3, r2
 800109e:	8810      	ldrh	r0, [r2, #0]
 80010a0:	0646      	lsls	r6, r0, #25
 80010a2:	d503      	bpl.n	80010ac <HAL_PCD_EP_Open+0x1d4>
 80010a4:	4666      	mov	r6, ip
 80010a6:	4030      	ands	r0, r6
 80010a8:	4308      	orrs	r0, r1
 80010aa:	8010      	strh	r0, [r2, #0]
      PCD_TX_DTOG(hpcd->Instance, ep->num);
 80010ac:	4666      	mov	r6, ip
 80010ae:	7822      	ldrb	r2, [r4, #0]
 80010b0:	0092      	lsls	r2, r2, #2
 80010b2:	189a      	adds	r2, r3, r2
 80010b4:	8810      	ldrh	r0, [r2, #0]
 80010b6:	4030      	ands	r0, r6
 80010b8:	4301      	orrs	r1, r0
 80010ba:	8011      	strh	r1, [r2, #0]
      PCD_SET_EP_RX_STATUS(hpcd->Instance, ep->num, USB_EP_RX_VALID)
 80010bc:	7822      	ldrb	r2, [r4, #0]
 80010be:	492c      	ldr	r1, [pc, #176]	; (8001170 <HAL_PCD_EP_Open+0x298>)
 80010c0:	0092      	lsls	r2, r2, #2
 80010c2:	189a      	adds	r2, r3, r2
 80010c4:	8810      	ldrh	r0, [r2, #0]
 80010c6:	4008      	ands	r0, r1
 80010c8:	21c0      	movs	r1, #192	; 0xc0
 80010ca:	0189      	lsls	r1, r1, #6
 80010cc:	4041      	eors	r1, r0
 80010ce:	4329      	orrs	r1, r5
 80010d0:	8011      	strh	r1, [r2, #0]
      PCD_SET_EP_TX_STATUS(hpcd->Instance, ep->num, USB_EP_TX_DIS)
 80010d2:	7822      	ldrb	r2, [r4, #0]
 80010d4:	0092      	lsls	r2, r2, #2
 80010d6:	189b      	adds	r3, r3, r2
 80010d8:	881a      	ldrh	r2, [r3, #0]
 80010da:	4017      	ands	r7, r2
 80010dc:	433d      	orrs	r5, r7
      PCD_SET_EP_RX_STATUS(hpcd->Instance, ep->num, USB_EP_RX_DIS)
 80010de:	801d      	strh	r5, [r3, #0]
    }
  } 
  
  __HAL_UNLOCK(hpcd);   
 80010e0:	23f4      	movs	r3, #244	; 0xf4
 80010e2:	2000      	movs	r0, #0
 80010e4:	9a01      	ldr	r2, [sp, #4]
 80010e6:	005b      	lsls	r3, r3, #1
 80010e8:	54d0      	strb	r0, [r2, r3]
  return ret;
}
 80010ea:	b005      	add	sp, #20
 80010ec:	bdf0      	pop	{r4, r5, r6, r7, pc}
      PCD_CLEAR_RX_DTOG(hpcd->Instance, ep->num)
 80010ee:	8811      	ldrh	r1, [r2, #0]
 80010f0:	481e      	ldr	r0, [pc, #120]	; (800116c <HAL_PCD_EP_Open+0x294>)
 80010f2:	4231      	tst	r1, r6
 80010f4:	d003      	beq.n	80010fe <HAL_PCD_EP_Open+0x226>
 80010f6:	4666      	mov	r6, ip
 80010f8:	4031      	ands	r1, r6
 80010fa:	4301      	orrs	r1, r0
 80010fc:	8011      	strh	r1, [r2, #0]
      PCD_CLEAR_TX_DTOG(hpcd->Instance, ep->num)
 80010fe:	7822      	ldrb	r2, [r4, #0]
 8001100:	0092      	lsls	r2, r2, #2
 8001102:	189a      	adds	r2, r3, r2
 8001104:	8811      	ldrh	r1, [r2, #0]
 8001106:	064e      	lsls	r6, r1, #25
 8001108:	d504      	bpl.n	8001114 <HAL_PCD_EP_Open+0x23c>
 800110a:	4666      	mov	r6, ip
 800110c:	4031      	ands	r1, r6
 800110e:	4e10      	ldr	r6, [pc, #64]	; (8001150 <HAL_PCD_EP_Open+0x278>)
 8001110:	4331      	orrs	r1, r6
 8001112:	8011      	strh	r1, [r2, #0]
      PCD_RX_DTOG(hpcd->Instance, ep->num);
 8001114:	4666      	mov	r6, ip
 8001116:	7822      	ldrb	r2, [r4, #0]
 8001118:	0092      	lsls	r2, r2, #2
 800111a:	189a      	adds	r2, r3, r2
 800111c:	8811      	ldrh	r1, [r2, #0]
 800111e:	4031      	ands	r1, r6
 8001120:	4308      	orrs	r0, r1
 8001122:	8010      	strh	r0, [r2, #0]
      PCD_SET_EP_TX_STATUS(hpcd->Instance, ep->num, USB_EP_TX_DIS)
 8001124:	7822      	ldrb	r2, [r4, #0]
 8001126:	0092      	lsls	r2, r2, #2
 8001128:	189a      	adds	r2, r3, r2
 800112a:	8811      	ldrh	r1, [r2, #0]
 800112c:	400f      	ands	r7, r1
 800112e:	432f      	orrs	r7, r5
 8001130:	8017      	strh	r7, [r2, #0]
      PCD_SET_EP_RX_STATUS(hpcd->Instance, ep->num, USB_EP_RX_DIS)
 8001132:	7822      	ldrb	r2, [r4, #0]
 8001134:	490e      	ldr	r1, [pc, #56]	; (8001170 <HAL_PCD_EP_Open+0x298>)
 8001136:	0092      	lsls	r2, r2, #2
 8001138:	189b      	adds	r3, r3, r2
 800113a:	881a      	ldrh	r2, [r3, #0]
 800113c:	400a      	ands	r2, r1
 800113e:	e739      	b.n	8000fb4 <HAL_PCD_EP_Open+0xdc>
 8001140:	ffff8080 	.word	0xffff8080
 8001144:	0000090f 	.word	0x0000090f
 8001148:	ffff8280 	.word	0xffff8280
 800114c:	00000f0f 	.word	0x00000f0f
 8001150:	ffff80c0 	.word	0xffff80c0
 8001154:	ffff8fbf 	.word	0xffff8fbf
 8001158:	ffff8680 	.word	0xffff8680
 800115c:	ffff8480 	.word	0xffff8480
 8001160:	00000404 	.word	0x00000404
 8001164:	00000406 	.word	0x00000406
 8001168:	ffff8000 	.word	0xffff8000
 800116c:	ffffc080 	.word	0xffffc080
 8001170:	ffffbf8f 	.word	0xffffbf8f
 8001174:	00000e0f 	.word	0x00000e0f
 8001178:	ffff8180 	.word	0xffff8180

0800117c <HAL_PCD_EP_Close>:
  */
HAL_StatusTypeDef HAL_PCD_EP_Close(PCD_HandleTypeDef *hpcd, uint8_t ep_addr)
{  
  PCD_EPTypeDef *ep;
  
  if ((ep_addr & 0x80U) == 0x80U)
 800117c:	b24a      	sxtb	r2, r1
{  
 800117e:	b5f0      	push	{r4, r5, r6, r7, lr}
 8001180:	231c      	movs	r3, #28
 8001182:	0005      	movs	r5, r0
  if ((ep_addr & 0x80U) == 0x80U)
 8001184:	2a00      	cmp	r2, #0
 8001186:	da31      	bge.n	80011ec <HAL_PCD_EP_Close+0x70>
  {
    ep = &hpcd->IN_ep[ep_addr & 0x7FU];
 8001188:	207f      	movs	r0, #127	; 0x7f
 800118a:	4008      	ands	r0, r1
 800118c:	4343      	muls	r3, r0
 800118e:	3328      	adds	r3, #40	; 0x28
  }
  else
  {
    ep = &hpcd->OUT_ep[ep_addr & 0x7FU];
 8001190:	18eb      	adds	r3, r5, r3
  }
  ep->num   = ep_addr & 0x7FU;
 8001192:	207f      	movs	r0, #127	; 0x7f
  
  ep->is_in = (0x80U & ep_addr) != 0U;
 8001194:	0fd2      	lsrs	r2, r2, #31
 8001196:	705a      	strb	r2, [r3, #1]
  
  __HAL_LOCK(hpcd); 
 8001198:	22f4      	movs	r2, #244	; 0xf4
  ep->num   = ep_addr & 0x7FU;
 800119a:	4001      	ands	r1, r0
 800119c:	7019      	strb	r1, [r3, #0]
  __HAL_LOCK(hpcd); 
 800119e:	0052      	lsls	r2, r2, #1
 80011a0:	5ca9      	ldrb	r1, [r5, r2]
 80011a2:	387d      	subs	r0, #125	; 0x7d
 80011a4:	2901      	cmp	r1, #1
 80011a6:	d020      	beq.n	80011ea <HAL_PCD_EP_Close+0x6e>
 80011a8:	2101      	movs	r1, #1
 80011aa:	54a9      	strb	r1, [r5, r2]

  if (ep->doublebuffer == 0U) 
 80011ac:	7a98      	ldrb	r0, [r3, #10]
 80011ae:	785e      	ldrb	r6, [r3, #1]
 80011b0:	6829      	ldr	r1, [r5, #0]
 80011b2:	781a      	ldrb	r2, [r3, #0]
 80011b4:	4c3b      	ldr	r4, [pc, #236]	; (80012a4 <HAL_PCD_EP_Close+0x128>)
 80011b6:	2800      	cmp	r0, #0
 80011b8:	d129      	bne.n	800120e <HAL_PCD_EP_Close+0x92>
  {
    if (ep->is_in)
    {
      PCD_CLEAR_TX_DTOG(hpcd->Instance, ep->num)
 80011ba:	0092      	lsls	r2, r2, #2
 80011bc:	188a      	adds	r2, r1, r2
 80011be:	8810      	ldrh	r0, [r2, #0]
    if (ep->is_in)
 80011c0:	2e00      	cmp	r6, #0
 80011c2:	d017      	beq.n	80011f4 <HAL_PCD_EP_Close+0x78>
      PCD_CLEAR_TX_DTOG(hpcd->Instance, ep->num)
 80011c4:	0646      	lsls	r6, r0, #25
 80011c6:	d504      	bpl.n	80011d2 <HAL_PCD_EP_Close+0x56>
 80011c8:	4e37      	ldr	r6, [pc, #220]	; (80012a8 <HAL_PCD_EP_Close+0x12c>)
 80011ca:	4030      	ands	r0, r6
 80011cc:	4e37      	ldr	r6, [pc, #220]	; (80012ac <HAL_PCD_EP_Close+0x130>)
 80011ce:	4330      	orrs	r0, r6
 80011d0:	8010      	strh	r0, [r2, #0]
      /* Configure DISABLE status for the Endpoint*/
      PCD_SET_EP_TX_STATUS(hpcd->Instance, ep->num, USB_EP_TX_DIS)
 80011d2:	781b      	ldrb	r3, [r3, #0]
 80011d4:	4a36      	ldr	r2, [pc, #216]	; (80012b0 <HAL_PCD_EP_Close+0x134>)
 80011d6:	009b      	lsls	r3, r3, #2
 80011d8:	18c9      	adds	r1, r1, r3
 80011da:	880b      	ldrh	r3, [r1, #0]
      PCD_CLEAR_RX_DTOG(hpcd->Instance, ep->num)
      PCD_CLEAR_TX_DTOG(hpcd->Instance, ep->num)
      PCD_RX_DTOG(hpcd->Instance, ep->num);
      /* Configure DISABLE status for the Endpoint*/
      PCD_SET_EP_TX_STATUS(hpcd->Instance, ep->num, USB_EP_TX_DIS)
      PCD_SET_EP_RX_STATUS(hpcd->Instance, ep->num, USB_EP_RX_DIS)
 80011dc:	4013      	ands	r3, r2
 80011de:	431c      	orrs	r4, r3
    }
  } 
  
  __HAL_UNLOCK(hpcd);   
 80011e0:	23f4      	movs	r3, #244	; 0xf4
 80011e2:	2000      	movs	r0, #0
 80011e4:	005b      	lsls	r3, r3, #1
      PCD_SET_EP_RX_STATUS(hpcd->Instance, ep->num, USB_EP_RX_DIS)
 80011e6:	800c      	strh	r4, [r1, #0]
  __HAL_UNLOCK(hpcd);   
 80011e8:	54e8      	strb	r0, [r5, r3]
  return HAL_OK;
}
 80011ea:	bdf0      	pop	{r4, r5, r6, r7, pc}
    ep = &hpcd->OUT_ep[ep_addr & 0x7FU];
 80011ec:	434b      	muls	r3, r1
 80011ee:	3309      	adds	r3, #9
 80011f0:	33ff      	adds	r3, #255	; 0xff
 80011f2:	e7cd      	b.n	8001190 <HAL_PCD_EP_Close+0x14>
      PCD_CLEAR_RX_DTOG(hpcd->Instance, ep->num)
 80011f4:	0446      	lsls	r6, r0, #17
 80011f6:	d504      	bpl.n	8001202 <HAL_PCD_EP_Close+0x86>
 80011f8:	4e2b      	ldr	r6, [pc, #172]	; (80012a8 <HAL_PCD_EP_Close+0x12c>)
 80011fa:	4030      	ands	r0, r6
 80011fc:	4e2d      	ldr	r6, [pc, #180]	; (80012b4 <HAL_PCD_EP_Close+0x138>)
 80011fe:	4330      	orrs	r0, r6
      PCD_SET_EP_TX_STATUS(hpcd->Instance, ep->num, USB_EP_TX_DIS)
 8001200:	8010      	strh	r0, [r2, #0]
      PCD_SET_EP_RX_STATUS(hpcd->Instance, ep->num, USB_EP_RX_DIS)
 8001202:	781b      	ldrb	r3, [r3, #0]
 8001204:	4a2c      	ldr	r2, [pc, #176]	; (80012b8 <HAL_PCD_EP_Close+0x13c>)
 8001206:	009b      	lsls	r3, r3, #2
 8001208:	18c9      	adds	r1, r1, r3
 800120a:	880b      	ldrh	r3, [r1, #0]
 800120c:	e7e6      	b.n	80011dc <HAL_PCD_EP_Close+0x60>
 800120e:	2780      	movs	r7, #128	; 0x80
      PCD_CLEAR_RX_DTOG(hpcd->Instance, ep->num)
 8001210:	0092      	lsls	r2, r2, #2
 8001212:	4825      	ldr	r0, [pc, #148]	; (80012a8 <HAL_PCD_EP_Close+0x12c>)
 8001214:	01ff      	lsls	r7, r7, #7
 8001216:	188a      	adds	r2, r1, r2
    if (ep->is_in==0U)
 8001218:	2e00      	cmp	r6, #0
 800121a:	d122      	bne.n	8001262 <HAL_PCD_EP_Close+0xe6>
      PCD_CLEAR_RX_DTOG(hpcd->Instance, ep->num)
 800121c:	8816      	ldrh	r6, [r2, #0]
 800121e:	423e      	tst	r6, r7
 8001220:	d003      	beq.n	800122a <HAL_PCD_EP_Close+0xae>
 8001222:	4f24      	ldr	r7, [pc, #144]	; (80012b4 <HAL_PCD_EP_Close+0x138>)
 8001224:	4006      	ands	r6, r0
 8001226:	433e      	orrs	r6, r7
 8001228:	8016      	strh	r6, [r2, #0]
      PCD_CLEAR_TX_DTOG(hpcd->Instance, ep->num)
 800122a:	781a      	ldrb	r2, [r3, #0]
 800122c:	4e1f      	ldr	r6, [pc, #124]	; (80012ac <HAL_PCD_EP_Close+0x130>)
 800122e:	0092      	lsls	r2, r2, #2
 8001230:	188a      	adds	r2, r1, r2
 8001232:	8817      	ldrh	r7, [r2, #0]
 8001234:	46b4      	mov	ip, r6
 8001236:	067e      	lsls	r6, r7, #25
 8001238:	d503      	bpl.n	8001242 <HAL_PCD_EP_Close+0xc6>
 800123a:	4666      	mov	r6, ip
 800123c:	4007      	ands	r7, r0
 800123e:	4337      	orrs	r7, r6
 8001240:	8017      	strh	r7, [r2, #0]
      PCD_TX_DTOG(hpcd->Instance, ep->num);
 8001242:	4666      	mov	r6, ip
 8001244:	781a      	ldrb	r2, [r3, #0]
 8001246:	0092      	lsls	r2, r2, #2
 8001248:	188a      	adds	r2, r1, r2
 800124a:	8817      	ldrh	r7, [r2, #0]
 800124c:	4038      	ands	r0, r7
 800124e:	4306      	orrs	r6, r0
 8001250:	8016      	strh	r6, [r2, #0]
      PCD_SET_EP_RX_STATUS(hpcd->Instance, ep->num, USB_EP_RX_DIS)
 8001252:	781a      	ldrb	r2, [r3, #0]
 8001254:	4e18      	ldr	r6, [pc, #96]	; (80012b8 <HAL_PCD_EP_Close+0x13c>)
 8001256:	0092      	lsls	r2, r2, #2
 8001258:	188a      	adds	r2, r1, r2
 800125a:	8810      	ldrh	r0, [r2, #0]
 800125c:	4030      	ands	r0, r6
 800125e:	4320      	orrs	r0, r4
 8001260:	e7b6      	b.n	80011d0 <HAL_PCD_EP_Close+0x54>
      PCD_CLEAR_RX_DTOG(hpcd->Instance, ep->num)
 8001262:	8816      	ldrh	r6, [r2, #0]
 8001264:	423e      	tst	r6, r7
 8001266:	d003      	beq.n	8001270 <HAL_PCD_EP_Close+0xf4>
 8001268:	4f12      	ldr	r7, [pc, #72]	; (80012b4 <HAL_PCD_EP_Close+0x138>)
 800126a:	4006      	ands	r6, r0
 800126c:	433e      	orrs	r6, r7
 800126e:	8016      	strh	r6, [r2, #0]
      PCD_CLEAR_TX_DTOG(hpcd->Instance, ep->num)
 8001270:	781a      	ldrb	r2, [r3, #0]
 8001272:	0092      	lsls	r2, r2, #2
 8001274:	188a      	adds	r2, r1, r2
 8001276:	8816      	ldrh	r6, [r2, #0]
 8001278:	0677      	lsls	r7, r6, #25
 800127a:	d503      	bpl.n	8001284 <HAL_PCD_EP_Close+0x108>
 800127c:	4f0b      	ldr	r7, [pc, #44]	; (80012ac <HAL_PCD_EP_Close+0x130>)
 800127e:	4006      	ands	r6, r0
 8001280:	433e      	orrs	r6, r7
 8001282:	8016      	strh	r6, [r2, #0]
      PCD_RX_DTOG(hpcd->Instance, ep->num);
 8001284:	781a      	ldrb	r2, [r3, #0]
 8001286:	4f0b      	ldr	r7, [pc, #44]	; (80012b4 <HAL_PCD_EP_Close+0x138>)
 8001288:	0092      	lsls	r2, r2, #2
 800128a:	188a      	adds	r2, r1, r2
 800128c:	8816      	ldrh	r6, [r2, #0]
 800128e:	4030      	ands	r0, r6
 8001290:	4307      	orrs	r7, r0
 8001292:	8017      	strh	r7, [r2, #0]
      PCD_SET_EP_TX_STATUS(hpcd->Instance, ep->num, USB_EP_TX_DIS)
 8001294:	781a      	ldrb	r2, [r3, #0]
 8001296:	4e06      	ldr	r6, [pc, #24]	; (80012b0 <HAL_PCD_EP_Close+0x134>)
 8001298:	0092      	lsls	r2, r2, #2
 800129a:	188a      	adds	r2, r1, r2
 800129c:	8810      	ldrh	r0, [r2, #0]
 800129e:	4030      	ands	r0, r6
 80012a0:	4320      	orrs	r0, r4
 80012a2:	e7ad      	b.n	8001200 <HAL_PCD_EP_Close+0x84>
 80012a4:	ffff8080 	.word	0xffff8080
 80012a8:	00000f0f 	.word	0x00000f0f
 80012ac:	ffff80c0 	.word	0xffff80c0
 80012b0:	ffff8fbf 	.word	0xffff8fbf
 80012b4:	ffffc080 	.word	0xffffc080
 80012b8:	ffffbf8f 	.word	0xffffbf8f

080012bc <HAL_PCD_EP_Receive>:
  * @param  pBuf pointer to the reception buffer   
  * @param  len amount of data to be received
  * @retval HAL status
  */
HAL_StatusTypeDef HAL_PCD_EP_Receive(PCD_HandleTypeDef *hpcd, uint8_t ep_addr, uint8_t *pBuf, uint32_t len)
{
 80012bc:	b5f0      	push	{r4, r5, r6, r7, lr}
 80012be:	247f      	movs	r4, #127	; 0x7f
 80012c0:	4021      	ands	r1, r4
 PCD_EPTypeDef *ep;
  
  ep = &hpcd->OUT_ep[ep_addr & 0x7FU];
  
  /*setup and start the Xfer */
  ep->xfer_buff = pBuf;  
 80012c2:	3c63      	subs	r4, #99	; 0x63
 80012c4:	0027      	movs	r7, r4
 80012c6:	434f      	muls	r7, r1
 80012c8:	19c7      	adds	r7, r0, r7
 80012ca:	003d      	movs	r5, r7
  ep->xfer_len = len;
  ep->xfer_count = 0U;
 80012cc:	2600      	movs	r6, #0
  ep->xfer_buff = pBuf;  
 80012ce:	35fc      	adds	r5, #252	; 0xfc
  ep->is_in = 0U;
 80012d0:	37ff      	adds	r7, #255	; 0xff
  ep->xfer_buff = pBuf;  
 80012d2:	61ea      	str	r2, [r5, #28]
  ep->xfer_len = len;
 80012d4:	622b      	str	r3, [r5, #32]
  ep->xfer_count = 0U;
 80012d6:	626e      	str	r6, [r5, #36]	; 0x24
  ep->is_in = 0U;
 80012d8:	72be      	strb	r6, [r7, #10]
  ep->num = ep_addr & 0x7FU;
 80012da:	7279      	strb	r1, [r7, #9]
   
  /* Multi packet transfer*/
  if (ep->xfer_len > ep->maxpacket)
 80012dc:	69aa      	ldr	r2, [r5, #24]
 80012de:	4293      	cmp	r3, r2
 80012e0:	d92f      	bls.n	8001342 <HAL_PCD_EP_Receive+0x86>
  {
    len=ep->maxpacket;
    ep->xfer_len-=len; 
 80012e2:	1a9b      	subs	r3, r3, r2
 80012e4:	622b      	str	r3, [r5, #32]
    len=ep->xfer_len;
    ep->xfer_len =0U;
  }
  
  /* configure and validate Rx endpoint */
  if (ep->doublebuffer == 0) 
 80012e6:	434c      	muls	r4, r1
 80012e8:	1904      	adds	r4, r0, r4
 80012ea:	34ff      	adds	r4, #255	; 0xff
 80012ec:	7ce5      	ldrb	r5, [r4, #19]
 80012ee:	6803      	ldr	r3, [r0, #0]
 80012f0:	2d00      	cmp	r5, #0
 80012f2:	d129      	bne.n	8001348 <HAL_PCD_EP_Receive+0x8c>
  {
    /*Set RX buffer count*/
    PCD_SET_EP_RX_CNT(hpcd->Instance, ep->num, len)
 80012f4:	001d      	movs	r5, r3
 80012f6:	3550      	adds	r5, #80	; 0x50
 80012f8:	882e      	ldrh	r6, [r5, #0]
 80012fa:	7a65      	ldrb	r5, [r4, #9]
 80012fc:	00ed      	lsls	r5, r5, #3
 80012fe:	19ad      	adds	r5, r5, r6
  }
  else
  {
    /*Set the Double buffer counter*/
    PCD_SET_EP_DBUF_CNT(hpcd->Instance, ep->num, ep->is_in, len)
 8001300:	4c39      	ldr	r4, [pc, #228]	; (80013e8 <HAL_PCD_EP_Receive+0x12c>)
 8001302:	191c      	adds	r4, r3, r4
 8001304:	192d      	adds	r5, r5, r4
 8001306:	2a3e      	cmp	r2, #62	; 0x3e
 8001308:	d959      	bls.n	80013be <HAL_PCD_EP_Receive+0x102>
 800130a:	0954      	lsrs	r4, r2, #5
 800130c:	b2a4      	uxth	r4, r4
 800130e:	06d2      	lsls	r2, r2, #27
 8001310:	d101      	bne.n	8001316 <HAL_PCD_EP_Receive+0x5a>
 8001312:	3c01      	subs	r4, #1
 8001314:	b2a4      	uxth	r4, r4
 8001316:	4a35      	ldr	r2, [pc, #212]	; (80013ec <HAL_PCD_EP_Receive+0x130>)
 8001318:	02a4      	lsls	r4, r4, #10
 800131a:	4314      	orrs	r4, r2
 800131c:	802c      	strh	r4, [r5, #0]
  } 
  
  PCD_SET_EP_RX_STATUS(hpcd->Instance, ep->num, USB_EP_RX_VALID)
 800131e:	221c      	movs	r2, #28
 8001320:	4351      	muls	r1, r2
 8001322:	1840      	adds	r0, r0, r1
 8001324:	30ff      	adds	r0, #255	; 0xff
 8001326:	7a42      	ldrb	r2, [r0, #9]
 8001328:	0092      	lsls	r2, r2, #2
 800132a:	189b      	adds	r3, r3, r2
 800132c:	8819      	ldrh	r1, [r3, #0]
 800132e:	4a30      	ldr	r2, [pc, #192]	; (80013f0 <HAL_PCD_EP_Receive+0x134>)
  
  return HAL_OK;
}
 8001330:	2000      	movs	r0, #0
  PCD_SET_EP_RX_STATUS(hpcd->Instance, ep->num, USB_EP_RX_VALID)
 8001332:	4011      	ands	r1, r2
 8001334:	22c0      	movs	r2, #192	; 0xc0
 8001336:	0192      	lsls	r2, r2, #6
 8001338:	4051      	eors	r1, r2
 800133a:	4a2e      	ldr	r2, [pc, #184]	; (80013f4 <HAL_PCD_EP_Receive+0x138>)
 800133c:	430a      	orrs	r2, r1
 800133e:	801a      	strh	r2, [r3, #0]
}
 8001340:	bdf0      	pop	{r4, r5, r6, r7, pc}
    ep->xfer_len =0U;
 8001342:	622e      	str	r6, [r5, #32]
 8001344:	001a      	movs	r2, r3
 8001346:	e7ce      	b.n	80012e6 <HAL_PCD_EP_Receive+0x2a>
    PCD_SET_EP_DBUF_CNT(hpcd->Instance, ep->num, ep->is_in, len)
 8001348:	7aa5      	ldrb	r5, [r4, #10]
 800134a:	2d00      	cmp	r5, #0
 800134c:	d12a      	bne.n	80013a4 <HAL_PCD_EP_Receive+0xe8>
 800134e:	001d      	movs	r5, r3
 8001350:	3550      	adds	r5, #80	; 0x50
 8001352:	882e      	ldrh	r6, [r5, #0]
 8001354:	7a65      	ldrb	r5, [r4, #9]
 8001356:	4c28      	ldr	r4, [pc, #160]	; (80013f8 <HAL_PCD_EP_Receive+0x13c>)
 8001358:	00ed      	lsls	r5, r5, #3
 800135a:	19ad      	adds	r5, r5, r6
 800135c:	191c      	adds	r4, r3, r4
 800135e:	192d      	adds	r5, r5, r4
 8001360:	2a3e      	cmp	r2, #62	; 0x3e
 8001362:	d917      	bls.n	8001394 <HAL_PCD_EP_Receive+0xd8>
 8001364:	0954      	lsrs	r4, r2, #5
 8001366:	b2a4      	uxth	r4, r4
 8001368:	06d6      	lsls	r6, r2, #27
 800136a:	d101      	bne.n	8001370 <HAL_PCD_EP_Receive+0xb4>
 800136c:	3c01      	subs	r4, #1
 800136e:	b2a4      	uxth	r4, r4
 8001370:	4e1e      	ldr	r6, [pc, #120]	; (80013ec <HAL_PCD_EP_Receive+0x130>)
 8001372:	02a4      	lsls	r4, r4, #10
 8001374:	4334      	orrs	r4, r6
 8001376:	802c      	strh	r4, [r5, #0]
 8001378:	261c      	movs	r6, #28
 800137a:	434e      	muls	r6, r1
 800137c:	1986      	adds	r6, r0, r6
 800137e:	36ff      	adds	r6, #255	; 0xff
 8001380:	7ab4      	ldrb	r4, [r6, #10]
 8001382:	2c00      	cmp	r4, #0
 8001384:	d123      	bne.n	80013ce <HAL_PCD_EP_Receive+0x112>
 8001386:	001c      	movs	r4, r3
 8001388:	7a75      	ldrb	r5, [r6, #9]
 800138a:	3450      	adds	r4, #80	; 0x50
 800138c:	8824      	ldrh	r4, [r4, #0]
 800138e:	00ed      	lsls	r5, r5, #3
 8001390:	192d      	adds	r5, r5, r4
 8001392:	e7b5      	b.n	8001300 <HAL_PCD_EP_Receive+0x44>
 8001394:	0854      	lsrs	r4, r2, #1
 8001396:	b2a4      	uxth	r4, r4
 8001398:	07d6      	lsls	r6, r2, #31
 800139a:	d501      	bpl.n	80013a0 <HAL_PCD_EP_Receive+0xe4>
 800139c:	3401      	adds	r4, #1
 800139e:	b2a4      	uxth	r4, r4
 80013a0:	02a4      	lsls	r4, r4, #10
 80013a2:	e7e8      	b.n	8001376 <HAL_PCD_EP_Receive+0xba>
 80013a4:	2d01      	cmp	r5, #1
 80013a6:	d1e7      	bne.n	8001378 <HAL_PCD_EP_Receive+0xbc>
 80013a8:	001d      	movs	r5, r3
 80013aa:	7a64      	ldrb	r4, [r4, #9]
 80013ac:	3550      	adds	r5, #80	; 0x50
 80013ae:	882d      	ldrh	r5, [r5, #0]
 80013b0:	00e4      	lsls	r4, r4, #3
 80013b2:	191c      	adds	r4, r3, r4
 80013b4:	1964      	adds	r4, r4, r5
 80013b6:	4d10      	ldr	r5, [pc, #64]	; (80013f8 <HAL_PCD_EP_Receive+0x13c>)
 80013b8:	1964      	adds	r4, r4, r5
 80013ba:	8022      	strh	r2, [r4, #0]
 80013bc:	e7dc      	b.n	8001378 <HAL_PCD_EP_Receive+0xbc>
 80013be:	0854      	lsrs	r4, r2, #1
 80013c0:	b2a4      	uxth	r4, r4
 80013c2:	07d2      	lsls	r2, r2, #31
 80013c4:	d501      	bpl.n	80013ca <HAL_PCD_EP_Receive+0x10e>
 80013c6:	3401      	adds	r4, #1
 80013c8:	b2a4      	uxth	r4, r4
 80013ca:	02a4      	lsls	r4, r4, #10
 80013cc:	e7a6      	b.n	800131c <HAL_PCD_EP_Receive+0x60>
 80013ce:	2c01      	cmp	r4, #1
 80013d0:	d1a5      	bne.n	800131e <HAL_PCD_EP_Receive+0x62>
 80013d2:	001c      	movs	r4, r3
 80013d4:	3450      	adds	r4, #80	; 0x50
 80013d6:	8825      	ldrh	r5, [r4, #0]
 80013d8:	7a74      	ldrb	r4, [r6, #9]
 80013da:	00e4      	lsls	r4, r4, #3
 80013dc:	191c      	adds	r4, r3, r4
 80013de:	1964      	adds	r4, r4, r5
 80013e0:	4d01      	ldr	r5, [pc, #4]	; (80013e8 <HAL_PCD_EP_Receive+0x12c>)
 80013e2:	1964      	adds	r4, r4, r5
 80013e4:	8022      	strh	r2, [r4, #0]
 80013e6:	e79a      	b.n	800131e <HAL_PCD_EP_Receive+0x62>
 80013e8:	00000406 	.word	0x00000406
 80013ec:	ffff8000 	.word	0xffff8000
 80013f0:	ffffbf8f 	.word	0xffffbf8f
 80013f4:	ffff8080 	.word	0xffff8080
 80013f8:	00000402 	.word	0x00000402

080013fc <HAL_PCD_EP_GetRxCount>:
  * @param  ep_addr endpoint address
  * @retval Data Size
  */
uint16_t HAL_PCD_EP_GetRxCount(PCD_HandleTypeDef *hpcd, uint8_t ep_addr)
{
  return hpcd->OUT_ep[ep_addr & 0x7FU].xfer_count;
 80013fc:	237f      	movs	r3, #127	; 0x7f
 80013fe:	400b      	ands	r3, r1
 8001400:	211c      	movs	r1, #28
 8001402:	4359      	muls	r1, r3
 8001404:	1840      	adds	r0, r0, r1
 8001406:	30fc      	adds	r0, #252	; 0xfc
 8001408:	6a40      	ldr	r0, [r0, #36]	; 0x24
 800140a:	b280      	uxth	r0, r0
}
 800140c:	4770      	bx	lr
	...

08001410 <HAL_PCD_EP_SetStall>:
  */
HAL_StatusTypeDef HAL_PCD_EP_SetStall(PCD_HandleTypeDef *hpcd, uint8_t ep_addr)
{
  PCD_EPTypeDef *ep;
   
  __HAL_LOCK(hpcd); 
 8001410:	23f4      	movs	r3, #244	; 0xf4
{
 8001412:	b510      	push	{r4, lr}
  __HAL_LOCK(hpcd); 
 8001414:	005b      	lsls	r3, r3, #1
 8001416:	5cc4      	ldrb	r4, [r0, r3]
{
 8001418:	0002      	movs	r2, r0
  __HAL_LOCK(hpcd); 
 800141a:	2002      	movs	r0, #2
 800141c:	2c01      	cmp	r4, #1
 800141e:	d021      	beq.n	8001464 <HAL_PCD_EP_SetStall+0x54>
 8001420:	3801      	subs	r0, #1
 8001422:	54d0      	strb	r0, [r2, r3]
 8001424:	3bcd      	subs	r3, #205	; 0xcd
   
  if ((0x80U & ep_addr) == 0x80U)
 8001426:	b248      	sxtb	r0, r1
 8001428:	3bff      	subs	r3, #255	; 0xff
 800142a:	2800      	cmp	r0, #0
 800142c:	da1b      	bge.n	8001466 <HAL_PCD_EP_SetStall+0x56>
  {
    ep = &hpcd->IN_ep[ep_addr & 0x7FU];
 800142e:	247f      	movs	r4, #127	; 0x7f
 8001430:	400c      	ands	r4, r1
 8001432:	4363      	muls	r3, r4
 8001434:	3328      	adds	r3, #40	; 0x28
  else
  {
    ep = &hpcd->OUT_ep[ep_addr];
  }
  
  ep->is_stall = 1;
 8001436:	2401      	movs	r4, #1
    ep = &hpcd->OUT_ep[ep_addr];
 8001438:	18d3      	adds	r3, r2, r3
  ep->is_stall = 1;
 800143a:	709c      	strb	r4, [r3, #2]
  ep->num   = ep_addr & 0x7FU;
 800143c:	347e      	adds	r4, #126	; 0x7e
 800143e:	4021      	ands	r1, r4
  ep->is_in = ((ep_addr & 0x80U) == 0x80U);
 8001440:	0fc4      	lsrs	r4, r0, #31
 8001442:	705c      	strb	r4, [r3, #1]
  ep->num   = ep_addr & 0x7FU;
 8001444:	7019      	strb	r1, [r3, #0]
 8001446:	6813      	ldr	r3, [r2, #0]
 8001448:	4c11      	ldr	r4, [pc, #68]	; (8001490 <HAL_PCD_EP_SetStall+0x80>)
  
  if (ep->num == 0U)
 800144a:	2900      	cmp	r1, #0
 800144c:	d10f      	bne.n	800146e <HAL_PCD_EP_SetStall+0x5e>
  {
    /* This macro sets STALL status for RX & TX*/ 
    PCD_SET_EP_TXRX_STATUS(hpcd->Instance, ep->num, USB_EP_RX_STALL, USB_EP_TX_STALL)
 800144e:	8819      	ldrh	r1, [r3, #0]
 8001450:	4810      	ldr	r0, [pc, #64]	; (8001494 <HAL_PCD_EP_SetStall+0x84>)
 8001452:	4008      	ands	r0, r1
 8001454:	4910      	ldr	r1, [pc, #64]	; (8001498 <HAL_PCD_EP_SetStall+0x88>)
 8001456:	4041      	eors	r1, r0
 8001458:	430c      	orrs	r4, r1
 800145a:	801c      	strh	r4, [r3, #0]
    else
    {
      PCD_SET_EP_RX_STATUS(hpcd->Instance, ep->num , USB_EP_RX_STALL)
    }
  }
  __HAL_UNLOCK(hpcd); 
 800145c:	23f4      	movs	r3, #244	; 0xf4
 800145e:	2000      	movs	r0, #0
 8001460:	005b      	lsls	r3, r3, #1
 8001462:	54d0      	strb	r0, [r2, r3]
  
  return HAL_OK;
}
 8001464:	bd10      	pop	{r4, pc}
    ep = &hpcd->OUT_ep[ep_addr];
 8001466:	434b      	muls	r3, r1
 8001468:	3309      	adds	r3, #9
 800146a:	33ff      	adds	r3, #255	; 0xff
 800146c:	e7e3      	b.n	8001436 <HAL_PCD_EP_SetStall+0x26>
 800146e:	0089      	lsls	r1, r1, #2
      PCD_SET_EP_TX_STATUS(hpcd->Instance, ep->num , USB_EP_TX_STALL)
 8001470:	1859      	adds	r1, r3, r1
 8001472:	880b      	ldrh	r3, [r1, #0]
    if (ep->is_in)
 8001474:	2800      	cmp	r0, #0
 8001476:	da06      	bge.n	8001486 <HAL_PCD_EP_SetStall+0x76>
      PCD_SET_EP_TX_STATUS(hpcd->Instance, ep->num , USB_EP_TX_STALL)
 8001478:	4808      	ldr	r0, [pc, #32]	; (800149c <HAL_PCD_EP_SetStall+0x8c>)
 800147a:	4018      	ands	r0, r3
 800147c:	2310      	movs	r3, #16
      PCD_SET_EP_RX_STATUS(hpcd->Instance, ep->num , USB_EP_RX_STALL)
 800147e:	4043      	eors	r3, r0
 8001480:	431c      	orrs	r4, r3
 8001482:	800c      	strh	r4, [r1, #0]
 8001484:	e7ea      	b.n	800145c <HAL_PCD_EP_SetStall+0x4c>
 8001486:	4806      	ldr	r0, [pc, #24]	; (80014a0 <HAL_PCD_EP_SetStall+0x90>)
 8001488:	4018      	ands	r0, r3
 800148a:	2380      	movs	r3, #128	; 0x80
 800148c:	015b      	lsls	r3, r3, #5
 800148e:	e7f6      	b.n	800147e <HAL_PCD_EP_SetStall+0x6e>
 8001490:	ffff8080 	.word	0xffff8080
 8001494:	ffffbfbf 	.word	0xffffbfbf
 8001498:	00001010 	.word	0x00001010
 800149c:	ffff8fbf 	.word	0xffff8fbf
 80014a0:	ffffbf8f 	.word	0xffffbf8f

080014a4 <HAL_PCD_EP_ClrStall>:
  */
HAL_StatusTypeDef HAL_PCD_EP_ClrStall(PCD_HandleTypeDef *hpcd, uint8_t ep_addr)
{
  PCD_EPTypeDef *ep;
  
  if ((0x80U & ep_addr) == 0x80U)
 80014a4:	b24a      	sxtb	r2, r1
{
 80014a6:	b570      	push	{r4, r5, r6, lr}
 80014a8:	231c      	movs	r3, #28
 80014aa:	0004      	movs	r4, r0
  if ((0x80U & ep_addr) == 0x80U)
 80014ac:	2a00      	cmp	r2, #0
 80014ae:	da32      	bge.n	8001516 <HAL_PCD_EP_ClrStall+0x72>
  {
    ep = &hpcd->IN_ep[ep_addr & 0x7FU];
 80014b0:	207f      	movs	r0, #127	; 0x7f
 80014b2:	4008      	ands	r0, r1
 80014b4:	4343      	muls	r3, r0
 80014b6:	3328      	adds	r3, #40	; 0x28
  else
  {
    ep = &hpcd->OUT_ep[ep_addr];
  }
  
  ep->is_stall = 0U;
 80014b8:	2000      	movs	r0, #0
    ep = &hpcd->OUT_ep[ep_addr];
 80014ba:	18e3      	adds	r3, r4, r3
  ep->num   = ep_addr & 0x7FU;
  ep->is_in = ((ep_addr & 0x80U) == 0x80U);
 80014bc:	0fd2      	lsrs	r2, r2, #31
 80014be:	705a      	strb	r2, [r3, #1]
  
  __HAL_LOCK(hpcd); 
 80014c0:	22f4      	movs	r2, #244	; 0xf4
  ep->is_stall = 0U;
 80014c2:	7098      	strb	r0, [r3, #2]
  ep->num   = ep_addr & 0x7FU;
 80014c4:	307f      	adds	r0, #127	; 0x7f
 80014c6:	4001      	ands	r1, r0
 80014c8:	7019      	strb	r1, [r3, #0]
  __HAL_LOCK(hpcd); 
 80014ca:	0052      	lsls	r2, r2, #1
 80014cc:	5ca1      	ldrb	r1, [r4, r2]
 80014ce:	387d      	subs	r0, #125	; 0x7d
 80014d0:	2901      	cmp	r1, #1
 80014d2:	d01f      	beq.n	8001514 <HAL_PCD_EP_ClrStall+0x70>
 80014d4:	2101      	movs	r1, #1
 80014d6:	54a1      	strb	r1, [r4, r2]
 80014d8:	781a      	ldrb	r2, [r3, #0]
 80014da:	6820      	ldr	r0, [r4, #0]
  
  if (ep->is_in)
 80014dc:	785d      	ldrb	r5, [r3, #1]
  {
    PCD_CLEAR_TX_DTOG(hpcd->Instance, ep->num)
 80014de:	0092      	lsls	r2, r2, #2
 80014e0:	4917      	ldr	r1, [pc, #92]	; (8001540 <HAL_PCD_EP_ClrStall+0x9c>)
 80014e2:	1882      	adds	r2, r0, r2
  if (ep->is_in)
 80014e4:	2d00      	cmp	r5, #0
 80014e6:	d01a      	beq.n	800151e <HAL_PCD_EP_ClrStall+0x7a>
    PCD_CLEAR_TX_DTOG(hpcd->Instance, ep->num)
 80014e8:	8815      	ldrh	r5, [r2, #0]
 80014ea:	066e      	lsls	r6, r5, #25
 80014ec:	d504      	bpl.n	80014f8 <HAL_PCD_EP_ClrStall+0x54>
 80014ee:	4e15      	ldr	r6, [pc, #84]	; (8001544 <HAL_PCD_EP_ClrStall+0xa0>)
 80014f0:	4035      	ands	r5, r6
 80014f2:	4e15      	ldr	r6, [pc, #84]	; (8001548 <HAL_PCD_EP_ClrStall+0xa4>)
 80014f4:	4335      	orrs	r5, r6
 80014f6:	8015      	strh	r5, [r2, #0]
    PCD_SET_EP_TX_STATUS(hpcd->Instance, ep->num, USB_EP_TX_VALID)
 80014f8:	781b      	ldrb	r3, [r3, #0]
 80014fa:	009b      	lsls	r3, r3, #2
 80014fc:	18c3      	adds	r3, r0, r3
 80014fe:	881a      	ldrh	r2, [r3, #0]
 8001500:	4812      	ldr	r0, [pc, #72]	; (800154c <HAL_PCD_EP_ClrStall+0xa8>)
 8001502:	4010      	ands	r0, r2
 8001504:	2230      	movs	r2, #48	; 0x30
  }
  else
  {
    PCD_CLEAR_RX_DTOG(hpcd->Instance, ep->num)
    PCD_SET_EP_RX_STATUS(hpcd->Instance, ep->num, USB_EP_RX_VALID)
 8001506:	4042      	eors	r2, r0
 8001508:	4311      	orrs	r1, r2
 800150a:	8019      	strh	r1, [r3, #0]
  }
  __HAL_UNLOCK(hpcd); 
 800150c:	23f4      	movs	r3, #244	; 0xf4
 800150e:	2000      	movs	r0, #0
 8001510:	005b      	lsls	r3, r3, #1
 8001512:	54e0      	strb	r0, [r4, r3]
    
  return HAL_OK;
}
 8001514:	bd70      	pop	{r4, r5, r6, pc}
    ep = &hpcd->OUT_ep[ep_addr];
 8001516:	434b      	muls	r3, r1
 8001518:	3309      	adds	r3, #9
 800151a:	33ff      	adds	r3, #255	; 0xff
 800151c:	e7cc      	b.n	80014b8 <HAL_PCD_EP_ClrStall+0x14>
    PCD_CLEAR_RX_DTOG(hpcd->Instance, ep->num)
 800151e:	8815      	ldrh	r5, [r2, #0]
 8001520:	046e      	lsls	r6, r5, #17
 8001522:	d504      	bpl.n	800152e <HAL_PCD_EP_ClrStall+0x8a>
 8001524:	4e07      	ldr	r6, [pc, #28]	; (8001544 <HAL_PCD_EP_ClrStall+0xa0>)
 8001526:	4035      	ands	r5, r6
 8001528:	4e09      	ldr	r6, [pc, #36]	; (8001550 <HAL_PCD_EP_ClrStall+0xac>)
 800152a:	4335      	orrs	r5, r6
 800152c:	8015      	strh	r5, [r2, #0]
    PCD_SET_EP_RX_STATUS(hpcd->Instance, ep->num, USB_EP_RX_VALID)
 800152e:	781b      	ldrb	r3, [r3, #0]
 8001530:	009b      	lsls	r3, r3, #2
 8001532:	18c3      	adds	r3, r0, r3
 8001534:	881a      	ldrh	r2, [r3, #0]
 8001536:	4807      	ldr	r0, [pc, #28]	; (8001554 <HAL_PCD_EP_ClrStall+0xb0>)
 8001538:	4010      	ands	r0, r2
 800153a:	22c0      	movs	r2, #192	; 0xc0
 800153c:	0192      	lsls	r2, r2, #6
 800153e:	e7e2      	b.n	8001506 <HAL_PCD_EP_ClrStall+0x62>
 8001540:	ffff8080 	.word	0xffff8080
 8001544:	00000f0f 	.word	0x00000f0f
 8001548:	ffff80c0 	.word	0xffff80c0
 800154c:	ffff8fbf 	.word	0xffff8fbf
 8001550:	ffffc080 	.word	0xffffc080
 8001554:	ffffbf8f 	.word	0xffffbf8f

08001558 <PCD_WritePMA>:
  * @param   wPMABufAddr address into PMA.
  * @param   wNBytes no. of bytes to be copied.
  * @retval None
  */
void PCD_WritePMA(USB_TypeDef  *USBx, uint8_t *pbUsrBuf, uint16_t wPMABufAddr, uint16_t wNBytes)
{
 8001558:	b530      	push	{r4, r5, lr}
  uint32_t n =  ((uint32_t)((uint32_t)wNBytes + 1U)) >> 1U;
  uint32_t i;
  uint16_t temp1, temp2;
  uint16_t *pdwVal;
  pdwVal = (uint16_t *)((uint32_t)(wPMABufAddr + (uint32_t)USBx + 0x400U));
 800155a:	2480      	movs	r4, #128	; 0x80
 800155c:	00e4      	lsls	r4, r4, #3
 800155e:	1900      	adds	r0, r0, r4
 8001560:	1882      	adds	r2, r0, r2
  
  for (i = n; i != 0; i--)
 8001562:	0008      	movs	r0, r1
  uint32_t n =  ((uint32_t)((uint32_t)wNBytes + 1U)) >> 1U;
 8001564:	3301      	adds	r3, #1
 8001566:	085b      	lsrs	r3, r3, #1
  for (i = n; i != 0; i--)
 8001568:	2b00      	cmp	r3, #0
 800156a:	d100      	bne.n	800156e <PCD_WritePMA+0x16>
    pbUsrBuf++;
    temp2 = temp1 | ((uint16_t)((uint16_t)  * pbUsrBuf << 8U)) ;
    *pdwVal++ = temp2;
    pbUsrBuf++;
  }
}
 800156c:	bd30      	pop	{r4, r5, pc}
    temp2 = temp1 | ((uint16_t)((uint16_t)  * pbUsrBuf << 8U)) ;
 800156e:	7844      	ldrb	r4, [r0, #1]
 8001570:	7805      	ldrb	r5, [r0, #0]
 8001572:	0224      	lsls	r4, r4, #8
 8001574:	432c      	orrs	r4, r5
    *pdwVal++ = temp2;
 8001576:	1a45      	subs	r5, r0, r1
 8001578:	52ac      	strh	r4, [r5, r2]
 800157a:	3002      	adds	r0, #2
  for (i = n; i != 0; i--)
 800157c:	3b01      	subs	r3, #1
 800157e:	e7f3      	b.n	8001568 <PCD_WritePMA+0x10>

08001580 <HAL_PCD_EP_Transmit>:
{
 8001580:	b5f8      	push	{r3, r4, r5, r6, r7, lr}
 8001582:	257f      	movs	r5, #127	; 0x7f
 8001584:	400d      	ands	r5, r1
  ep->xfer_buff = pBuf;  
 8001586:	211c      	movs	r1, #28
{
 8001588:	0004      	movs	r4, r0
  ep->xfer_buff = pBuf;  
 800158a:	0008      	movs	r0, r1
 800158c:	4368      	muls	r0, r5
 800158e:	1820      	adds	r0, r4, r0
 8001590:	6382      	str	r2, [r0, #56]	; 0x38
  ep->is_in = 1U;
 8001592:	0002      	movs	r2, r0
  ep->xfer_count = 0U;
 8001594:	2600      	movs	r6, #0
  ep->is_in = 1U;
 8001596:	2701      	movs	r7, #1
 8001598:	3229      	adds	r2, #41	; 0x29
  ep->xfer_len = len;
 800159a:	63c3      	str	r3, [r0, #60]	; 0x3c
  ep->xfer_count = 0U;
 800159c:	6406      	str	r6, [r0, #64]	; 0x40
  ep->num = ep_addr & 0x7FU;
 800159e:	3a01      	subs	r2, #1
  ep->is_in = 1U;
 80015a0:	7057      	strb	r7, [r2, #1]
  ep->num = ep_addr & 0x7FU;
 80015a2:	7015      	strb	r5, [r2, #0]
  if (ep->xfer_len > ep->maxpacket)
 80015a4:	6b42      	ldr	r2, [r0, #52]	; 0x34
 80015a6:	4293      	cmp	r3, r2
 80015a8:	d92e      	bls.n	8001608 <HAL_PCD_EP_Transmit+0x88>
    ep->xfer_len-=len; 
 80015aa:	1a9b      	subs	r3, r3, r2
 80015ac:	63c3      	str	r3, [r0, #60]	; 0x3c
  if (ep->doublebuffer == 0U) 
 80015ae:	4369      	muls	r1, r5
 80015b0:	1861      	adds	r1, r4, r1
 80015b2:	000b      	movs	r3, r1
 80015b4:	000f      	movs	r7, r1
 80015b6:	3332      	adds	r3, #50	; 0x32
 80015b8:	781b      	ldrb	r3, [r3, #0]
 80015ba:	b296      	uxth	r6, r2
 80015bc:	3728      	adds	r7, #40	; 0x28
 80015be:	2b00      	cmp	r3, #0
 80015c0:	d125      	bne.n	800160e <HAL_PCD_EP_Transmit+0x8e>
    PCD_WritePMA(hpcd->Instance, ep->xfer_buff, ep->pmaadress, len);
 80015c2:	8d8a      	ldrh	r2, [r1, #44]	; 0x2c
 80015c4:	0033      	movs	r3, r6
 80015c6:	6b89      	ldr	r1, [r1, #56]	; 0x38
 80015c8:	6820      	ldr	r0, [r4, #0]
 80015ca:	f7ff ffc5 	bl	8001558 <PCD_WritePMA>
    PCD_SET_EP_TX_CNT(hpcd->Instance, ep->num, len);
 80015ce:	6823      	ldr	r3, [r4, #0]
 80015d0:	001a      	movs	r2, r3
 80015d2:	3250      	adds	r2, #80	; 0x50
 80015d4:	8811      	ldrh	r1, [r2, #0]
 80015d6:	783a      	ldrb	r2, [r7, #0]
 80015d8:	00d2      	lsls	r2, r2, #3
 80015da:	189b      	adds	r3, r3, r2
 80015dc:	4a50      	ldr	r2, [pc, #320]	; (8001720 <HAL_PCD_EP_Transmit+0x1a0>)
 80015de:	185b      	adds	r3, r3, r1
 80015e0:	189b      	adds	r3, r3, r2
 80015e2:	801e      	strh	r6, [r3, #0]
  PCD_SET_EP_TX_STATUS(hpcd->Instance, ep->num, USB_EP_TX_VALID)
 80015e4:	211c      	movs	r1, #28
 80015e6:	434d      	muls	r5, r1
 80015e8:	1965      	adds	r5, r4, r5
 80015ea:	3528      	adds	r5, #40	; 0x28
 80015ec:	782a      	ldrb	r2, [r5, #0]
 80015ee:	6823      	ldr	r3, [r4, #0]
 80015f0:	0092      	lsls	r2, r2, #2
 80015f2:	189b      	adds	r3, r3, r2
 80015f4:	8819      	ldrh	r1, [r3, #0]
 80015f6:	4a4b      	ldr	r2, [pc, #300]	; (8001724 <HAL_PCD_EP_Transmit+0x1a4>)
}
 80015f8:	2000      	movs	r0, #0
  PCD_SET_EP_TX_STATUS(hpcd->Instance, ep->num, USB_EP_TX_VALID)
 80015fa:	4011      	ands	r1, r2
 80015fc:	2230      	movs	r2, #48	; 0x30
 80015fe:	4051      	eors	r1, r2
 8001600:	4a49      	ldr	r2, [pc, #292]	; (8001728 <HAL_PCD_EP_Transmit+0x1a8>)
 8001602:	430a      	orrs	r2, r1
 8001604:	801a      	strh	r2, [r3, #0]
}
 8001606:	bdf8      	pop	{r3, r4, r5, r6, r7, pc}
    ep->xfer_len =0U;
 8001608:	63c6      	str	r6, [r0, #60]	; 0x3c
 800160a:	001a      	movs	r2, r3
 800160c:	e7cf      	b.n	80015ae <HAL_PCD_EP_Transmit+0x2e>
    if ((PCD_GET_ENDPOINT(hpcd->Instance, ep->num)& USB_EP_DTOG_TX) == USB_EP_DTOG_TX)
 800160e:	783b      	ldrb	r3, [r7, #0]
 8001610:	6820      	ldr	r0, [r4, #0]
 8001612:	009f      	lsls	r7, r3, #2
 8001614:	5a3f      	ldrh	r7, [r7, r0]
 8001616:	3129      	adds	r1, #41	; 0x29
      PCD_SET_EP_DBUF1_CNT(hpcd->Instance, ep->num, ep->is_in, len)
 8001618:	7809      	ldrb	r1, [r1, #0]
    if ((PCD_GET_ENDPOINT(hpcd->Instance, ep->num)& USB_EP_DTOG_TX) == USB_EP_DTOG_TX)
 800161a:	067f      	lsls	r7, r7, #25
 800161c:	d545      	bpl.n	80016aa <HAL_PCD_EP_Transmit+0x12a>
      PCD_SET_EP_DBUF1_CNT(hpcd->Instance, ep->num, ep->is_in, len)
 800161e:	2900      	cmp	r1, #0
 8001620:	d137      	bne.n	8001692 <HAL_PCD_EP_Transmit+0x112>
 8001622:	0001      	movs	r1, r0
 8001624:	3150      	adds	r1, #80	; 0x50
 8001626:	8809      	ldrh	r1, [r1, #0]
 8001628:	00db      	lsls	r3, r3, #3
 800162a:	185b      	adds	r3, r3, r1
 800162c:	493f      	ldr	r1, [pc, #252]	; (800172c <HAL_PCD_EP_Transmit+0x1ac>)
 800162e:	1841      	adds	r1, r0, r1
 8001630:	185b      	adds	r3, r3, r1
 8001632:	2a3e      	cmp	r2, #62	; 0x3e
 8001634:	d925      	bls.n	8001682 <HAL_PCD_EP_Transmit+0x102>
 8001636:	0951      	lsrs	r1, r2, #5
 8001638:	b289      	uxth	r1, r1
 800163a:	06d2      	lsls	r2, r2, #27
 800163c:	d101      	bne.n	8001642 <HAL_PCD_EP_Transmit+0xc2>
 800163e:	3901      	subs	r1, #1
 8001640:	b289      	uxth	r1, r1
 8001642:	4a3b      	ldr	r2, [pc, #236]	; (8001730 <HAL_PCD_EP_Transmit+0x1b0>)
 8001644:	0289      	lsls	r1, r1, #10
 8001646:	4311      	orrs	r1, r2
 8001648:	8019      	strh	r1, [r3, #0]
      pmabuffer = ep->pmaaddr1;
 800164a:	231c      	movs	r3, #28
 800164c:	436b      	muls	r3, r5
 800164e:	18e3      	adds	r3, r4, r3
 8001650:	8e1a      	ldrh	r2, [r3, #48]	; 0x30
    PCD_WritePMA(hpcd->Instance, ep->xfer_buff, pmabuffer, len);
 8001652:	271c      	movs	r7, #28
 8001654:	436f      	muls	r7, r5
 8001656:	19e7      	adds	r7, r4, r7
 8001658:	0033      	movs	r3, r6
 800165a:	6bb9      	ldr	r1, [r7, #56]	; 0x38
 800165c:	f7ff ff7c 	bl	8001558 <PCD_WritePMA>
    PCD_FreeUserBuffer(hpcd->Instance, ep->num, ep->is_in)
 8001660:	003b      	movs	r3, r7
 8001662:	3329      	adds	r3, #41	; 0x29
 8001664:	781b      	ldrb	r3, [r3, #0]
 8001666:	6821      	ldr	r1, [r4, #0]
 8001668:	2b00      	cmp	r3, #0
 800166a:	d14d      	bne.n	8001708 <HAL_PCD_EP_Transmit+0x188>
 800166c:	3728      	adds	r7, #40	; 0x28
 800166e:	783b      	ldrb	r3, [r7, #0]
 8001670:	009b      	lsls	r3, r3, #2
 8001672:	18cb      	adds	r3, r1, r3
 8001674:	881a      	ldrh	r2, [r3, #0]
 8001676:	492f      	ldr	r1, [pc, #188]	; (8001734 <HAL_PCD_EP_Transmit+0x1b4>)
 8001678:	4011      	ands	r1, r2
 800167a:	4a2f      	ldr	r2, [pc, #188]	; (8001738 <HAL_PCD_EP_Transmit+0x1b8>)
 800167c:	430a      	orrs	r2, r1
 800167e:	801a      	strh	r2, [r3, #0]
 8001680:	e7b0      	b.n	80015e4 <HAL_PCD_EP_Transmit+0x64>
      PCD_SET_EP_DBUF1_CNT(hpcd->Instance, ep->num, ep->is_in, len)
 8001682:	0851      	lsrs	r1, r2, #1
 8001684:	b289      	uxth	r1, r1
 8001686:	07d2      	lsls	r2, r2, #31
 8001688:	d501      	bpl.n	800168e <HAL_PCD_EP_Transmit+0x10e>
 800168a:	3101      	adds	r1, #1
 800168c:	b289      	uxth	r1, r1
 800168e:	0289      	lsls	r1, r1, #10
 8001690:	e7da      	b.n	8001648 <HAL_PCD_EP_Transmit+0xc8>
 8001692:	2901      	cmp	r1, #1
 8001694:	d1d9      	bne.n	800164a <HAL_PCD_EP_Transmit+0xca>
 8001696:	0001      	movs	r1, r0
 8001698:	3150      	adds	r1, #80	; 0x50
 800169a:	8809      	ldrh	r1, [r1, #0]
 800169c:	00db      	lsls	r3, r3, #3
 800169e:	18c3      	adds	r3, r0, r3
 80016a0:	185b      	adds	r3, r3, r1
 80016a2:	4922      	ldr	r1, [pc, #136]	; (800172c <HAL_PCD_EP_Transmit+0x1ac>)
 80016a4:	185b      	adds	r3, r3, r1
 80016a6:	801a      	strh	r2, [r3, #0]
 80016a8:	e7cf      	b.n	800164a <HAL_PCD_EP_Transmit+0xca>
      PCD_SET_EP_DBUF0_CNT(hpcd->Instance, ep->num, ep->is_in, len)
 80016aa:	2900      	cmp	r1, #0
 80016ac:	d120      	bne.n	80016f0 <HAL_PCD_EP_Transmit+0x170>
 80016ae:	0001      	movs	r1, r0
 80016b0:	3150      	adds	r1, #80	; 0x50
 80016b2:	8809      	ldrh	r1, [r1, #0]
 80016b4:	00db      	lsls	r3, r3, #3
 80016b6:	185b      	adds	r3, r3, r1
 80016b8:	4919      	ldr	r1, [pc, #100]	; (8001720 <HAL_PCD_EP_Transmit+0x1a0>)
 80016ba:	1841      	adds	r1, r0, r1
 80016bc:	185b      	adds	r3, r3, r1
 80016be:	2a3e      	cmp	r2, #62	; 0x3e
 80016c0:	d90e      	bls.n	80016e0 <HAL_PCD_EP_Transmit+0x160>
 80016c2:	0951      	lsrs	r1, r2, #5
 80016c4:	b289      	uxth	r1, r1
 80016c6:	06d2      	lsls	r2, r2, #27
 80016c8:	d101      	bne.n	80016ce <HAL_PCD_EP_Transmit+0x14e>
 80016ca:	3901      	subs	r1, #1
 80016cc:	b289      	uxth	r1, r1
 80016ce:	4a18      	ldr	r2, [pc, #96]	; (8001730 <HAL_PCD_EP_Transmit+0x1b0>)
 80016d0:	0289      	lsls	r1, r1, #10
 80016d2:	4311      	orrs	r1, r2
 80016d4:	8019      	strh	r1, [r3, #0]
      pmabuffer = ep->pmaaddr0;
 80016d6:	231c      	movs	r3, #28
 80016d8:	436b      	muls	r3, r5
 80016da:	18e3      	adds	r3, r4, r3
 80016dc:	8dda      	ldrh	r2, [r3, #46]	; 0x2e
 80016de:	e7b8      	b.n	8001652 <HAL_PCD_EP_Transmit+0xd2>
      PCD_SET_EP_DBUF0_CNT(hpcd->Instance, ep->num, ep->is_in, len)
 80016e0:	0851      	lsrs	r1, r2, #1
 80016e2:	b289      	uxth	r1, r1
 80016e4:	07d2      	lsls	r2, r2, #31
 80016e6:	d501      	bpl.n	80016ec <HAL_PCD_EP_Transmit+0x16c>
 80016e8:	3101      	adds	r1, #1
 80016ea:	b289      	uxth	r1, r1
 80016ec:	0289      	lsls	r1, r1, #10
 80016ee:	e7f1      	b.n	80016d4 <HAL_PCD_EP_Transmit+0x154>
 80016f0:	2901      	cmp	r1, #1
 80016f2:	d1f0      	bne.n	80016d6 <HAL_PCD_EP_Transmit+0x156>
 80016f4:	0001      	movs	r1, r0
 80016f6:	3150      	adds	r1, #80	; 0x50
 80016f8:	8809      	ldrh	r1, [r1, #0]
 80016fa:	00db      	lsls	r3, r3, #3
 80016fc:	18c3      	adds	r3, r0, r3
 80016fe:	185b      	adds	r3, r3, r1
 8001700:	4907      	ldr	r1, [pc, #28]	; (8001720 <HAL_PCD_EP_Transmit+0x1a0>)
 8001702:	185b      	adds	r3, r3, r1
 8001704:	801a      	strh	r2, [r3, #0]
 8001706:	e7e6      	b.n	80016d6 <HAL_PCD_EP_Transmit+0x156>
    PCD_FreeUserBuffer(hpcd->Instance, ep->num, ep->is_in)
 8001708:	2b01      	cmp	r3, #1
 800170a:	d000      	beq.n	800170e <HAL_PCD_EP_Transmit+0x18e>
 800170c:	e76a      	b.n	80015e4 <HAL_PCD_EP_Transmit+0x64>
 800170e:	3728      	adds	r7, #40	; 0x28
 8001710:	783a      	ldrb	r2, [r7, #0]
 8001712:	0092      	lsls	r2, r2, #2
 8001714:	188b      	adds	r3, r1, r2
 8001716:	881a      	ldrh	r2, [r3, #0]
 8001718:	4906      	ldr	r1, [pc, #24]	; (8001734 <HAL_PCD_EP_Transmit+0x1b4>)
 800171a:	4011      	ands	r1, r2
 800171c:	4a07      	ldr	r2, [pc, #28]	; (800173c <HAL_PCD_EP_Transmit+0x1bc>)
 800171e:	e7ad      	b.n	800167c <HAL_PCD_EP_Transmit+0xfc>
 8001720:	00000402 	.word	0x00000402
 8001724:	ffff8fbf 	.word	0xffff8fbf
 8001728:	ffff8080 	.word	0xffff8080
 800172c:	00000406 	.word	0x00000406
 8001730:	ffff8000 	.word	0xffff8000
 8001734:	00000f0f 	.word	0x00000f0f
 8001738:	ffff80c0 	.word	0xffff80c0
 800173c:	ffffc080 	.word	0xffffc080

08001740 <PCD_ReadPMA>:
  * @param   wPMABufAddr address into PMA.
  * @param   wNBytes no. of bytes to be copied.
  * @retval None
  */
void PCD_ReadPMA(USB_TypeDef  *USBx, uint8_t *pbUsrBuf, uint16_t wPMABufAddr, uint16_t wNBytes)
{
 8001740:	b570      	push	{r4, r5, r6, lr}
  uint32_t n = (uint32_t)wNBytes >> 1U;
  uint32_t i;
  uint16_t *pdwVal;
  uint32_t temp;
  pdwVal = (uint16_t *)((uint32_t)(wPMABufAddr + (uint32_t)USBx + 0x400U));
 8001742:	2580      	movs	r5, #128	; 0x80
 8001744:	00ed      	lsls	r5, r5, #3
 8001746:	1940      	adds	r0, r0, r5
  uint32_t n = (uint32_t)wNBytes >> 1U;
 8001748:	085c      	lsrs	r4, r3, #1
  pdwVal = (uint16_t *)((uint32_t)(wPMABufAddr + (uint32_t)USBx + 0x400U));
 800174a:	1882      	adds	r2, r0, r2
  
  for (i = n; i != 0U; i--)
 800174c:	0026      	movs	r6, r4
 800174e:	0008      	movs	r0, r1
 8001750:	2e00      	cmp	r6, #0
 8001752:	d107      	bne.n	8001764 <PCD_ReadPMA+0x24>
 8001754:	0064      	lsls	r4, r4, #1
 8001756:	1909      	adds	r1, r1, r4
 8001758:	1912      	adds	r2, r2, r4
    temp = *pdwVal++;
    *pbUsrBuf++ = ((temp >> 0) & 0xFF);
    *pbUsrBuf++ = ((temp >> 8) & 0xFF);
  }
  
  if (wNBytes % 2)
 800175a:	07db      	lsls	r3, r3, #31
 800175c:	d501      	bpl.n	8001762 <PCD_ReadPMA+0x22>
  {
    temp = *pdwVal++;
    *pbUsrBuf++ = ((temp >> 0) & 0xFF);
 800175e:	8813      	ldrh	r3, [r2, #0]
 8001760:	700b      	strb	r3, [r1, #0]
  }
}
 8001762:	bd70      	pop	{r4, r5, r6, pc}
    temp = *pdwVal++;
 8001764:	1a45      	subs	r5, r0, r1
 8001766:	5aad      	ldrh	r5, [r5, r2]
  for (i = n; i != 0U; i--)
 8001768:	3e01      	subs	r6, #1
    *pbUsrBuf++ = ((temp >> 0) & 0xFF);
 800176a:	7005      	strb	r5, [r0, #0]
    *pbUsrBuf++ = ((temp >> 8) & 0xFF);
 800176c:	0a2d      	lsrs	r5, r5, #8
 800176e:	7045      	strb	r5, [r0, #1]
 8001770:	3002      	adds	r0, #2
 8001772:	e7ed      	b.n	8001750 <PCD_ReadPMA+0x10>

08001774 <HAL_PCD_IRQHandler>:
{
 8001774:	b5f0      	push	{r4, r5, r6, r7, lr}
  if (__HAL_PCD_GET_FLAG (hpcd, USB_ISTR_CTR))
 8001776:	6803      	ldr	r3, [r0, #0]
{
 8001778:	b085      	sub	sp, #20
  if (__HAL_PCD_GET_FLAG (hpcd, USB_ISTR_CTR))
 800177a:	3306      	adds	r3, #6
 800177c:	8fdb      	ldrh	r3, [r3, #62]	; 0x3e
{
 800177e:	0004      	movs	r4, r0
  if (__HAL_PCD_GET_FLAG (hpcd, USB_ISTR_CTR))
 8001780:	b21b      	sxth	r3, r3
 8001782:	2b00      	cmp	r3, #0
 8001784:	da00      	bge.n	8001788 <HAL_PCD_IRQHandler+0x14>
 8001786:	e061      	b.n	800184c <HAL_PCD_IRQHandler+0xd8>
  if (__HAL_PCD_GET_FLAG (hpcd, USB_ISTR_RESET))
 8001788:	6823      	ldr	r3, [r4, #0]
 800178a:	3306      	adds	r3, #6
 800178c:	8fda      	ldrh	r2, [r3, #62]	; 0x3e
 800178e:	0552      	lsls	r2, r2, #21
 8001790:	d50a      	bpl.n	80017a8 <HAL_PCD_IRQHandler+0x34>
    __HAL_PCD_CLEAR_FLAG(hpcd, USB_ISTR_RESET);
 8001792:	8fda      	ldrh	r2, [r3, #62]	; 0x3e
 8001794:	4986      	ldr	r1, [pc, #536]	; (80019b0 <HAL_PCD_IRQHandler+0x23c>)
    HAL_PCD_ResetCallback(hpcd);
 8001796:	0020      	movs	r0, r4
    __HAL_PCD_CLEAR_FLAG(hpcd, USB_ISTR_RESET);
 8001798:	400a      	ands	r2, r1
 800179a:	87da      	strh	r2, [r3, #62]	; 0x3e
    HAL_PCD_ResetCallback(hpcd);
 800179c:	f002 fcc4 	bl	8004128 <HAL_PCD_ResetCallback>
    HAL_PCD_SetAddress(hpcd, 0U);
 80017a0:	2100      	movs	r1, #0
 80017a2:	0020      	movs	r0, r4
 80017a4:	f7ff fb81 	bl	8000eaa <HAL_PCD_SetAddress>
  if (__HAL_PCD_GET_FLAG (hpcd, USB_ISTR_PMAOVR))
 80017a8:	6823      	ldr	r3, [r4, #0]
 80017aa:	1d99      	adds	r1, r3, #6
 80017ac:	8fca      	ldrh	r2, [r1, #62]	; 0x3e
 80017ae:	0452      	lsls	r2, r2, #17
 80017b0:	d503      	bpl.n	80017ba <HAL_PCD_IRQHandler+0x46>
    __HAL_PCD_CLEAR_FLAG(hpcd, USB_ISTR_PMAOVR);    
 80017b2:	8fca      	ldrh	r2, [r1, #62]	; 0x3e
 80017b4:	487f      	ldr	r0, [pc, #508]	; (80019b4 <HAL_PCD_IRQHandler+0x240>)
 80017b6:	4002      	ands	r2, r0
 80017b8:	87ca      	strh	r2, [r1, #62]	; 0x3e
  if (__HAL_PCD_GET_FLAG (hpcd, USB_ISTR_ERR))
 80017ba:	8fca      	ldrh	r2, [r1, #62]	; 0x3e
 80017bc:	0492      	lsls	r2, r2, #18
 80017be:	d503      	bpl.n	80017c8 <HAL_PCD_IRQHandler+0x54>
    __HAL_PCD_CLEAR_FLAG(hpcd, USB_ISTR_ERR); 
 80017c0:	8fca      	ldrh	r2, [r1, #62]	; 0x3e
 80017c2:	487d      	ldr	r0, [pc, #500]	; (80019b8 <HAL_PCD_IRQHandler+0x244>)
 80017c4:	4002      	ands	r2, r0
 80017c6:	87ca      	strh	r2, [r1, #62]	; 0x3e
  if (__HAL_PCD_GET_FLAG (hpcd, USB_ISTR_WKUP))
 80017c8:	8fca      	ldrh	r2, [r1, #62]	; 0x3e
 80017ca:	04d2      	lsls	r2, r2, #19
 80017cc:	d50f      	bpl.n	80017ee <HAL_PCD_IRQHandler+0x7a>
    hpcd->Instance->CNTR &= (uint16_t)(~(USB_CNTR_LPMODE));
 80017ce:	2104      	movs	r1, #4
 80017d0:	3302      	adds	r3, #2
 80017d2:	8fda      	ldrh	r2, [r3, #62]	; 0x3e
    HAL_PCD_ResumeCallback(hpcd);
 80017d4:	0020      	movs	r0, r4
    hpcd->Instance->CNTR &= (uint16_t)(~(USB_CNTR_LPMODE));
 80017d6:	438a      	bics	r2, r1
 80017d8:	87da      	strh	r2, [r3, #62]	; 0x3e
    hpcd->Instance->CNTR = wInterrupt_Mask;
 80017da:	4a78      	ldr	r2, [pc, #480]	; (80019bc <HAL_PCD_IRQHandler+0x248>)
 80017dc:	87da      	strh	r2, [r3, #62]	; 0x3e
    HAL_PCD_ResumeCallback(hpcd);
 80017de:	f002 fcc7 	bl	8004170 <HAL_PCD_ResumeCallback>
    __HAL_PCD_CLEAR_FLAG(hpcd, USB_ISTR_WKUP);     
 80017e2:	6823      	ldr	r3, [r4, #0]
 80017e4:	4976      	ldr	r1, [pc, #472]	; (80019c0 <HAL_PCD_IRQHandler+0x24c>)
 80017e6:	3306      	adds	r3, #6
 80017e8:	8fda      	ldrh	r2, [r3, #62]	; 0x3e
 80017ea:	400a      	ands	r2, r1
 80017ec:	87da      	strh	r2, [r3, #62]	; 0x3e
  if (__HAL_PCD_GET_FLAG (hpcd, USB_ISTR_SUSP))
 80017ee:	6823      	ldr	r3, [r4, #0]
 80017f0:	1d9a      	adds	r2, r3, #6
 80017f2:	8fd1      	ldrh	r1, [r2, #62]	; 0x3e
 80017f4:	0509      	lsls	r1, r1, #20
 80017f6:	d512      	bpl.n	800181e <HAL_PCD_IRQHandler+0xaa>
    __HAL_PCD_CLEAR_FLAG(hpcd, USB_ISTR_SUSP);  
 80017f8:	8fd1      	ldrh	r1, [r2, #62]	; 0x3e
 80017fa:	4872      	ldr	r0, [pc, #456]	; (80019c4 <HAL_PCD_IRQHandler+0x250>)
    hpcd->Instance->CNTR |= USB_CNTR_FSUSP;
 80017fc:	3302      	adds	r3, #2
    __HAL_PCD_CLEAR_FLAG(hpcd, USB_ISTR_SUSP);  
 80017fe:	4001      	ands	r1, r0
 8001800:	87d1      	strh	r1, [r2, #62]	; 0x3e
    hpcd->Instance->CNTR |= USB_CNTR_FSUSP;
 8001802:	2108      	movs	r1, #8
 8001804:	8fd8      	ldrh	r0, [r3, #62]	; 0x3e
 8001806:	4301      	orrs	r1, r0
 8001808:	87d9      	strh	r1, [r3, #62]	; 0x3e
    hpcd->Instance->CNTR |= USB_CNTR_LPMODE;
 800180a:	2104      	movs	r1, #4
 800180c:	8fd8      	ldrh	r0, [r3, #62]	; 0x3e
 800180e:	4301      	orrs	r1, r0
 8001810:	87d9      	strh	r1, [r3, #62]	; 0x3e
    if (__HAL_PCD_GET_FLAG (hpcd, USB_ISTR_WKUP) == 0)
 8001812:	8fd3      	ldrh	r3, [r2, #62]	; 0x3e
 8001814:	04db      	lsls	r3, r3, #19
 8001816:	d402      	bmi.n	800181e <HAL_PCD_IRQHandler+0xaa>
      HAL_PCD_SuspendCallback(hpcd);
 8001818:	0020      	movs	r0, r4
 800181a:	f002 fc97 	bl	800414c <HAL_PCD_SuspendCallback>
  if (__HAL_PCD_GET_FLAG (hpcd, USB_ISTR_SOF))
 800181e:	6823      	ldr	r3, [r4, #0]
 8001820:	3306      	adds	r3, #6
 8001822:	8fda      	ldrh	r2, [r3, #62]	; 0x3e
 8001824:	0592      	lsls	r2, r2, #22
 8001826:	d506      	bpl.n	8001836 <HAL_PCD_IRQHandler+0xc2>
    __HAL_PCD_CLEAR_FLAG(hpcd, USB_ISTR_SOF); 
 8001828:	8fda      	ldrh	r2, [r3, #62]	; 0x3e
 800182a:	4967      	ldr	r1, [pc, #412]	; (80019c8 <HAL_PCD_IRQHandler+0x254>)
    HAL_PCD_SOFCallback(hpcd);
 800182c:	0020      	movs	r0, r4
    __HAL_PCD_CLEAR_FLAG(hpcd, USB_ISTR_SOF); 
 800182e:	400a      	ands	r2, r1
 8001830:	87da      	strh	r2, [r3, #62]	; 0x3e
    HAL_PCD_SOFCallback(hpcd);
 8001832:	f002 fc72 	bl	800411a <HAL_PCD_SOFCallback>
  if (__HAL_PCD_GET_FLAG (hpcd, USB_ISTR_ESOF))
 8001836:	6823      	ldr	r3, [r4, #0]
 8001838:	3306      	adds	r3, #6
 800183a:	8fda      	ldrh	r2, [r3, #62]	; 0x3e
 800183c:	05d2      	lsls	r2, r2, #23
 800183e:	d503      	bpl.n	8001848 <HAL_PCD_IRQHandler+0xd4>
    __HAL_PCD_CLEAR_FLAG(hpcd, USB_ISTR_ESOF); 
 8001840:	8fda      	ldrh	r2, [r3, #62]	; 0x3e
 8001842:	4962      	ldr	r1, [pc, #392]	; (80019cc <HAL_PCD_IRQHandler+0x258>)
 8001844:	400a      	ands	r2, r1
 8001846:	87da      	strh	r2, [r3, #62]	; 0x3e
}
 8001848:	b005      	add	sp, #20
 800184a:	bdf0      	pop	{r4, r5, r6, r7, pc}
{
  PCD_EPTypeDef *ep;
  uint16_t count=0U;
  uint8_t EPindex;
  __IO uint16_t wIstr;  
  __IO uint16_t wEPVal = 0U;
 800184c:	ab02      	add	r3, sp, #8
 800184e:	1d9f      	adds	r7, r3, #6
 8001850:	2300      	movs	r3, #0
 8001852:	803b      	strh	r3, [r7, #0]
  
  /* stay in loop while pending interrupts */
  while (((wIstr = hpcd->Instance->ISTR) & USB_ISTR_CTR) != 0U)
 8001854:	6820      	ldr	r0, [r4, #0]
 8001856:	aa03      	add	r2, sp, #12
 8001858:	1d83      	adds	r3, r0, #6
 800185a:	8fdb      	ldrh	r3, [r3, #62]	; 0x3e
 800185c:	b29b      	uxth	r3, r3
 800185e:	8013      	strh	r3, [r2, #0]
 8001860:	b21b      	sxth	r3, r3
 8001862:	2b00      	cmp	r3, #0
 8001864:	db00      	blt.n	8001868 <HAL_PCD_IRQHandler+0xf4>
 8001866:	e78f      	b.n	8001788 <HAL_PCD_IRQHandler+0x14>
  {
    /* extract highest priority endpoint number */
    EPindex = (uint8_t)(wIstr & USB_ISTR_EP_ID);
 8001868:	230f      	movs	r3, #15
 800186a:	8816      	ldrh	r6, [r2, #0]
 800186c:	401e      	ands	r6, r3
    
    if (EPindex == 0U)
 800186e:	d000      	beq.n	8001872 <HAL_PCD_IRQHandler+0xfe>
 8001870:	e0bc      	b.n	80019ec <HAL_PCD_IRQHandler+0x278>
    {
      /* Decode and service control endpoint interrupt */
      
      /* DIR bit = origin of the interrupt */   
      if ((wIstr & USB_ISTR_DIR) == 0U)
 8001872:	2110      	movs	r1, #16
 8001874:	8813      	ldrh	r3, [r2, #0]
 8001876:	4019      	ands	r1, r3
      {
        /* DIR = 0 */
        
        /* DIR = 0      => IN  int */
        /* DIR = 0 implies that (EP_CTR_TX = 1) always  */
        PCD_CLEAR_TX_EP_CTR(hpcd->Instance, PCD_ENDP0);
 8001878:	8803      	ldrh	r3, [r0, #0]
      if ((wIstr & USB_ISTR_DIR) == 0U)
 800187a:	2900      	cmp	r1, #0
 800187c:	d126      	bne.n	80018cc <HAL_PCD_IRQHandler+0x158>
        PCD_CLEAR_TX_EP_CTR(hpcd->Instance, PCD_ENDP0);
 800187e:	4a54      	ldr	r2, [pc, #336]	; (80019d0 <HAL_PCD_IRQHandler+0x25c>)
 8001880:	4013      	ands	r3, r2
 8001882:	8003      	strh	r3, [r0, #0]
        ep = &hpcd->IN_ep[0];
        
        ep->xfer_count = PCD_GET_EP_TX_CNT(hpcd->Instance, ep->num);
 8001884:	0003      	movs	r3, r0
 8001886:	3350      	adds	r3, #80	; 0x50
 8001888:	881a      	ldrh	r2, [r3, #0]
 800188a:	0023      	movs	r3, r4
 800188c:	3328      	adds	r3, #40	; 0x28
 800188e:	781b      	ldrb	r3, [r3, #0]
 8001890:	00db      	lsls	r3, r3, #3
 8001892:	18c0      	adds	r0, r0, r3
 8001894:	4b4f      	ldr	r3, [pc, #316]	; (80019d4 <HAL_PCD_IRQHandler+0x260>)
 8001896:	1880      	adds	r0, r0, r2
 8001898:	18c0      	adds	r0, r0, r3
 800189a:	8803      	ldrh	r3, [r0, #0]
        ep->xfer_buff += ep->xfer_count;
 800189c:	6ba2      	ldr	r2, [r4, #56]	; 0x38
        ep->xfer_count = PCD_GET_EP_TX_CNT(hpcd->Instance, ep->num);
 800189e:	059b      	lsls	r3, r3, #22
 80018a0:	0d9b      	lsrs	r3, r3, #22
 80018a2:	6423      	str	r3, [r4, #64]	; 0x40
        ep->xfer_buff += ep->xfer_count;
 80018a4:	18d3      	adds	r3, r2, r3
 80018a6:	63a3      	str	r3, [r4, #56]	; 0x38
 
        /* TX COMPLETE */
        HAL_PCD_DataInStageCallback(hpcd, 0U);
 80018a8:	0020      	movs	r0, r4
 80018aa:	f002 fc2b 	bl	8004104 <HAL_PCD_DataInStageCallback>
        
        
        if((hpcd->USB_Address > 0U)&& ( ep->xfer_len == 0U))
 80018ae:	1d63      	adds	r3, r4, #5
 80018b0:	7fda      	ldrb	r2, [r3, #31]
 80018b2:	2a00      	cmp	r2, #0
 80018b4:	d0ce      	beq.n	8001854 <HAL_PCD_IRQHandler+0xe0>
 80018b6:	6be0      	ldr	r0, [r4, #60]	; 0x3c
 80018b8:	2800      	cmp	r0, #0
 80018ba:	d1cb      	bne.n	8001854 <HAL_PCD_IRQHandler+0xe0>
        {
          hpcd->Instance->DADDR = (hpcd->USB_Address | USB_DADDR_EF);
 80018bc:	2280      	movs	r2, #128	; 0x80
 80018be:	7fd9      	ldrb	r1, [r3, #31]
 80018c0:	4311      	orrs	r1, r2
 80018c2:	6822      	ldr	r2, [r4, #0]
 80018c4:	324c      	adds	r2, #76	; 0x4c
 80018c6:	8011      	strh	r1, [r2, #0]
          hpcd->USB_Address = 0U;
 80018c8:	77d8      	strb	r0, [r3, #31]
 80018ca:	e7c3      	b.n	8001854 <HAL_PCD_IRQHandler+0xe0>
        /* DIR = 1 */
        
        /* DIR = 1 & CTR_RX       => SETUP or OUT int */
        /* DIR = 1 & (CTR_TX | CTR_RX) => 2 int pending */
        ep = &hpcd->OUT_ep[0];
        wEPVal = PCD_GET_ENDPOINT(hpcd->Instance, PCD_ENDP0);
 80018cc:	803b      	strh	r3, [r7, #0]
        
        if ((wEPVal & USB_EP_SETUP) != 0U)
 80018ce:	883a      	ldrh	r2, [r7, #0]
 80018d0:	0512      	lsls	r2, r2, #20
 80018d2:	d520      	bpl.n	8001916 <HAL_PCD_IRQHandler+0x1a2>
        {
          /* Get SETUP Packet*/
          ep->xfer_count = PCD_GET_EP_RX_CNT(hpcd->Instance, ep->num);
 80018d4:	0003      	movs	r3, r0
 80018d6:	3350      	adds	r3, #80	; 0x50
 80018d8:	881a      	ldrh	r2, [r3, #0]
 80018da:	2384      	movs	r3, #132	; 0x84
 80018dc:	005b      	lsls	r3, r3, #1
 80018de:	5ce3      	ldrb	r3, [r4, r3]
          PCD_ReadPMA(hpcd->Instance, (uint8_t*)(void*)hpcd->Setup ,ep->pmaadress , ep->xfer_count);
 80018e0:	0021      	movs	r1, r4
          ep->xfer_count = PCD_GET_EP_RX_CNT(hpcd->Instance, ep->num);
 80018e2:	00db      	lsls	r3, r3, #3
 80018e4:	18c3      	adds	r3, r0, r3
 80018e6:	189b      	adds	r3, r3, r2
 80018e8:	4a3b      	ldr	r2, [pc, #236]	; (80019d8 <HAL_PCD_IRQHandler+0x264>)
          PCD_ReadPMA(hpcd->Instance, (uint8_t*)(void*)hpcd->Setup ,ep->pmaadress , ep->xfer_count);
 80018ea:	31ed      	adds	r1, #237	; 0xed
          ep->xfer_count = PCD_GET_EP_RX_CNT(hpcd->Instance, ep->num);
 80018ec:	189b      	adds	r3, r3, r2
 80018ee:	0022      	movs	r2, r4
 80018f0:	881b      	ldrh	r3, [r3, #0]
 80018f2:	3209      	adds	r2, #9
 80018f4:	059b      	lsls	r3, r3, #22
 80018f6:	0d9b      	lsrs	r3, r3, #22
 80018f8:	32ff      	adds	r2, #255	; 0xff
 80018fa:	6193      	str	r3, [r2, #24]
          PCD_ReadPMA(hpcd->Instance, (uint8_t*)(void*)hpcd->Setup ,ep->pmaadress , ep->xfer_count);
 80018fc:	31ff      	adds	r1, #255	; 0xff
 80018fe:	8892      	ldrh	r2, [r2, #4]
 8001900:	f7ff ff1e 	bl	8001740 <PCD_ReadPMA>
          /* SETUP bit kept frozen while CTR_RX = 1*/ 
          PCD_CLEAR_RX_EP_CTR(hpcd->Instance, PCD_ENDP0); 
 8001904:	6822      	ldr	r2, [r4, #0]
 8001906:	4935      	ldr	r1, [pc, #212]	; (80019dc <HAL_PCD_IRQHandler+0x268>)
 8001908:	8813      	ldrh	r3, [r2, #0]
          
          /* Process SETUP Packet*/
          HAL_PCD_SetupStageCallback(hpcd);
 800190a:	0020      	movs	r0, r4
          PCD_CLEAR_RX_EP_CTR(hpcd->Instance, PCD_ENDP0); 
 800190c:	400b      	ands	r3, r1
 800190e:	8013      	strh	r3, [r2, #0]
          HAL_PCD_SetupStageCallback(hpcd);
 8001910:	f002 fbe2 	bl	80040d8 <HAL_PCD_SetupStageCallback>
 8001914:	e79e      	b.n	8001854 <HAL_PCD_IRQHandler+0xe0>
        }
        
        else if ((wEPVal & USB_EP_CTR_RX) != 0U)
 8001916:	883a      	ldrh	r2, [r7, #0]
 8001918:	b212      	sxth	r2, r2
 800191a:	2a00      	cmp	r2, #0
 800191c:	da9a      	bge.n	8001854 <HAL_PCD_IRQHandler+0xe0>
        {
          PCD_CLEAR_RX_EP_CTR(hpcd->Instance, PCD_ENDP0);
 800191e:	4a2f      	ldr	r2, [pc, #188]	; (80019dc <HAL_PCD_IRQHandler+0x268>)
          /* Get Control Data OUT Packet*/
          ep->xfer_count = PCD_GET_EP_RX_CNT(hpcd->Instance, ep->num);
 8001920:	0025      	movs	r5, r4
          PCD_CLEAR_RX_EP_CTR(hpcd->Instance, PCD_ENDP0);
 8001922:	4013      	ands	r3, r2
 8001924:	8003      	strh	r3, [r0, #0]
          ep->xfer_count = PCD_GET_EP_RX_CNT(hpcd->Instance, ep->num);
 8001926:	0003      	movs	r3, r0
 8001928:	3350      	adds	r3, #80	; 0x50
 800192a:	881a      	ldrh	r2, [r3, #0]
 800192c:	2384      	movs	r3, #132	; 0x84
 800192e:	005b      	lsls	r3, r3, #1
 8001930:	5ce3      	ldrb	r3, [r4, r3]
 8001932:	3509      	adds	r5, #9
 8001934:	00db      	lsls	r3, r3, #3
 8001936:	18c3      	adds	r3, r0, r3
 8001938:	189b      	adds	r3, r3, r2
 800193a:	4a27      	ldr	r2, [pc, #156]	; (80019d8 <HAL_PCD_IRQHandler+0x264>)
 800193c:	35ff      	adds	r5, #255	; 0xff
 800193e:	189b      	adds	r3, r3, r2
 8001940:	881b      	ldrh	r3, [r3, #0]
 8001942:	059b      	lsls	r3, r3, #22
 8001944:	0d9b      	lsrs	r3, r3, #22
 8001946:	61ab      	str	r3, [r5, #24]
          
          if (ep->xfer_count != 0U)
 8001948:	d007      	beq.n	800195a <HAL_PCD_IRQHandler+0x1e6>
          {
            PCD_ReadPMA(hpcd->Instance, ep->xfer_buff, ep->pmaadress, ep->xfer_count);
 800194a:	88aa      	ldrh	r2, [r5, #4]
 800194c:	6929      	ldr	r1, [r5, #16]
 800194e:	f7ff fef7 	bl	8001740 <PCD_ReadPMA>
            ep->xfer_buff+=ep->xfer_count;
 8001952:	692b      	ldr	r3, [r5, #16]
 8001954:	69aa      	ldr	r2, [r5, #24]
 8001956:	189b      	adds	r3, r3, r2
 8001958:	612b      	str	r3, [r5, #16]
          }
          
          /* Process Control Data OUT Packet*/
           HAL_PCD_DataOutStageCallback(hpcd, 0U);
 800195a:	2100      	movs	r1, #0
 800195c:	0020      	movs	r0, r4
 800195e:	f002 fbc5 	bl	80040ec <HAL_PCD_DataOutStageCallback>
          
          PCD_SET_EP_RX_CNT(hpcd->Instance, PCD_ENDP0, ep->maxpacket)
 8001962:	6822      	ldr	r2, [r4, #0]
 8001964:	491c      	ldr	r1, [pc, #112]	; (80019d8 <HAL_PCD_IRQHandler+0x264>)
 8001966:	0013      	movs	r3, r2
 8001968:	3350      	adds	r3, #80	; 0x50
 800196a:	881b      	ldrh	r3, [r3, #0]
 800196c:	68e8      	ldr	r0, [r5, #12]
 800196e:	1851      	adds	r1, r2, r1
 8001970:	18c9      	adds	r1, r1, r3
 8001972:	283e      	cmp	r0, #62	; 0x3e
 8001974:	d913      	bls.n	800199e <HAL_PCD_IRQHandler+0x22a>
 8001976:	0943      	lsrs	r3, r0, #5
 8001978:	b29b      	uxth	r3, r3
 800197a:	06c0      	lsls	r0, r0, #27
 800197c:	d101      	bne.n	8001982 <HAL_PCD_IRQHandler+0x20e>
 800197e:	3b01      	subs	r3, #1
 8001980:	b29b      	uxth	r3, r3
 8001982:	4817      	ldr	r0, [pc, #92]	; (80019e0 <HAL_PCD_IRQHandler+0x26c>)
 8001984:	029b      	lsls	r3, r3, #10
 8001986:	4303      	orrs	r3, r0
 8001988:	800b      	strh	r3, [r1, #0]
          PCD_SET_EP_RX_STATUS(hpcd->Instance, PCD_ENDP0, USB_EP_RX_VALID)
 800198a:	8811      	ldrh	r1, [r2, #0]
 800198c:	4b15      	ldr	r3, [pc, #84]	; (80019e4 <HAL_PCD_IRQHandler+0x270>)
 800198e:	4019      	ands	r1, r3
 8001990:	23c0      	movs	r3, #192	; 0xc0
 8001992:	019b      	lsls	r3, r3, #6
 8001994:	4059      	eors	r1, r3
 8001996:	4b14      	ldr	r3, [pc, #80]	; (80019e8 <HAL_PCD_IRQHandler+0x274>)
 8001998:	430b      	orrs	r3, r1
 800199a:	8013      	strh	r3, [r2, #0]
 800199c:	e75a      	b.n	8001854 <HAL_PCD_IRQHandler+0xe0>
          PCD_SET_EP_RX_CNT(hpcd->Instance, PCD_ENDP0, ep->maxpacket)
 800199e:	0843      	lsrs	r3, r0, #1
 80019a0:	b29b      	uxth	r3, r3
 80019a2:	07c0      	lsls	r0, r0, #31
 80019a4:	d501      	bpl.n	80019aa <HAL_PCD_IRQHandler+0x236>
 80019a6:	3301      	adds	r3, #1
 80019a8:	b29b      	uxth	r3, r3
 80019aa:	029b      	lsls	r3, r3, #10
 80019ac:	e7ec      	b.n	8001988 <HAL_PCD_IRQHandler+0x214>
 80019ae:	46c0      	nop			; (mov r8, r8)
 80019b0:	fffffbff 	.word	0xfffffbff
 80019b4:	ffffbfff 	.word	0xffffbfff
 80019b8:	ffffdfff 	.word	0xffffdfff
 80019bc:	ffffbd00 	.word	0xffffbd00
 80019c0:	ffffefff 	.word	0xffffefff
 80019c4:	fffff7ff 	.word	0xfffff7ff
 80019c8:	fffffdff 	.word	0xfffffdff
 80019cc:	fffffeff 	.word	0xfffffeff
 80019d0:	ffff8f0f 	.word	0xffff8f0f
 80019d4:	00000402 	.word	0x00000402
 80019d8:	00000406 	.word	0x00000406
 80019dc:	00000f8f 	.word	0x00000f8f
 80019e0:	ffff8000 	.word	0xffff8000
 80019e4:	ffffbf8f 	.word	0xffffbf8f
 80019e8:	ffff8080 	.word	0xffff8080
    {
      
      /* Decode and service non control endpoints interrupt  */
      
      /* process related endpoint register */
      wEPVal = PCD_GET_ENDPOINT(hpcd->Instance, EPindex);
 80019ec:	00b3      	lsls	r3, r6, #2
 80019ee:	18c1      	adds	r1, r0, r3
 80019f0:	9301      	str	r3, [sp, #4]
 80019f2:	880b      	ldrh	r3, [r1, #0]
 80019f4:	803b      	strh	r3, [r7, #0]
      if ((wEPVal & USB_EP_CTR_RX) != 0U)
 80019f6:	883a      	ldrh	r2, [r7, #0]
 80019f8:	b212      	sxth	r2, r2
 80019fa:	2a00      	cmp	r2, #0
 80019fc:	da3c      	bge.n	8001a78 <HAL_PCD_IRQHandler+0x304>
      {  
        /* clear int flag */
        PCD_CLEAR_RX_EP_CTR(hpcd->Instance, EPindex);
 80019fe:	4a73      	ldr	r2, [pc, #460]	; (8001bcc <HAL_PCD_IRQHandler+0x458>)
 8001a00:	4013      	ands	r3, r2
 8001a02:	800b      	strh	r3, [r1, #0]
        ep = &hpcd->OUT_ep[EPindex];
        
        /* OUT double Buffering*/
        if (ep->doublebuffer == 0U)
 8001a04:	211c      	movs	r1, #28
 8001a06:	4371      	muls	r1, r6
 8001a08:	1861      	adds	r1, r4, r1
 8001a0a:	000b      	movs	r3, r1
 8001a0c:	0002      	movs	r2, r0
 8001a0e:	33ff      	adds	r3, #255	; 0xff
 8001a10:	7cdd      	ldrb	r5, [r3, #19]
 8001a12:	3250      	adds	r2, #80	; 0x50
 8001a14:	7a5b      	ldrb	r3, [r3, #9]
 8001a16:	2d00      	cmp	r5, #0
 8001a18:	d173      	bne.n	8001b02 <HAL_PCD_IRQHandler+0x38e>
        {
          count = PCD_GET_EP_RX_CNT(hpcd->Instance, ep->num);
 8001a1a:	8812      	ldrh	r2, [r2, #0]
 8001a1c:	00db      	lsls	r3, r3, #3
 8001a1e:	18c3      	adds	r3, r0, r3
 8001a20:	189b      	adds	r3, r3, r2
 8001a22:	4a6b      	ldr	r2, [pc, #428]	; (8001bd0 <HAL_PCD_IRQHandler+0x45c>)
 8001a24:	189b      	adds	r3, r3, r2
 8001a26:	881d      	ldrh	r5, [r3, #0]
 8001a28:	05ad      	lsls	r5, r5, #22
 8001a2a:	0dad      	lsrs	r5, r5, #22
          if (count != 0U)
 8001a2c:	d007      	beq.n	8001a3e <HAL_PCD_IRQHandler+0x2ca>
          {
            PCD_ReadPMA(hpcd->Instance, ep->xfer_buff, ep->pmaadress, count);
 8001a2e:	000b      	movs	r3, r1
 8001a30:	31fc      	adds	r1, #252	; 0xfc
 8001a32:	33fe      	adds	r3, #254	; 0xfe
 8001a34:	89da      	ldrh	r2, [r3, #14]
 8001a36:	69c9      	ldr	r1, [r1, #28]
 8001a38:	002b      	movs	r3, r5
 8001a3a:	f7ff fe81 	bl	8001740 <PCD_ReadPMA>
            }
          }
          PCD_FreeUserBuffer(hpcd->Instance, ep->num, PCD_EP_DBUF_OUT)  
        }
        /*multi-packet on the NON control OUT endpoint*/
        ep->xfer_count+=count;
 8001a3e:	211c      	movs	r1, #28
 8001a40:	0008      	movs	r0, r1
 8001a42:	4370      	muls	r0, r6
 8001a44:	1820      	adds	r0, r4, r0
 8001a46:	0002      	movs	r2, r0
 8001a48:	32fc      	adds	r2, #252	; 0xfc
 8001a4a:	6a53      	ldr	r3, [r2, #36]	; 0x24
 8001a4c:	195b      	adds	r3, r3, r5
 8001a4e:	6253      	str	r3, [r2, #36]	; 0x24
        ep->xfer_buff+=count;
 8001a50:	69d3      	ldr	r3, [r2, #28]
 8001a52:	469c      	mov	ip, r3
 8001a54:	44ac      	add	ip, r5
 8001a56:	4663      	mov	r3, ip
 8001a58:	61d3      	str	r3, [r2, #28]
       
        if ((ep->xfer_len == 0U) || (count < ep->maxpacket))
 8001a5a:	6a13      	ldr	r3, [r2, #32]
 8001a5c:	2b00      	cmp	r3, #0
 8001a5e:	d003      	beq.n	8001a68 <HAL_PCD_IRQHandler+0x2f4>
 8001a60:	6992      	ldr	r2, [r2, #24]
 8001a62:	4295      	cmp	r5, r2
 8001a64:	d300      	bcc.n	8001a68 <HAL_PCD_IRQHandler+0x2f4>
 8001a66:	e07b      	b.n	8001b60 <HAL_PCD_IRQHandler+0x3ec>
        {
          /* RX COMPLETE */
          HAL_PCD_DataOutStageCallback(hpcd, ep->num);
 8001a68:	000b      	movs	r3, r1
 8001a6a:	4373      	muls	r3, r6
 8001a6c:	18e3      	adds	r3, r4, r3
 8001a6e:	33ff      	adds	r3, #255	; 0xff
 8001a70:	7a59      	ldrb	r1, [r3, #9]
 8001a72:	0020      	movs	r0, r4
 8001a74:	f002 fb3a 	bl	80040ec <HAL_PCD_DataOutStageCallback>
          HAL_PCD_EP_Receive(hpcd, ep->num, ep->xfer_buff, ep->xfer_len);
        }
        
      } /* if((wEPVal & EP_CTR_RX) */
      
      if ((wEPVal & USB_EP_CTR_TX) != 0U)
 8001a78:	2280      	movs	r2, #128	; 0x80
 8001a7a:	883b      	ldrh	r3, [r7, #0]
 8001a7c:	4213      	tst	r3, r2
 8001a7e:	d100      	bne.n	8001a82 <HAL_PCD_IRQHandler+0x30e>
 8001a80:	e6e8      	b.n	8001854 <HAL_PCD_IRQHandler+0xe0>
      {
        ep = &hpcd->IN_ep[EPindex];
        
        /* clear int flag */
        PCD_CLEAR_TX_EP_CTR(hpcd->Instance, EPindex);
 8001a82:	6820      	ldr	r0, [r4, #0]
 8001a84:	00b3      	lsls	r3, r6, #2
 8001a86:	18c3      	adds	r3, r0, r3
 8001a88:	881a      	ldrh	r2, [r3, #0]
 8001a8a:	4952      	ldr	r1, [pc, #328]	; (8001bd4 <HAL_PCD_IRQHandler+0x460>)
 8001a8c:	400a      	ands	r2, r1
        
        /* IN double Buffering*/
        if (ep->doublebuffer == 0U)
 8001a8e:	211c      	movs	r1, #28
 8001a90:	4371      	muls	r1, r6
 8001a92:	1861      	adds	r1, r4, r1
        PCD_CLEAR_TX_EP_CTR(hpcd->Instance, EPindex);
 8001a94:	801a      	strh	r2, [r3, #0]
        if (ep->doublebuffer == 0U)
 8001a96:	000b      	movs	r3, r1
 8001a98:	0002      	movs	r2, r0
 8001a9a:	3332      	adds	r3, #50	; 0x32
 8001a9c:	781d      	ldrb	r5, [r3, #0]
 8001a9e:	3250      	adds	r2, #80	; 0x50
 8001aa0:	3b0a      	subs	r3, #10
 8001aa2:	2d00      	cmp	r5, #0
 8001aa4:	d163      	bne.n	8001b6e <HAL_PCD_IRQHandler+0x3fa>
        {
          ep->xfer_count = PCD_GET_EP_TX_CNT(hpcd->Instance, ep->num);
 8001aa6:	781b      	ldrb	r3, [r3, #0]
 8001aa8:	8812      	ldrh	r2, [r2, #0]
 8001aaa:	00db      	lsls	r3, r3, #3
 8001aac:	18c3      	adds	r3, r0, r3
 8001aae:	189b      	adds	r3, r3, r2
 8001ab0:	4a49      	ldr	r2, [pc, #292]	; (8001bd8 <HAL_PCD_IRQHandler+0x464>)
 8001ab2:	189b      	adds	r3, r3, r2
 8001ab4:	881b      	ldrh	r3, [r3, #0]
 8001ab6:	059b      	lsls	r3, r3, #22
 8001ab8:	0d9b      	lsrs	r3, r3, #22
 8001aba:	640b      	str	r3, [r1, #64]	; 0x40
          if (ep->xfer_count != 0)
 8001abc:	d003      	beq.n	8001ac6 <HAL_PCD_IRQHandler+0x352>
          {
            PCD_WritePMA(hpcd->Instance, ep->xfer_buff, ep->pmaadress, ep->xfer_count);
 8001abe:	8d8a      	ldrh	r2, [r1, #44]	; 0x2c
 8001ac0:	6b89      	ldr	r1, [r1, #56]	; 0x38
 8001ac2:	f7ff fd49 	bl	8001558 <PCD_WritePMA>
            }
          }
          PCD_FreeUserBuffer(hpcd->Instance, ep->num, PCD_EP_DBUF_IN) 
        }
        /*multi-packet on the NON control IN endpoint*/
        ep->xfer_count = PCD_GET_EP_TX_CNT(hpcd->Instance, ep->num);
 8001ac6:	6822      	ldr	r2, [r4, #0]
 8001ac8:	0013      	movs	r3, r2
 8001aca:	3350      	adds	r3, #80	; 0x50
 8001acc:	8818      	ldrh	r0, [r3, #0]
 8001ace:	231c      	movs	r3, #28
 8001ad0:	435e      	muls	r6, r3
 8001ad2:	19a6      	adds	r6, r4, r6
 8001ad4:	0031      	movs	r1, r6
 8001ad6:	3128      	adds	r1, #40	; 0x28
 8001ad8:	780b      	ldrb	r3, [r1, #0]
 8001ada:	00db      	lsls	r3, r3, #3
 8001adc:	18d3      	adds	r3, r2, r3
 8001ade:	4a3e      	ldr	r2, [pc, #248]	; (8001bd8 <HAL_PCD_IRQHandler+0x464>)
 8001ae0:	181b      	adds	r3, r3, r0
 8001ae2:	189b      	adds	r3, r3, r2
 8001ae4:	881a      	ldrh	r2, [r3, #0]
        ep->xfer_buff+=ep->xfer_count;
 8001ae6:	6bb3      	ldr	r3, [r6, #56]	; 0x38
        ep->xfer_count = PCD_GET_EP_TX_CNT(hpcd->Instance, ep->num);
 8001ae8:	0592      	lsls	r2, r2, #22
 8001aea:	0d92      	lsrs	r2, r2, #22
 8001aec:	6432      	str	r2, [r6, #64]	; 0x40
        ep->xfer_buff+=ep->xfer_count;
 8001aee:	189a      	adds	r2, r3, r2
       
        /* Zero Length Packet? */
        if (ep->xfer_len == 0U)
 8001af0:	6bf3      	ldr	r3, [r6, #60]	; 0x3c
        ep->xfer_buff+=ep->xfer_count;
 8001af2:	63b2      	str	r2, [r6, #56]	; 0x38
 8001af4:	7809      	ldrb	r1, [r1, #0]
        {
          /* TX COMPLETE */
          HAL_PCD_DataInStageCallback(hpcd, ep->num);
 8001af6:	0020      	movs	r0, r4
        if (ep->xfer_len == 0U)
 8001af8:	2b00      	cmp	r3, #0
 8001afa:	d164      	bne.n	8001bc6 <HAL_PCD_IRQHandler+0x452>
          HAL_PCD_DataInStageCallback(hpcd, ep->num);
 8001afc:	f002 fb02 	bl	8004104 <HAL_PCD_DataInStageCallback>
 8001b00:	e6a8      	b.n	8001854 <HAL_PCD_IRQHandler+0xe0>
          if ((PCD_GET_ENDPOINT(hpcd->Instance, ep->num)& USB_EP_DTOG_RX) == USB_EP_DTOG_RX)
 8001b02:	009d      	lsls	r5, r3, #2
            count = PCD_GET_EP_DBUF0_CNT(hpcd->Instance, ep->num);
 8001b04:	8812      	ldrh	r2, [r2, #0]
 8001b06:	00db      	lsls	r3, r3, #3
          if ((PCD_GET_ENDPOINT(hpcd->Instance, ep->num)& USB_EP_DTOG_RX) == USB_EP_DTOG_RX)
 8001b08:	5a2d      	ldrh	r5, [r5, r0]
            count = PCD_GET_EP_DBUF0_CNT(hpcd->Instance, ep->num);
 8001b0a:	18c3      	adds	r3, r0, r3
 8001b0c:	189b      	adds	r3, r3, r2
          if ((PCD_GET_ENDPOINT(hpcd->Instance, ep->num)& USB_EP_DTOG_RX) == USB_EP_DTOG_RX)
 8001b0e:	046d      	lsls	r5, r5, #17
 8001b10:	d51c      	bpl.n	8001b4c <HAL_PCD_IRQHandler+0x3d8>
            count = PCD_GET_EP_DBUF0_CNT(hpcd->Instance, ep->num);
 8001b12:	4a31      	ldr	r2, [pc, #196]	; (8001bd8 <HAL_PCD_IRQHandler+0x464>)
 8001b14:	189b      	adds	r3, r3, r2
 8001b16:	881d      	ldrh	r5, [r3, #0]
 8001b18:	05ad      	lsls	r5, r5, #22
 8001b1a:	0dad      	lsrs	r5, r5, #22
            if (count != 0U)
 8001b1c:	d007      	beq.n	8001b2e <HAL_PCD_IRQHandler+0x3ba>
              PCD_ReadPMA(hpcd->Instance, ep->xfer_buff, ep->pmaaddr0, count);
 8001b1e:	000b      	movs	r3, r1
 8001b20:	33fe      	adds	r3, #254	; 0xfe
 8001b22:	8a1a      	ldrh	r2, [r3, #16]
              PCD_ReadPMA(hpcd->Instance, ep->xfer_buff, ep->pmaaddr1, count);
 8001b24:	31fc      	adds	r1, #252	; 0xfc
 8001b26:	002b      	movs	r3, r5
 8001b28:	69c9      	ldr	r1, [r1, #28]
 8001b2a:	f7ff fe09 	bl	8001740 <PCD_ReadPMA>
          PCD_FreeUserBuffer(hpcd->Instance, ep->num, PCD_EP_DBUF_OUT)  
 8001b2e:	231c      	movs	r3, #28
 8001b30:	4373      	muls	r3, r6
 8001b32:	18e3      	adds	r3, r4, r3
 8001b34:	33ff      	adds	r3, #255	; 0xff
 8001b36:	7a5b      	ldrb	r3, [r3, #9]
 8001b38:	6822      	ldr	r2, [r4, #0]
 8001b3a:	009b      	lsls	r3, r3, #2
 8001b3c:	18d3      	adds	r3, r2, r3
 8001b3e:	881a      	ldrh	r2, [r3, #0]
 8001b40:	4926      	ldr	r1, [pc, #152]	; (8001bdc <HAL_PCD_IRQHandler+0x468>)
 8001b42:	4011      	ands	r1, r2
 8001b44:	4a26      	ldr	r2, [pc, #152]	; (8001be0 <HAL_PCD_IRQHandler+0x46c>)
 8001b46:	430a      	orrs	r2, r1
 8001b48:	801a      	strh	r2, [r3, #0]
 8001b4a:	e778      	b.n	8001a3e <HAL_PCD_IRQHandler+0x2ca>
            count = PCD_GET_EP_DBUF1_CNT(hpcd->Instance, ep->num);
 8001b4c:	4a20      	ldr	r2, [pc, #128]	; (8001bd0 <HAL_PCD_IRQHandler+0x45c>)
 8001b4e:	189b      	adds	r3, r3, r2
 8001b50:	881d      	ldrh	r5, [r3, #0]
 8001b52:	05ad      	lsls	r5, r5, #22
 8001b54:	0dad      	lsrs	r5, r5, #22
            if (count != 0U)
 8001b56:	d0ea      	beq.n	8001b2e <HAL_PCD_IRQHandler+0x3ba>
              PCD_ReadPMA(hpcd->Instance, ep->xfer_buff, ep->pmaaddr1, count);
 8001b58:	000b      	movs	r3, r1
 8001b5a:	33fe      	adds	r3, #254	; 0xfe
 8001b5c:	8a5a      	ldrh	r2, [r3, #18]
 8001b5e:	e7e1      	b.n	8001b24 <HAL_PCD_IRQHandler+0x3b0>
          HAL_PCD_EP_Receive(hpcd, ep->num, ep->xfer_buff, ep->xfer_len);
 8001b60:	30ff      	adds	r0, #255	; 0xff
 8001b62:	7a41      	ldrb	r1, [r0, #9]
 8001b64:	4662      	mov	r2, ip
 8001b66:	0020      	movs	r0, r4
 8001b68:	f7ff fba8 	bl	80012bc <HAL_PCD_EP_Receive>
 8001b6c:	e784      	b.n	8001a78 <HAL_PCD_IRQHandler+0x304>
          if ((PCD_GET_ENDPOINT(hpcd->Instance, ep->num)& USB_EP_DTOG_TX) == USB_EP_DTOG_TX)
 8001b6e:	781b      	ldrb	r3, [r3, #0]
            ep->xfer_count = PCD_GET_EP_DBUF0_CNT(hpcd->Instance, ep->num);
 8001b70:	8812      	ldrh	r2, [r2, #0]
          if ((PCD_GET_ENDPOINT(hpcd->Instance, ep->num)& USB_EP_DTOG_TX) == USB_EP_DTOG_TX)
 8001b72:	009d      	lsls	r5, r3, #2
 8001b74:	5a2d      	ldrh	r5, [r5, r0]
 8001b76:	00db      	lsls	r3, r3, #3
            ep->xfer_count = PCD_GET_EP_DBUF0_CNT(hpcd->Instance, ep->num);
 8001b78:	18c3      	adds	r3, r0, r3
 8001b7a:	189b      	adds	r3, r3, r2
          if ((PCD_GET_ENDPOINT(hpcd->Instance, ep->num)& USB_EP_DTOG_TX) == USB_EP_DTOG_TX)
 8001b7c:	066d      	lsls	r5, r5, #25
 8001b7e:	d519      	bpl.n	8001bb4 <HAL_PCD_IRQHandler+0x440>
            ep->xfer_count = PCD_GET_EP_DBUF0_CNT(hpcd->Instance, ep->num);
 8001b80:	4a15      	ldr	r2, [pc, #84]	; (8001bd8 <HAL_PCD_IRQHandler+0x464>)
 8001b82:	189b      	adds	r3, r3, r2
 8001b84:	881b      	ldrh	r3, [r3, #0]
 8001b86:	059b      	lsls	r3, r3, #22
 8001b88:	0d9b      	lsrs	r3, r3, #22
 8001b8a:	640b      	str	r3, [r1, #64]	; 0x40
            if (ep->xfer_count != 0U)
 8001b8c:	d003      	beq.n	8001b96 <HAL_PCD_IRQHandler+0x422>
              PCD_WritePMA(hpcd->Instance, ep->xfer_buff, ep->pmaaddr0, ep->xfer_count);
 8001b8e:	8dca      	ldrh	r2, [r1, #46]	; 0x2e
              PCD_WritePMA(hpcd->Instance, ep->xfer_buff, ep->pmaaddr1, ep->xfer_count);
 8001b90:	6b89      	ldr	r1, [r1, #56]	; 0x38
 8001b92:	f7ff fce1 	bl	8001558 <PCD_WritePMA>
          PCD_FreeUserBuffer(hpcd->Instance, ep->num, PCD_EP_DBUF_IN) 
 8001b96:	231c      	movs	r3, #28
 8001b98:	4373      	muls	r3, r6
 8001b9a:	18e3      	adds	r3, r4, r3
 8001b9c:	3328      	adds	r3, #40	; 0x28
 8001b9e:	781b      	ldrb	r3, [r3, #0]
 8001ba0:	6822      	ldr	r2, [r4, #0]
 8001ba2:	009b      	lsls	r3, r3, #2
 8001ba4:	18d1      	adds	r1, r2, r3
 8001ba6:	880b      	ldrh	r3, [r1, #0]
 8001ba8:	4a0c      	ldr	r2, [pc, #48]	; (8001bdc <HAL_PCD_IRQHandler+0x468>)
 8001baa:	401a      	ands	r2, r3
 8001bac:	4b0d      	ldr	r3, [pc, #52]	; (8001be4 <HAL_PCD_IRQHandler+0x470>)
 8001bae:	4313      	orrs	r3, r2
 8001bb0:	800b      	strh	r3, [r1, #0]
 8001bb2:	e788      	b.n	8001ac6 <HAL_PCD_IRQHandler+0x352>
            ep->xfer_count = PCD_GET_EP_DBUF1_CNT(hpcd->Instance, ep->num);
 8001bb4:	4a06      	ldr	r2, [pc, #24]	; (8001bd0 <HAL_PCD_IRQHandler+0x45c>)
 8001bb6:	189b      	adds	r3, r3, r2
 8001bb8:	881b      	ldrh	r3, [r3, #0]
 8001bba:	059b      	lsls	r3, r3, #22
 8001bbc:	0d9b      	lsrs	r3, r3, #22
 8001bbe:	640b      	str	r3, [r1, #64]	; 0x40
            if (ep->xfer_count != 0U)
 8001bc0:	d0e9      	beq.n	8001b96 <HAL_PCD_IRQHandler+0x422>
              PCD_WritePMA(hpcd->Instance, ep->xfer_buff, ep->pmaaddr1, ep->xfer_count);
 8001bc2:	8e0a      	ldrh	r2, [r1, #48]	; 0x30
 8001bc4:	e7e4      	b.n	8001b90 <HAL_PCD_IRQHandler+0x41c>
        }
        else
        {
          HAL_PCD_EP_Transmit(hpcd, ep->num, ep->xfer_buff, ep->xfer_len);
 8001bc6:	f7ff fcdb 	bl	8001580 <HAL_PCD_EP_Transmit>
 8001bca:	e643      	b.n	8001854 <HAL_PCD_IRQHandler+0xe0>
 8001bcc:	00000f8f 	.word	0x00000f8f
 8001bd0:	00000406 	.word	0x00000406
 8001bd4:	ffff8f0f 	.word	0xffff8f0f
 8001bd8:	00000402 	.word	0x00000402
 8001bdc:	00000f0f 	.word	0x00000f0f
 8001be0:	ffff80c0 	.word	0xffff80c0
 8001be4:	ffffc080 	.word	0xffffc080

08001be8 <HAL_PCDEx_PMAConfig>:
HAL_StatusTypeDef  HAL_PCDEx_PMAConfig(PCD_HandleTypeDef *hpcd, 
                        uint16_t ep_addr,
                        uint16_t ep_kind,
                        uint32_t pmaadress)

{
 8001be8:	b530      	push	{r4, r5, lr}
 8001bea:	241c      	movs	r4, #28
  PCD_EPTypeDef *ep;
  
  /* initialize ep structure*/
  if ((0x80U & ep_addr) == 0x80U)
 8001bec:	060d      	lsls	r5, r1, #24
 8001bee:	d50a      	bpl.n	8001c06 <HAL_PCDEx_PMAConfig+0x1e>
  {
    ep = &hpcd->IN_ep[ep_addr & 0x7FU];
 8001bf0:	257f      	movs	r5, #127	; 0x7f
 8001bf2:	4029      	ands	r1, r5
 8001bf4:	4361      	muls	r1, r4
 8001bf6:	3128      	adds	r1, #40	; 0x28
  }
  else
  {
    ep = &hpcd->OUT_ep[ep_addr];
 8001bf8:	1841      	adds	r1, r0, r1
  }
  
  /* Here we check if the endpoint is single or double Buffer*/
  if (ep_kind == PCD_SNG_BUF)
 8001bfa:	2a00      	cmp	r2, #0
 8001bfc:	d107      	bne.n	8001c0e <HAL_PCDEx_PMAConfig+0x26>
  {
    /*Single Buffer*/
    ep->doublebuffer = 0U;
 8001bfe:	728a      	strb	r2, [r1, #10]
    /*Configure the PMA*/
    ep->pmaadress = (uint16_t)pmaadress;
 8001c00:	808b      	strh	r3, [r1, #4]
    ep->pmaaddr0 =  pmaadress & 0xFFFFU;
    ep->pmaaddr1 =  (pmaadress & 0xFFFF0000U) >> 16U;
  }
  
  return HAL_OK;
}
 8001c02:	2000      	movs	r0, #0
 8001c04:	bd30      	pop	{r4, r5, pc}
    ep = &hpcd->OUT_ep[ep_addr];
 8001c06:	4361      	muls	r1, r4
 8001c08:	3109      	adds	r1, #9
 8001c0a:	31ff      	adds	r1, #255	; 0xff
 8001c0c:	e7f4      	b.n	8001bf8 <HAL_PCDEx_PMAConfig+0x10>
    ep->doublebuffer = 1U;
 8001c0e:	2201      	movs	r2, #1
    ep->pmaaddr0 =  pmaadress & 0xFFFFU;
 8001c10:	80cb      	strh	r3, [r1, #6]
    ep->pmaaddr1 =  (pmaadress & 0xFFFF0000U) >> 16U;
 8001c12:	0c1b      	lsrs	r3, r3, #16
    ep->doublebuffer = 1U;
 8001c14:	728a      	strb	r2, [r1, #10]
    ep->pmaaddr1 =  (pmaadress & 0xFFFF0000U) >> 16U;
 8001c16:	810b      	strh	r3, [r1, #8]
 8001c18:	e7f3      	b.n	8001c02 <HAL_PCDEx_PMAConfig+0x1a>
	...

08001c1c <HAL_RCC_OscConfig>:
  *         supported by this macro. User should request a transition to HSE Off
  *         first and then HSE On or HSE Bypass.
  * @retval HAL status
  */
HAL_StatusTypeDef HAL_RCC_OscConfig(RCC_OscInitTypeDef  *RCC_OscInitStruct)
{
 8001c1c:	b5f0      	push	{r4, r5, r6, r7, lr}
  /* Check the parameters */
  assert_param(RCC_OscInitStruct != NULL);
  assert_param(IS_RCC_OSCILLATORTYPE(RCC_OscInitStruct->OscillatorType));

  /*------------------------------- HSE Configuration ------------------------*/ 
  if(((RCC_OscInitStruct->OscillatorType) & RCC_OSCILLATORTYPE_HSE) == RCC_OSCILLATORTYPE_HSE)
 8001c1e:	6803      	ldr	r3, [r0, #0]
{
 8001c20:	b085      	sub	sp, #20
 8001c22:	0005      	movs	r5, r0
  if(((RCC_OscInitStruct->OscillatorType) & RCC_OSCILLATORTYPE_HSE) == RCC_OSCILLATORTYPE_HSE)
 8001c24:	07db      	lsls	r3, r3, #31
 8001c26:	d42f      	bmi.n	8001c88 <HAL_RCC_OscConfig+0x6c>
        }
      }
    }
  }
  /*----------------------------- HSI Configuration --------------------------*/ 
  if(((RCC_OscInitStruct->OscillatorType) & RCC_OSCILLATORTYPE_HSI) == RCC_OSCILLATORTYPE_HSI)
 8001c28:	682b      	ldr	r3, [r5, #0]
 8001c2a:	079b      	lsls	r3, r3, #30
 8001c2c:	d500      	bpl.n	8001c30 <HAL_RCC_OscConfig+0x14>
 8001c2e:	e086      	b.n	8001d3e <HAL_RCC_OscConfig+0x122>
        }
      }
    }
  }
  /*------------------------------ LSI Configuration -------------------------*/ 
  if(((RCC_OscInitStruct->OscillatorType) & RCC_OSCILLATORTYPE_LSI) == RCC_OSCILLATORTYPE_LSI)
 8001c30:	682b      	ldr	r3, [r5, #0]
 8001c32:	071b      	lsls	r3, r3, #28
 8001c34:	d500      	bpl.n	8001c38 <HAL_RCC_OscConfig+0x1c>
 8001c36:	e0c6      	b.n	8001dc6 <HAL_RCC_OscConfig+0x1aa>
        }
      }
    }
  }
  /*------------------------------ LSE Configuration -------------------------*/ 
  if(((RCC_OscInitStruct->OscillatorType) & RCC_OSCILLATORTYPE_LSE) == RCC_OSCILLATORTYPE_LSE)
 8001c38:	682b      	ldr	r3, [r5, #0]
 8001c3a:	075b      	lsls	r3, r3, #29
 8001c3c:	d500      	bpl.n	8001c40 <HAL_RCC_OscConfig+0x24>
 8001c3e:	e0e9      	b.n	8001e14 <HAL_RCC_OscConfig+0x1f8>
      __HAL_RCC_PWR_CLK_DISABLE();
    }
  }

  /*----------------------------- HSI14 Configuration --------------------------*/
  if(((RCC_OscInitStruct->OscillatorType) & RCC_OSCILLATORTYPE_HSI14) == RCC_OSCILLATORTYPE_HSI14)
 8001c40:	682b      	ldr	r3, [r5, #0]
 8001c42:	06db      	lsls	r3, r3, #27
 8001c44:	d51a      	bpl.n	8001c7c <HAL_RCC_OscConfig+0x60>
    /* Check the parameters */
    assert_param(IS_RCC_HSI14(RCC_OscInitStruct->HSI14State));
    assert_param(IS_RCC_CALIBRATION_VALUE(RCC_OscInitStruct->HSI14CalibrationValue));

    /* Check the HSI14 State */
    if(RCC_OscInitStruct->HSI14State == RCC_HSI14_ON)
 8001c46:	696a      	ldr	r2, [r5, #20]
 8001c48:	4cba      	ldr	r4, [pc, #744]	; (8001f34 <HAL_RCC_OscConfig+0x318>)
 8001c4a:	2304      	movs	r3, #4
 8001c4c:	2a01      	cmp	r2, #1
 8001c4e:	d000      	beq.n	8001c52 <HAL_RCC_OscConfig+0x36>
 8001c50:	e155      	b.n	8001efe <HAL_RCC_OscConfig+0x2e2>
    {
      /* Disable ADC control of the Internal High Speed oscillator HSI14 */
      __HAL_RCC_HSI14ADC_DISABLE();
 8001c52:	6b61      	ldr	r1, [r4, #52]	; 0x34

      /* Get Start Tick */
      tickstart = HAL_GetTick();
      
      /* Wait till HSI is ready */  
      while(__HAL_RCC_GET_FLAG(RCC_FLAG_HSI14RDY) == RESET)
 8001c54:	2602      	movs	r6, #2
      __HAL_RCC_HSI14ADC_DISABLE();
 8001c56:	430b      	orrs	r3, r1
 8001c58:	6363      	str	r3, [r4, #52]	; 0x34
      __HAL_RCC_HSI14_ENABLE();
 8001c5a:	6b63      	ldr	r3, [r4, #52]	; 0x34
 8001c5c:	431a      	orrs	r2, r3
 8001c5e:	6362      	str	r2, [r4, #52]	; 0x34
      tickstart = HAL_GetTick();
 8001c60:	f7fe ff1a 	bl	8000a98 <HAL_GetTick>
 8001c64:	0007      	movs	r7, r0
      while(__HAL_RCC_GET_FLAG(RCC_FLAG_HSI14RDY) == RESET)
 8001c66:	6b63      	ldr	r3, [r4, #52]	; 0x34
 8001c68:	4233      	tst	r3, r6
 8001c6a:	d100      	bne.n	8001c6e <HAL_RCC_OscConfig+0x52>
 8001c6c:	e140      	b.n	8001ef0 <HAL_RCC_OscConfig+0x2d4>
    {
      /* Enable ADC control of the Internal High Speed oscillator HSI14 */
      __HAL_RCC_HSI14ADC_ENABLE();

      /* Adjusts the Internal High Speed oscillator 14Mhz (HSI14) calibration value. */
      __HAL_RCC_HSI14_CALIBRATIONVALUE_ADJUST(RCC_OscInitStruct->HSI14CalibrationValue);
 8001c6e:	21f8      	movs	r1, #248	; 0xf8
 8001c70:	6b62      	ldr	r2, [r4, #52]	; 0x34
 8001c72:	69ab      	ldr	r3, [r5, #24]
 8001c74:	438a      	bics	r2, r1
 8001c76:	00db      	lsls	r3, r3, #3
 8001c78:	4313      	orrs	r3, r2
 8001c7a:	6363      	str	r3, [r4, #52]	; 0x34
#endif /* RCC_HSI48_SUPPORT */
       
  /*-------------------------------- PLL Configuration -----------------------*/
  /* Check the parameters */
  assert_param(IS_RCC_PLL(RCC_OscInitStruct->PLL.PLLState));
  if ((RCC_OscInitStruct->PLL.PLLState) != RCC_PLL_NONE)
 8001c7c:	6a29      	ldr	r1, [r5, #32]
 8001c7e:	2900      	cmp	r1, #0
 8001c80:	d000      	beq.n	8001c84 <HAL_RCC_OscConfig+0x68>
 8001c82:	e163      	b.n	8001f4c <HAL_RCC_OscConfig+0x330>
    {
      return HAL_ERROR;
    }
  }
  
  return HAL_OK;
 8001c84:	2000      	movs	r0, #0
 8001c86:	e018      	b.n	8001cba <HAL_RCC_OscConfig+0x9e>
    if((__HAL_RCC_GET_SYSCLK_SOURCE() == RCC_SYSCLKSOURCE_STATUS_HSE) 
 8001c88:	210c      	movs	r1, #12
 8001c8a:	4caa      	ldr	r4, [pc, #680]	; (8001f34 <HAL_RCC_OscConfig+0x318>)
 8001c8c:	6862      	ldr	r2, [r4, #4]
 8001c8e:	400a      	ands	r2, r1
 8001c90:	2a04      	cmp	r2, #4
 8001c92:	d00b      	beq.n	8001cac <HAL_RCC_OscConfig+0x90>
       || ((__HAL_RCC_GET_SYSCLK_SOURCE() == RCC_SYSCLKSOURCE_STATUS_PLLCLK) && (__HAL_RCC_GET_PLL_OSCSOURCE() == RCC_PLLSOURCE_HSE)))
 8001c94:	6863      	ldr	r3, [r4, #4]
 8001c96:	400b      	ands	r3, r1
 8001c98:	2b08      	cmp	r3, #8
 8001c9a:	d110      	bne.n	8001cbe <HAL_RCC_OscConfig+0xa2>
 8001c9c:	22c0      	movs	r2, #192	; 0xc0
 8001c9e:	6863      	ldr	r3, [r4, #4]
 8001ca0:	0252      	lsls	r2, r2, #9
 8001ca2:	4013      	ands	r3, r2
 8001ca4:	2280      	movs	r2, #128	; 0x80
 8001ca6:	0252      	lsls	r2, r2, #9
 8001ca8:	4293      	cmp	r3, r2
 8001caa:	d108      	bne.n	8001cbe <HAL_RCC_OscConfig+0xa2>
      if((__HAL_RCC_GET_FLAG(RCC_FLAG_HSERDY) != RESET) && (RCC_OscInitStruct->HSEState == RCC_HSE_OFF))
 8001cac:	6823      	ldr	r3, [r4, #0]
 8001cae:	039b      	lsls	r3, r3, #14
 8001cb0:	d5ba      	bpl.n	8001c28 <HAL_RCC_OscConfig+0xc>
 8001cb2:	686b      	ldr	r3, [r5, #4]
 8001cb4:	2b00      	cmp	r3, #0
 8001cb6:	d1b7      	bne.n	8001c28 <HAL_RCC_OscConfig+0xc>
        return HAL_ERROR;
 8001cb8:	2001      	movs	r0, #1
}
 8001cba:	b005      	add	sp, #20
 8001cbc:	bdf0      	pop	{r4, r5, r6, r7, pc}
      __HAL_RCC_HSE_CONFIG(RCC_OscInitStruct->HSEState);
 8001cbe:	686b      	ldr	r3, [r5, #4]
 8001cc0:	2b01      	cmp	r3, #1
 8001cc2:	d113      	bne.n	8001cec <HAL_RCC_OscConfig+0xd0>
 8001cc4:	2380      	movs	r3, #128	; 0x80
 8001cc6:	6822      	ldr	r2, [r4, #0]
 8001cc8:	025b      	lsls	r3, r3, #9
 8001cca:	4313      	orrs	r3, r2
 8001ccc:	6023      	str	r3, [r4, #0]
        tickstart = HAL_GetTick();
 8001cce:	f7fe fee3 	bl	8000a98 <HAL_GetTick>
        while(__HAL_RCC_GET_FLAG(RCC_FLAG_HSERDY) == RESET)
 8001cd2:	2680      	movs	r6, #128	; 0x80
        tickstart = HAL_GetTick();
 8001cd4:	0007      	movs	r7, r0
        while(__HAL_RCC_GET_FLAG(RCC_FLAG_HSERDY) == RESET)
 8001cd6:	02b6      	lsls	r6, r6, #10
 8001cd8:	6823      	ldr	r3, [r4, #0]
 8001cda:	4233      	tst	r3, r6
 8001cdc:	d1a4      	bne.n	8001c28 <HAL_RCC_OscConfig+0xc>
          if((HAL_GetTick() - tickstart ) > HSE_TIMEOUT_VALUE)
 8001cde:	f7fe fedb 	bl	8000a98 <HAL_GetTick>
 8001ce2:	1bc0      	subs	r0, r0, r7
 8001ce4:	2864      	cmp	r0, #100	; 0x64
 8001ce6:	d9f7      	bls.n	8001cd8 <HAL_RCC_OscConfig+0xbc>
            return HAL_TIMEOUT;
 8001ce8:	2003      	movs	r0, #3
 8001cea:	e7e6      	b.n	8001cba <HAL_RCC_OscConfig+0x9e>
      __HAL_RCC_HSE_CONFIG(RCC_OscInitStruct->HSEState);
 8001cec:	2b00      	cmp	r3, #0
 8001cee:	d116      	bne.n	8001d1e <HAL_RCC_OscConfig+0x102>
 8001cf0:	6823      	ldr	r3, [r4, #0]
 8001cf2:	4a91      	ldr	r2, [pc, #580]	; (8001f38 <HAL_RCC_OscConfig+0x31c>)
        while(__HAL_RCC_GET_FLAG(RCC_FLAG_HSERDY) != RESET)
 8001cf4:	2680      	movs	r6, #128	; 0x80
      __HAL_RCC_HSE_CONFIG(RCC_OscInitStruct->HSEState);
 8001cf6:	4013      	ands	r3, r2
 8001cf8:	6023      	str	r3, [r4, #0]
 8001cfa:	6823      	ldr	r3, [r4, #0]
 8001cfc:	4a8f      	ldr	r2, [pc, #572]	; (8001f3c <HAL_RCC_OscConfig+0x320>)
        while(__HAL_RCC_GET_FLAG(RCC_FLAG_HSERDY) != RESET)
 8001cfe:	02b6      	lsls	r6, r6, #10
      __HAL_RCC_HSE_CONFIG(RCC_OscInitStruct->HSEState);
 8001d00:	4013      	ands	r3, r2
 8001d02:	6023      	str	r3, [r4, #0]
        tickstart = HAL_GetTick();
 8001d04:	f7fe fec8 	bl	8000a98 <HAL_GetTick>
 8001d08:	0007      	movs	r7, r0
        while(__HAL_RCC_GET_FLAG(RCC_FLAG_HSERDY) != RESET)
 8001d0a:	6823      	ldr	r3, [r4, #0]
 8001d0c:	4233      	tst	r3, r6
 8001d0e:	d100      	bne.n	8001d12 <HAL_RCC_OscConfig+0xf6>
 8001d10:	e78a      	b.n	8001c28 <HAL_RCC_OscConfig+0xc>
           if((HAL_GetTick() - tickstart ) > HSE_TIMEOUT_VALUE)
 8001d12:	f7fe fec1 	bl	8000a98 <HAL_GetTick>
 8001d16:	1bc0      	subs	r0, r0, r7
 8001d18:	2864      	cmp	r0, #100	; 0x64
 8001d1a:	d9f6      	bls.n	8001d0a <HAL_RCC_OscConfig+0xee>
 8001d1c:	e7e4      	b.n	8001ce8 <HAL_RCC_OscConfig+0xcc>
      __HAL_RCC_HSE_CONFIG(RCC_OscInitStruct->HSEState);
 8001d1e:	2b05      	cmp	r3, #5
 8001d20:	d105      	bne.n	8001d2e <HAL_RCC_OscConfig+0x112>
 8001d22:	2380      	movs	r3, #128	; 0x80
 8001d24:	6822      	ldr	r2, [r4, #0]
 8001d26:	02db      	lsls	r3, r3, #11
 8001d28:	4313      	orrs	r3, r2
 8001d2a:	6023      	str	r3, [r4, #0]
 8001d2c:	e7ca      	b.n	8001cc4 <HAL_RCC_OscConfig+0xa8>
 8001d2e:	6823      	ldr	r3, [r4, #0]
 8001d30:	4a81      	ldr	r2, [pc, #516]	; (8001f38 <HAL_RCC_OscConfig+0x31c>)
 8001d32:	4013      	ands	r3, r2
 8001d34:	6023      	str	r3, [r4, #0]
 8001d36:	6823      	ldr	r3, [r4, #0]
 8001d38:	4a80      	ldr	r2, [pc, #512]	; (8001f3c <HAL_RCC_OscConfig+0x320>)
 8001d3a:	4013      	ands	r3, r2
 8001d3c:	e7c6      	b.n	8001ccc <HAL_RCC_OscConfig+0xb0>
    if((__HAL_RCC_GET_SYSCLK_SOURCE() == RCC_SYSCLKSOURCE_STATUS_HSI) 
 8001d3e:	220c      	movs	r2, #12
 8001d40:	4c7c      	ldr	r4, [pc, #496]	; (8001f34 <HAL_RCC_OscConfig+0x318>)
 8001d42:	6863      	ldr	r3, [r4, #4]
 8001d44:	4213      	tst	r3, r2
 8001d46:	d00b      	beq.n	8001d60 <HAL_RCC_OscConfig+0x144>
       || ((__HAL_RCC_GET_SYSCLK_SOURCE() == RCC_SYSCLKSOURCE_STATUS_PLLCLK) && (__HAL_RCC_GET_PLL_OSCSOURCE() == RCC_PLLSOURCE_HSI)))
 8001d48:	6863      	ldr	r3, [r4, #4]
 8001d4a:	4013      	ands	r3, r2
 8001d4c:	2b08      	cmp	r3, #8
 8001d4e:	d115      	bne.n	8001d7c <HAL_RCC_OscConfig+0x160>
 8001d50:	22c0      	movs	r2, #192	; 0xc0
 8001d52:	6863      	ldr	r3, [r4, #4]
 8001d54:	0252      	lsls	r2, r2, #9
 8001d56:	4013      	ands	r3, r2
 8001d58:	2280      	movs	r2, #128	; 0x80
 8001d5a:	0212      	lsls	r2, r2, #8
 8001d5c:	4293      	cmp	r3, r2
 8001d5e:	d10d      	bne.n	8001d7c <HAL_RCC_OscConfig+0x160>
      if((__HAL_RCC_GET_FLAG(RCC_FLAG_HSIRDY) != RESET) && (RCC_OscInitStruct->HSIState != RCC_HSI_ON))
 8001d60:	6823      	ldr	r3, [r4, #0]
 8001d62:	079b      	lsls	r3, r3, #30
 8001d64:	d502      	bpl.n	8001d6c <HAL_RCC_OscConfig+0x150>
 8001d66:	68eb      	ldr	r3, [r5, #12]
 8001d68:	2b01      	cmp	r3, #1
 8001d6a:	d1a5      	bne.n	8001cb8 <HAL_RCC_OscConfig+0x9c>
        __HAL_RCC_HSI_CALIBRATIONVALUE_ADJUST(RCC_OscInitStruct->HSICalibrationValue);
 8001d6c:	21f8      	movs	r1, #248	; 0xf8
 8001d6e:	6822      	ldr	r2, [r4, #0]
 8001d70:	692b      	ldr	r3, [r5, #16]
 8001d72:	438a      	bics	r2, r1
 8001d74:	00db      	lsls	r3, r3, #3
 8001d76:	4313      	orrs	r3, r2
 8001d78:	6023      	str	r3, [r4, #0]
 8001d7a:	e759      	b.n	8001c30 <HAL_RCC_OscConfig+0x14>
      if(RCC_OscInitStruct->HSIState != RCC_HSI_OFF)
 8001d7c:	68ea      	ldr	r2, [r5, #12]
 8001d7e:	2301      	movs	r3, #1
 8001d80:	2a00      	cmp	r2, #0
 8001d82:	d00f      	beq.n	8001da4 <HAL_RCC_OscConfig+0x188>
        __HAL_RCC_HSI_ENABLE();
 8001d84:	6822      	ldr	r2, [r4, #0]
        while(__HAL_RCC_GET_FLAG(RCC_FLAG_HSIRDY) == RESET)
 8001d86:	2602      	movs	r6, #2
        __HAL_RCC_HSI_ENABLE();
 8001d88:	4313      	orrs	r3, r2
 8001d8a:	6023      	str	r3, [r4, #0]
        tickstart = HAL_GetTick();
 8001d8c:	f7fe fe84 	bl	8000a98 <HAL_GetTick>
 8001d90:	0007      	movs	r7, r0
        while(__HAL_RCC_GET_FLAG(RCC_FLAG_HSIRDY) == RESET)
 8001d92:	6823      	ldr	r3, [r4, #0]
 8001d94:	4233      	tst	r3, r6
 8001d96:	d1e9      	bne.n	8001d6c <HAL_RCC_OscConfig+0x150>
          if((HAL_GetTick() - tickstart ) > HSI_TIMEOUT_VALUE)
 8001d98:	f7fe fe7e 	bl	8000a98 <HAL_GetTick>
 8001d9c:	1bc0      	subs	r0, r0, r7
 8001d9e:	2802      	cmp	r0, #2
 8001da0:	d9f7      	bls.n	8001d92 <HAL_RCC_OscConfig+0x176>
 8001da2:	e7a1      	b.n	8001ce8 <HAL_RCC_OscConfig+0xcc>
        __HAL_RCC_HSI_DISABLE();
 8001da4:	6822      	ldr	r2, [r4, #0]
        while(__HAL_RCC_GET_FLAG(RCC_FLAG_HSIRDY) != RESET)
 8001da6:	2602      	movs	r6, #2
        __HAL_RCC_HSI_DISABLE();
 8001da8:	439a      	bics	r2, r3
 8001daa:	6022      	str	r2, [r4, #0]
        tickstart = HAL_GetTick();
 8001dac:	f7fe fe74 	bl	8000a98 <HAL_GetTick>
 8001db0:	0007      	movs	r7, r0
        while(__HAL_RCC_GET_FLAG(RCC_FLAG_HSIRDY) != RESET)
 8001db2:	6823      	ldr	r3, [r4, #0]
 8001db4:	4233      	tst	r3, r6
 8001db6:	d100      	bne.n	8001dba <HAL_RCC_OscConfig+0x19e>
 8001db8:	e73a      	b.n	8001c30 <HAL_RCC_OscConfig+0x14>
          if((HAL_GetTick() - tickstart ) > HSI_TIMEOUT_VALUE)
 8001dba:	f7fe fe6d 	bl	8000a98 <HAL_GetTick>
 8001dbe:	1bc0      	subs	r0, r0, r7
 8001dc0:	2802      	cmp	r0, #2
 8001dc2:	d9f6      	bls.n	8001db2 <HAL_RCC_OscConfig+0x196>
 8001dc4:	e790      	b.n	8001ce8 <HAL_RCC_OscConfig+0xcc>
    if(RCC_OscInitStruct->LSIState != RCC_LSI_OFF)
 8001dc6:	69ea      	ldr	r2, [r5, #28]
 8001dc8:	2301      	movs	r3, #1
 8001dca:	4c5a      	ldr	r4, [pc, #360]	; (8001f34 <HAL_RCC_OscConfig+0x318>)
 8001dcc:	2a00      	cmp	r2, #0
 8001dce:	d010      	beq.n	8001df2 <HAL_RCC_OscConfig+0x1d6>
      __HAL_RCC_LSI_ENABLE();
 8001dd0:	6a62      	ldr	r2, [r4, #36]	; 0x24
      while(__HAL_RCC_GET_FLAG(RCC_FLAG_LSIRDY) == RESET)
 8001dd2:	2602      	movs	r6, #2
      __HAL_RCC_LSI_ENABLE();
 8001dd4:	4313      	orrs	r3, r2
 8001dd6:	6263      	str	r3, [r4, #36]	; 0x24
      tickstart = HAL_GetTick();
 8001dd8:	f7fe fe5e 	bl	8000a98 <HAL_GetTick>
 8001ddc:	0007      	movs	r7, r0
      while(__HAL_RCC_GET_FLAG(RCC_FLAG_LSIRDY) == RESET)
 8001dde:	6a63      	ldr	r3, [r4, #36]	; 0x24
 8001de0:	4233      	tst	r3, r6
 8001de2:	d000      	beq.n	8001de6 <HAL_RCC_OscConfig+0x1ca>
 8001de4:	e728      	b.n	8001c38 <HAL_RCC_OscConfig+0x1c>
        if((HAL_GetTick() - tickstart ) > LSI_TIMEOUT_VALUE)
 8001de6:	f7fe fe57 	bl	8000a98 <HAL_GetTick>
 8001dea:	1bc0      	subs	r0, r0, r7
 8001dec:	2802      	cmp	r0, #2
 8001dee:	d9f6      	bls.n	8001dde <HAL_RCC_OscConfig+0x1c2>
 8001df0:	e77a      	b.n	8001ce8 <HAL_RCC_OscConfig+0xcc>
      __HAL_RCC_LSI_DISABLE();
 8001df2:	6a62      	ldr	r2, [r4, #36]	; 0x24
      while(__HAL_RCC_GET_FLAG(RCC_FLAG_LSIRDY) != RESET)
 8001df4:	2602      	movs	r6, #2
      __HAL_RCC_LSI_DISABLE();
 8001df6:	439a      	bics	r2, r3
 8001df8:	6262      	str	r2, [r4, #36]	; 0x24
      tickstart = HAL_GetTick();
 8001dfa:	f7fe fe4d 	bl	8000a98 <HAL_GetTick>
 8001dfe:	0007      	movs	r7, r0
      while(__HAL_RCC_GET_FLAG(RCC_FLAG_LSIRDY) != RESET)
 8001e00:	6a63      	ldr	r3, [r4, #36]	; 0x24
 8001e02:	4233      	tst	r3, r6
 8001e04:	d100      	bne.n	8001e08 <HAL_RCC_OscConfig+0x1ec>
 8001e06:	e717      	b.n	8001c38 <HAL_RCC_OscConfig+0x1c>
        if((HAL_GetTick() - tickstart ) > LSI_TIMEOUT_VALUE)
 8001e08:	f7fe fe46 	bl	8000a98 <HAL_GetTick>
 8001e0c:	1bc0      	subs	r0, r0, r7
 8001e0e:	2802      	cmp	r0, #2
 8001e10:	d9f6      	bls.n	8001e00 <HAL_RCC_OscConfig+0x1e4>
 8001e12:	e769      	b.n	8001ce8 <HAL_RCC_OscConfig+0xcc>
    if(__HAL_RCC_PWR_IS_CLK_DISABLED())
 8001e14:	2280      	movs	r2, #128	; 0x80
    FlagStatus       pwrclkchanged = RESET;
 8001e16:	2100      	movs	r1, #0
    if(__HAL_RCC_PWR_IS_CLK_DISABLED())
 8001e18:	4c46      	ldr	r4, [pc, #280]	; (8001f34 <HAL_RCC_OscConfig+0x318>)
 8001e1a:	0552      	lsls	r2, r2, #21
 8001e1c:	69e3      	ldr	r3, [r4, #28]
    FlagStatus       pwrclkchanged = RESET;
 8001e1e:	9100      	str	r1, [sp, #0]
    if(__HAL_RCC_PWR_IS_CLK_DISABLED())
 8001e20:	4213      	tst	r3, r2
 8001e22:	d108      	bne.n	8001e36 <HAL_RCC_OscConfig+0x21a>
      __HAL_RCC_PWR_CLK_ENABLE();
 8001e24:	69e3      	ldr	r3, [r4, #28]
 8001e26:	4313      	orrs	r3, r2
 8001e28:	61e3      	str	r3, [r4, #28]
 8001e2a:	69e3      	ldr	r3, [r4, #28]
 8001e2c:	4013      	ands	r3, r2
 8001e2e:	9303      	str	r3, [sp, #12]
 8001e30:	9b03      	ldr	r3, [sp, #12]
      pwrclkchanged = SET;
 8001e32:	2301      	movs	r3, #1
 8001e34:	9300      	str	r3, [sp, #0]
    if(HAL_IS_BIT_CLR(PWR->CR, PWR_CR_DBP))
 8001e36:	2780      	movs	r7, #128	; 0x80
 8001e38:	4e41      	ldr	r6, [pc, #260]	; (8001f40 <HAL_RCC_OscConfig+0x324>)
 8001e3a:	007f      	lsls	r7, r7, #1
 8001e3c:	6833      	ldr	r3, [r6, #0]
 8001e3e:	423b      	tst	r3, r7
 8001e40:	d006      	beq.n	8001e50 <HAL_RCC_OscConfig+0x234>
    __HAL_RCC_LSE_CONFIG(RCC_OscInitStruct->LSEState);
 8001e42:	68ab      	ldr	r3, [r5, #8]
 8001e44:	2b01      	cmp	r3, #1
 8001e46:	d113      	bne.n	8001e70 <HAL_RCC_OscConfig+0x254>
 8001e48:	6a22      	ldr	r2, [r4, #32]
 8001e4a:	4313      	orrs	r3, r2
 8001e4c:	6223      	str	r3, [r4, #32]
 8001e4e:	e030      	b.n	8001eb2 <HAL_RCC_OscConfig+0x296>
      SET_BIT(PWR->CR, PWR_CR_DBP);
 8001e50:	6833      	ldr	r3, [r6, #0]
 8001e52:	433b      	orrs	r3, r7
 8001e54:	6033      	str	r3, [r6, #0]
      tickstart = HAL_GetTick();
 8001e56:	f7fe fe1f 	bl	8000a98 <HAL_GetTick>
 8001e5a:	9001      	str	r0, [sp, #4]
      while(HAL_IS_BIT_CLR(PWR->CR, PWR_CR_DBP))
 8001e5c:	6833      	ldr	r3, [r6, #0]
 8001e5e:	423b      	tst	r3, r7
 8001e60:	d1ef      	bne.n	8001e42 <HAL_RCC_OscConfig+0x226>
        if((HAL_GetTick() - tickstart) > RCC_DBP_TIMEOUT_VALUE)
 8001e62:	f7fe fe19 	bl	8000a98 <HAL_GetTick>
 8001e66:	9b01      	ldr	r3, [sp, #4]
 8001e68:	1ac0      	subs	r0, r0, r3
 8001e6a:	2864      	cmp	r0, #100	; 0x64
 8001e6c:	d9f6      	bls.n	8001e5c <HAL_RCC_OscConfig+0x240>
 8001e6e:	e73b      	b.n	8001ce8 <HAL_RCC_OscConfig+0xcc>
 8001e70:	2201      	movs	r2, #1
    __HAL_RCC_LSE_CONFIG(RCC_OscInitStruct->LSEState);
 8001e72:	2b00      	cmp	r3, #0
 8001e74:	d114      	bne.n	8001ea0 <HAL_RCC_OscConfig+0x284>
 8001e76:	6a23      	ldr	r3, [r4, #32]
      while(__HAL_RCC_GET_FLAG(RCC_FLAG_LSERDY) != RESET)
 8001e78:	2702      	movs	r7, #2
    __HAL_RCC_LSE_CONFIG(RCC_OscInitStruct->LSEState);
 8001e7a:	4393      	bics	r3, r2
 8001e7c:	6223      	str	r3, [r4, #32]
 8001e7e:	6a23      	ldr	r3, [r4, #32]
 8001e80:	3203      	adds	r2, #3
 8001e82:	4393      	bics	r3, r2
 8001e84:	6223      	str	r3, [r4, #32]
      tickstart = HAL_GetTick();
 8001e86:	f7fe fe07 	bl	8000a98 <HAL_GetTick>
 8001e8a:	0006      	movs	r6, r0
      while(__HAL_RCC_GET_FLAG(RCC_FLAG_LSERDY) != RESET)
 8001e8c:	6a23      	ldr	r3, [r4, #32]
 8001e8e:	423b      	tst	r3, r7
 8001e90:	d025      	beq.n	8001ede <HAL_RCC_OscConfig+0x2c2>
        if((HAL_GetTick() - tickstart ) > RCC_LSE_TIMEOUT_VALUE)
 8001e92:	f7fe fe01 	bl	8000a98 <HAL_GetTick>
 8001e96:	4b2b      	ldr	r3, [pc, #172]	; (8001f44 <HAL_RCC_OscConfig+0x328>)
 8001e98:	1b80      	subs	r0, r0, r6
 8001e9a:	4298      	cmp	r0, r3
 8001e9c:	d9f6      	bls.n	8001e8c <HAL_RCC_OscConfig+0x270>
 8001e9e:	e723      	b.n	8001ce8 <HAL_RCC_OscConfig+0xcc>
    __HAL_RCC_LSE_CONFIG(RCC_OscInitStruct->LSEState);
 8001ea0:	2b05      	cmp	r3, #5
 8001ea2:	d10b      	bne.n	8001ebc <HAL_RCC_OscConfig+0x2a0>
 8001ea4:	6a21      	ldr	r1, [r4, #32]
 8001ea6:	3b01      	subs	r3, #1
 8001ea8:	430b      	orrs	r3, r1
 8001eaa:	6223      	str	r3, [r4, #32]
 8001eac:	6a23      	ldr	r3, [r4, #32]
 8001eae:	431a      	orrs	r2, r3
 8001eb0:	6222      	str	r2, [r4, #32]
      tickstart = HAL_GetTick();
 8001eb2:	f7fe fdf1 	bl	8000a98 <HAL_GetTick>
      while(__HAL_RCC_GET_FLAG(RCC_FLAG_LSERDY) == RESET)
 8001eb6:	2702      	movs	r7, #2
      tickstart = HAL_GetTick();
 8001eb8:	0006      	movs	r6, r0
      while(__HAL_RCC_GET_FLAG(RCC_FLAG_LSERDY) == RESET)
 8001eba:	e00d      	b.n	8001ed8 <HAL_RCC_OscConfig+0x2bc>
    __HAL_RCC_LSE_CONFIG(RCC_OscInitStruct->LSEState);
 8001ebc:	6a23      	ldr	r3, [r4, #32]
 8001ebe:	4393      	bics	r3, r2
 8001ec0:	2204      	movs	r2, #4
 8001ec2:	6223      	str	r3, [r4, #32]
 8001ec4:	6a23      	ldr	r3, [r4, #32]
 8001ec6:	4393      	bics	r3, r2
 8001ec8:	e7c0      	b.n	8001e4c <HAL_RCC_OscConfig+0x230>
        if((HAL_GetTick() - tickstart ) > RCC_LSE_TIMEOUT_VALUE)
 8001eca:	f7fe fde5 	bl	8000a98 <HAL_GetTick>
 8001ece:	4b1d      	ldr	r3, [pc, #116]	; (8001f44 <HAL_RCC_OscConfig+0x328>)
 8001ed0:	1b80      	subs	r0, r0, r6
 8001ed2:	4298      	cmp	r0, r3
 8001ed4:	d900      	bls.n	8001ed8 <HAL_RCC_OscConfig+0x2bc>
 8001ed6:	e707      	b.n	8001ce8 <HAL_RCC_OscConfig+0xcc>
      while(__HAL_RCC_GET_FLAG(RCC_FLAG_LSERDY) == RESET)
 8001ed8:	6a23      	ldr	r3, [r4, #32]
 8001eda:	423b      	tst	r3, r7
 8001edc:	d0f5      	beq.n	8001eca <HAL_RCC_OscConfig+0x2ae>
    if(pwrclkchanged == SET)
 8001ede:	9b00      	ldr	r3, [sp, #0]
 8001ee0:	2b01      	cmp	r3, #1
 8001ee2:	d000      	beq.n	8001ee6 <HAL_RCC_OscConfig+0x2ca>
 8001ee4:	e6ac      	b.n	8001c40 <HAL_RCC_OscConfig+0x24>
      __HAL_RCC_PWR_CLK_DISABLE();
 8001ee6:	69e3      	ldr	r3, [r4, #28]
 8001ee8:	4a17      	ldr	r2, [pc, #92]	; (8001f48 <HAL_RCC_OscConfig+0x32c>)
 8001eea:	4013      	ands	r3, r2
 8001eec:	61e3      	str	r3, [r4, #28]
 8001eee:	e6a7      	b.n	8001c40 <HAL_RCC_OscConfig+0x24>
        if((HAL_GetTick() - tickstart) > HSI14_TIMEOUT_VALUE)
 8001ef0:	f7fe fdd2 	bl	8000a98 <HAL_GetTick>
 8001ef4:	1bc0      	subs	r0, r0, r7
 8001ef6:	2802      	cmp	r0, #2
 8001ef8:	d800      	bhi.n	8001efc <HAL_RCC_OscConfig+0x2e0>
 8001efa:	e6b4      	b.n	8001c66 <HAL_RCC_OscConfig+0x4a>
 8001efc:	e6f4      	b.n	8001ce8 <HAL_RCC_OscConfig+0xcc>
    else if(RCC_OscInitStruct->HSI14State == RCC_HSI14_ADC_CONTROL)
 8001efe:	3205      	adds	r2, #5
 8001f00:	d103      	bne.n	8001f0a <HAL_RCC_OscConfig+0x2ee>
      __HAL_RCC_HSI14ADC_ENABLE();
 8001f02:	6b62      	ldr	r2, [r4, #52]	; 0x34
 8001f04:	439a      	bics	r2, r3
 8001f06:	6362      	str	r2, [r4, #52]	; 0x34
 8001f08:	e6b1      	b.n	8001c6e <HAL_RCC_OscConfig+0x52>
      __HAL_RCC_HSI14ADC_DISABLE();
 8001f0a:	6b62      	ldr	r2, [r4, #52]	; 0x34
      while(__HAL_RCC_GET_FLAG(RCC_FLAG_HSI14RDY) != RESET)
 8001f0c:	2602      	movs	r6, #2
      __HAL_RCC_HSI14ADC_DISABLE();
 8001f0e:	4313      	orrs	r3, r2
      __HAL_RCC_HSI14_DISABLE();
 8001f10:	2201      	movs	r2, #1
      __HAL_RCC_HSI14ADC_DISABLE();
 8001f12:	6363      	str	r3, [r4, #52]	; 0x34
      __HAL_RCC_HSI14_DISABLE();
 8001f14:	6b63      	ldr	r3, [r4, #52]	; 0x34
 8001f16:	4393      	bics	r3, r2
 8001f18:	6363      	str	r3, [r4, #52]	; 0x34
      tickstart = HAL_GetTick();
 8001f1a:	f7fe fdbd 	bl	8000a98 <HAL_GetTick>
 8001f1e:	0007      	movs	r7, r0
      while(__HAL_RCC_GET_FLAG(RCC_FLAG_HSI14RDY) != RESET)
 8001f20:	6b63      	ldr	r3, [r4, #52]	; 0x34
 8001f22:	4233      	tst	r3, r6
 8001f24:	d100      	bne.n	8001f28 <HAL_RCC_OscConfig+0x30c>
 8001f26:	e6a9      	b.n	8001c7c <HAL_RCC_OscConfig+0x60>
        if((HAL_GetTick() - tickstart) > HSI14_TIMEOUT_VALUE)
 8001f28:	f7fe fdb6 	bl	8000a98 <HAL_GetTick>
 8001f2c:	1bc0      	subs	r0, r0, r7
 8001f2e:	2802      	cmp	r0, #2
 8001f30:	d9f6      	bls.n	8001f20 <HAL_RCC_OscConfig+0x304>
 8001f32:	e6d9      	b.n	8001ce8 <HAL_RCC_OscConfig+0xcc>
 8001f34:	40021000 	.word	0x40021000
 8001f38:	fffeffff 	.word	0xfffeffff
 8001f3c:	fffbffff 	.word	0xfffbffff
 8001f40:	40007000 	.word	0x40007000
 8001f44:	00001388 	.word	0x00001388
 8001f48:	efffffff 	.word	0xefffffff
    if(__HAL_RCC_GET_SYSCLK_SOURCE() != RCC_SYSCLKSOURCE_STATUS_PLLCLK)
 8001f4c:	220c      	movs	r2, #12
 8001f4e:	4c26      	ldr	r4, [pc, #152]	; (8001fe8 <HAL_RCC_OscConfig+0x3cc>)
      return HAL_ERROR;
 8001f50:	2001      	movs	r0, #1
    if(__HAL_RCC_GET_SYSCLK_SOURCE() != RCC_SYSCLKSOURCE_STATUS_PLLCLK)
 8001f52:	6863      	ldr	r3, [r4, #4]
 8001f54:	4013      	ands	r3, r2
 8001f56:	2b08      	cmp	r3, #8
 8001f58:	d100      	bne.n	8001f5c <HAL_RCC_OscConfig+0x340>
 8001f5a:	e6ae      	b.n	8001cba <HAL_RCC_OscConfig+0x9e>
        __HAL_RCC_PLL_DISABLE();
 8001f5c:	6823      	ldr	r3, [r4, #0]
 8001f5e:	4a23      	ldr	r2, [pc, #140]	; (8001fec <HAL_RCC_OscConfig+0x3d0>)
 8001f60:	4013      	ands	r3, r2
 8001f62:	6023      	str	r3, [r4, #0]
      if((RCC_OscInitStruct->PLL.PLLState) == RCC_PLL_ON)
 8001f64:	2902      	cmp	r1, #2
 8001f66:	d12f      	bne.n	8001fc8 <HAL_RCC_OscConfig+0x3ac>
        tickstart = HAL_GetTick();
 8001f68:	f7fe fd96 	bl	8000a98 <HAL_GetTick>
        while(__HAL_RCC_GET_FLAG(RCC_FLAG_PLLRDY)  != RESET)
 8001f6c:	2680      	movs	r6, #128	; 0x80
        tickstart = HAL_GetTick();
 8001f6e:	0007      	movs	r7, r0
        while(__HAL_RCC_GET_FLAG(RCC_FLAG_PLLRDY)  != RESET)
 8001f70:	04b6      	lsls	r6, r6, #18
 8001f72:	6823      	ldr	r3, [r4, #0]
 8001f74:	4233      	tst	r3, r6
 8001f76:	d121      	bne.n	8001fbc <HAL_RCC_OscConfig+0x3a0>
        __HAL_RCC_PLL_CONFIG(RCC_OscInitStruct->PLL.PLLSource,
 8001f78:	220f      	movs	r2, #15
 8001f7a:	6ae3      	ldr	r3, [r4, #44]	; 0x2c
 8001f7c:	4393      	bics	r3, r2
 8001f7e:	6aea      	ldr	r2, [r5, #44]	; 0x2c
 8001f80:	4313      	orrs	r3, r2
 8001f82:	62e3      	str	r3, [r4, #44]	; 0x2c
 8001f84:	6a69      	ldr	r1, [r5, #36]	; 0x24
 8001f86:	6aab      	ldr	r3, [r5, #40]	; 0x28
 8001f88:	6862      	ldr	r2, [r4, #4]
 8001f8a:	430b      	orrs	r3, r1
 8001f8c:	4918      	ldr	r1, [pc, #96]	; (8001ff0 <HAL_RCC_OscConfig+0x3d4>)
        while(__HAL_RCC_GET_FLAG(RCC_FLAG_PLLRDY)  == RESET)
 8001f8e:	2580      	movs	r5, #128	; 0x80
        __HAL_RCC_PLL_CONFIG(RCC_OscInitStruct->PLL.PLLSource,
 8001f90:	400a      	ands	r2, r1
 8001f92:	4313      	orrs	r3, r2
 8001f94:	6063      	str	r3, [r4, #4]
        __HAL_RCC_PLL_ENABLE();
 8001f96:	2380      	movs	r3, #128	; 0x80
 8001f98:	6822      	ldr	r2, [r4, #0]
 8001f9a:	045b      	lsls	r3, r3, #17
 8001f9c:	4313      	orrs	r3, r2
 8001f9e:	6023      	str	r3, [r4, #0]
        tickstart = HAL_GetTick();
 8001fa0:	f7fe fd7a 	bl	8000a98 <HAL_GetTick>
 8001fa4:	0006      	movs	r6, r0
        while(__HAL_RCC_GET_FLAG(RCC_FLAG_PLLRDY)  == RESET)
 8001fa6:	04ad      	lsls	r5, r5, #18
 8001fa8:	6823      	ldr	r3, [r4, #0]
 8001faa:	422b      	tst	r3, r5
 8001fac:	d000      	beq.n	8001fb0 <HAL_RCC_OscConfig+0x394>
 8001fae:	e669      	b.n	8001c84 <HAL_RCC_OscConfig+0x68>
          if((HAL_GetTick() - tickstart ) > PLL_TIMEOUT_VALUE)
 8001fb0:	f7fe fd72 	bl	8000a98 <HAL_GetTick>
 8001fb4:	1b80      	subs	r0, r0, r6
 8001fb6:	2802      	cmp	r0, #2
 8001fb8:	d9f6      	bls.n	8001fa8 <HAL_RCC_OscConfig+0x38c>
 8001fba:	e695      	b.n	8001ce8 <HAL_RCC_OscConfig+0xcc>
          if((HAL_GetTick() - tickstart ) > PLL_TIMEOUT_VALUE)
 8001fbc:	f7fe fd6c 	bl	8000a98 <HAL_GetTick>
 8001fc0:	1bc0      	subs	r0, r0, r7
 8001fc2:	2802      	cmp	r0, #2
 8001fc4:	d9d5      	bls.n	8001f72 <HAL_RCC_OscConfig+0x356>
 8001fc6:	e68f      	b.n	8001ce8 <HAL_RCC_OscConfig+0xcc>
        tickstart = HAL_GetTick();
 8001fc8:	f7fe fd66 	bl	8000a98 <HAL_GetTick>
        while(__HAL_RCC_GET_FLAG(RCC_FLAG_PLLRDY)  != RESET)
 8001fcc:	2580      	movs	r5, #128	; 0x80
        tickstart = HAL_GetTick();
 8001fce:	0006      	movs	r6, r0
        while(__HAL_RCC_GET_FLAG(RCC_FLAG_PLLRDY)  != RESET)
 8001fd0:	04ad      	lsls	r5, r5, #18
 8001fd2:	6823      	ldr	r3, [r4, #0]
 8001fd4:	422b      	tst	r3, r5
 8001fd6:	d100      	bne.n	8001fda <HAL_RCC_OscConfig+0x3be>
 8001fd8:	e654      	b.n	8001c84 <HAL_RCC_OscConfig+0x68>
          if((HAL_GetTick() - tickstart ) > PLL_TIMEOUT_VALUE)
 8001fda:	f7fe fd5d 	bl	8000a98 <HAL_GetTick>
 8001fde:	1b80      	subs	r0, r0, r6
 8001fe0:	2802      	cmp	r0, #2
 8001fe2:	d9f6      	bls.n	8001fd2 <HAL_RCC_OscConfig+0x3b6>
 8001fe4:	e680      	b.n	8001ce8 <HAL_RCC_OscConfig+0xcc>
 8001fe6:	46c0      	nop			; (mov r8, r8)
 8001fe8:	40021000 	.word	0x40021000
 8001fec:	feffffff 	.word	0xfeffffff
 8001ff0:	ffc27fff 	.word	0xffc27fff

08001ff4 <HAL_RCC_GetSysClockFreq>:
  *         right SYSCLK value. Otherwise, any configuration based on this function will be incorrect.
  *         
  * @retval SYSCLK frequency
  */
uint32_t HAL_RCC_GetSysClockFreq(void)
{
 8001ff4:	b530      	push	{r4, r5, lr}
  const uint8_t aPLLMULFactorTable[16] = { 2U,  3U,  4U,  5U,  6U,  7U,  8U,  9U,
 8001ff6:	4d12      	ldr	r5, [pc, #72]	; (8002040 <HAL_RCC_GetSysClockFreq+0x4c>)
{
 8001ff8:	b089      	sub	sp, #36	; 0x24
  const uint8_t aPLLMULFactorTable[16] = { 2U,  3U,  4U,  5U,  6U,  7U,  8U,  9U,
 8001ffa:	2210      	movs	r2, #16
 8001ffc:	0029      	movs	r1, r5
 8001ffe:	4668      	mov	r0, sp
 8002000:	f002 fa02 	bl	8004408 <memcpy>
                                         10U, 11U, 12U, 13U, 14U, 15U, 16U, 16U};
  const uint8_t aPredivFactorTable[16] = { 1U, 2U,  3U,  4U,  5U,  6U,  7U,  8U,
 8002004:	0029      	movs	r1, r5
 8002006:	ac04      	add	r4, sp, #16
 8002008:	3110      	adds	r1, #16
 800200a:	2210      	movs	r2, #16
 800200c:	0020      	movs	r0, r4
 800200e:	f002 f9fb 	bl	8004408 <memcpy>
  uint32_t sysclockfreq = 0U;
  
  tmpreg = RCC->CFGR;
  
  /* Get SYSCLK source -------------------------------------------------------*/
  switch (tmpreg & RCC_CFGR_SWS)
 8002012:	220c      	movs	r2, #12
  tmpreg = RCC->CFGR;
 8002014:	490b      	ldr	r1, [pc, #44]	; (8002044 <HAL_RCC_GetSysClockFreq+0x50>)
 8002016:	684b      	ldr	r3, [r1, #4]
  switch (tmpreg & RCC_CFGR_SWS)
 8002018:	401a      	ands	r2, r3
 800201a:	2a08      	cmp	r2, #8
 800201c:	d10d      	bne.n	800203a <HAL_RCC_GetSysClockFreq+0x46>
      break;
    }
    case RCC_SYSCLKSOURCE_STATUS_PLLCLK:  /* PLL used as system clock */
    {
      pllmul = aPLLMULFactorTable[(uint32_t)(tmpreg & RCC_CFGR_PLLMUL) >> RCC_CFGR_PLLMUL_BITNUMBER];
      prediv = aPredivFactorTable[(uint32_t)(RCC->CFGR2 & RCC_CFGR2_PREDIV) >> RCC_CFGR2_PREDIV_BITNUMBER];
 800201e:	6aca      	ldr	r2, [r1, #44]	; 0x2c
      pllmul = aPLLMULFactorTable[(uint32_t)(tmpreg & RCC_CFGR_PLLMUL) >> RCC_CFGR_PLLMUL_BITNUMBER];
 8002020:	210f      	movs	r1, #15
 8002022:	4668      	mov	r0, sp
 8002024:	0c9b      	lsrs	r3, r3, #18
 8002026:	400b      	ands	r3, r1
      prediv = aPredivFactorTable[(uint32_t)(RCC->CFGR2 & RCC_CFGR2_PREDIV) >> RCC_CFGR2_PREDIV_BITNUMBER];
 8002028:	400a      	ands	r2, r1
      pllmul = aPLLMULFactorTable[(uint32_t)(tmpreg & RCC_CFGR_PLLMUL) >> RCC_CFGR_PLLMUL_BITNUMBER];
 800202a:	5cc5      	ldrb	r5, [r0, r3]
      prediv = aPredivFactorTable[(uint32_t)(RCC->CFGR2 & RCC_CFGR2_PREDIV) >> RCC_CFGR2_PREDIV_BITNUMBER];
 800202c:	5ca1      	ldrb	r1, [r4, r2]
#endif /* RCC_CFGR_PLLSRC_HSI48_PREDIV */
      else
      {
#if  (defined(STM32F042x6) || defined(STM32F048xx) || defined(STM32F070x6) || defined(STM32F071xB) || defined(STM32F072xB) || defined(STM32F078xx) || defined(STM32F070xB) || defined(STM32F091xC) || defined(STM32F098xx) || defined(STM32F030xC))
        /* HSI used as PLL clock source : PLLCLK = HSI/PREDIV * PLLMUL */
        pllclk = (HSI_VALUE / prediv) * pllmul;
 800202e:	4806      	ldr	r0, [pc, #24]	; (8002048 <HAL_RCC_GetSysClockFreq+0x54>)
 8002030:	f7fe f87e 	bl	8000130 <__udivsi3>
 8002034:	4368      	muls	r0, r5
      sysclockfreq = HSI_VALUE;
      break;
    }
  }
  return sysclockfreq;
}
 8002036:	b009      	add	sp, #36	; 0x24
 8002038:	bd30      	pop	{r4, r5, pc}
      sysclockfreq = HSE_VALUE;
 800203a:	4803      	ldr	r0, [pc, #12]	; (8002048 <HAL_RCC_GetSysClockFreq+0x54>)
  return sysclockfreq;
 800203c:	e7fb      	b.n	8002036 <HAL_RCC_GetSysClockFreq+0x42>
 800203e:	46c0      	nop			; (mov r8, r8)
 8002040:	08004ccc 	.word	0x08004ccc
 8002044:	40021000 	.word	0x40021000
 8002048:	007a1200 	.word	0x007a1200

0800204c <HAL_RCC_ClockConfig>:
{
 800204c:	b5f7      	push	{r0, r1, r2, r4, r5, r6, r7, lr}
  if(FLatency > (FLASH->ACR & FLASH_ACR_LATENCY))
 800204e:	2201      	movs	r2, #1
 8002050:	4c43      	ldr	r4, [pc, #268]	; (8002160 <HAL_RCC_ClockConfig+0x114>)
{
 8002052:	0006      	movs	r6, r0
  if(FLatency > (FLASH->ACR & FLASH_ACR_LATENCY))
 8002054:	6823      	ldr	r3, [r4, #0]
{
 8002056:	000f      	movs	r7, r1
  if(FLatency > (FLASH->ACR & FLASH_ACR_LATENCY))
 8002058:	4013      	ands	r3, r2
 800205a:	428b      	cmp	r3, r1
 800205c:	d31c      	bcc.n	8002098 <HAL_RCC_ClockConfig+0x4c>
  if(((RCC_ClkInitStruct->ClockType) & RCC_CLOCKTYPE_HCLK) == RCC_CLOCKTYPE_HCLK)
 800205e:	6832      	ldr	r2, [r6, #0]
 8002060:	0793      	lsls	r3, r2, #30
 8002062:	d423      	bmi.n	80020ac <HAL_RCC_ClockConfig+0x60>
  if(((RCC_ClkInitStruct->ClockType) & RCC_CLOCKTYPE_SYSCLK) == RCC_CLOCKTYPE_SYSCLK)
 8002064:	07d3      	lsls	r3, r2, #31
 8002066:	d429      	bmi.n	80020bc <HAL_RCC_ClockConfig+0x70>
  if(FLatency < (FLASH->ACR & FLASH_ACR_LATENCY))
 8002068:	2301      	movs	r3, #1
 800206a:	6822      	ldr	r2, [r4, #0]
 800206c:	401a      	ands	r2, r3
 800206e:	4297      	cmp	r7, r2
 8002070:	d367      	bcc.n	8002142 <HAL_RCC_ClockConfig+0xf6>
  if(((RCC_ClkInitStruct->ClockType) & RCC_CLOCKTYPE_PCLK1) == RCC_CLOCKTYPE_PCLK1)
 8002072:	6833      	ldr	r3, [r6, #0]
 8002074:	4c3b      	ldr	r4, [pc, #236]	; (8002164 <HAL_RCC_ClockConfig+0x118>)
 8002076:	075b      	lsls	r3, r3, #29
 8002078:	d46a      	bmi.n	8002150 <HAL_RCC_ClockConfig+0x104>
  SystemCoreClock = HAL_RCC_GetSysClockFreq() >> AHBPrescTable[(RCC->CFGR & RCC_CFGR_HPRE)>> RCC_CFGR_HPRE_BITNUMBER];
 800207a:	f7ff ffbb 	bl	8001ff4 <HAL_RCC_GetSysClockFreq>
 800207e:	6863      	ldr	r3, [r4, #4]
 8002080:	4a39      	ldr	r2, [pc, #228]	; (8002168 <HAL_RCC_ClockConfig+0x11c>)
 8002082:	061b      	lsls	r3, r3, #24
 8002084:	0f1b      	lsrs	r3, r3, #28
 8002086:	5cd3      	ldrb	r3, [r2, r3]
 8002088:	40d8      	lsrs	r0, r3
 800208a:	4b38      	ldr	r3, [pc, #224]	; (800216c <HAL_RCC_ClockConfig+0x120>)
 800208c:	6018      	str	r0, [r3, #0]
  HAL_InitTick (TICK_INT_PRIORITY);
 800208e:	2000      	movs	r0, #0
 8002090:	f7fe fba0 	bl	80007d4 <HAL_InitTick>
  return HAL_OK;
 8002094:	2000      	movs	r0, #0
 8002096:	e008      	b.n	80020aa <HAL_RCC_ClockConfig+0x5e>
    __HAL_FLASH_SET_LATENCY(FLatency);
 8002098:	6823      	ldr	r3, [r4, #0]
 800209a:	4393      	bics	r3, r2
 800209c:	430b      	orrs	r3, r1
 800209e:	6023      	str	r3, [r4, #0]
    if((FLASH->ACR & FLASH_ACR_LATENCY) != FLatency)
 80020a0:	6823      	ldr	r3, [r4, #0]
 80020a2:	4013      	ands	r3, r2
 80020a4:	4299      	cmp	r1, r3
 80020a6:	d0da      	beq.n	800205e <HAL_RCC_ClockConfig+0x12>
      return HAL_ERROR;
 80020a8:	2001      	movs	r0, #1
}
 80020aa:	bdfe      	pop	{r1, r2, r3, r4, r5, r6, r7, pc}
    MODIFY_REG(RCC->CFGR, RCC_CFGR_HPRE, RCC_ClkInitStruct->AHBCLKDivider);
 80020ac:	20f0      	movs	r0, #240	; 0xf0
 80020ae:	492d      	ldr	r1, [pc, #180]	; (8002164 <HAL_RCC_ClockConfig+0x118>)
 80020b0:	684b      	ldr	r3, [r1, #4]
 80020b2:	4383      	bics	r3, r0
 80020b4:	68b0      	ldr	r0, [r6, #8]
 80020b6:	4303      	orrs	r3, r0
 80020b8:	604b      	str	r3, [r1, #4]
 80020ba:	e7d3      	b.n	8002064 <HAL_RCC_ClockConfig+0x18>
 80020bc:	4d29      	ldr	r5, [pc, #164]	; (8002164 <HAL_RCC_ClockConfig+0x118>)
    if(RCC_ClkInitStruct->SYSCLKSource == RCC_SYSCLKSOURCE_HSE)
 80020be:	6872      	ldr	r2, [r6, #4]
      if(__HAL_RCC_GET_FLAG(RCC_FLAG_HSERDY) == RESET)
 80020c0:	682b      	ldr	r3, [r5, #0]
    if(RCC_ClkInitStruct->SYSCLKSource == RCC_SYSCLKSOURCE_HSE)
 80020c2:	2a01      	cmp	r2, #1
 80020c4:	d11a      	bne.n	80020fc <HAL_RCC_ClockConfig+0xb0>
      if(__HAL_RCC_GET_FLAG(RCC_FLAG_HSERDY) == RESET)
 80020c6:	039b      	lsls	r3, r3, #14
 80020c8:	d5ee      	bpl.n	80020a8 <HAL_RCC_ClockConfig+0x5c>
    __HAL_RCC_SYSCLK_CONFIG(RCC_ClkInitStruct->SYSCLKSource);
 80020ca:	2103      	movs	r1, #3
 80020cc:	686b      	ldr	r3, [r5, #4]
 80020ce:	438b      	bics	r3, r1
 80020d0:	4313      	orrs	r3, r2
 80020d2:	606b      	str	r3, [r5, #4]
    tickstart = HAL_GetTick();
 80020d4:	f7fe fce0 	bl	8000a98 <HAL_GetTick>
    if(RCC_ClkInitStruct->SYSCLKSource == RCC_SYSCLKSOURCE_HSE)
 80020d8:	6873      	ldr	r3, [r6, #4]
    tickstart = HAL_GetTick();
 80020da:	9001      	str	r0, [sp, #4]
    if(RCC_ClkInitStruct->SYSCLKSource == RCC_SYSCLKSOURCE_HSE)
 80020dc:	2b01      	cmp	r3, #1
 80020de:	d115      	bne.n	800210c <HAL_RCC_ClockConfig+0xc0>
      while (__HAL_RCC_GET_SYSCLK_SOURCE() != RCC_SYSCLKSOURCE_STATUS_HSE)
 80020e0:	220c      	movs	r2, #12
 80020e2:	686b      	ldr	r3, [r5, #4]
 80020e4:	4013      	ands	r3, r2
 80020e6:	2b04      	cmp	r3, #4
 80020e8:	d0be      	beq.n	8002068 <HAL_RCC_ClockConfig+0x1c>
        if((HAL_GetTick() - tickstart ) > CLOCKSWITCH_TIMEOUT_VALUE)
 80020ea:	f7fe fcd5 	bl	8000a98 <HAL_GetTick>
 80020ee:	9b01      	ldr	r3, [sp, #4]
 80020f0:	1ac0      	subs	r0, r0, r3
 80020f2:	4b1f      	ldr	r3, [pc, #124]	; (8002170 <HAL_RCC_ClockConfig+0x124>)
 80020f4:	4298      	cmp	r0, r3
 80020f6:	d9f3      	bls.n	80020e0 <HAL_RCC_ClockConfig+0x94>
          return HAL_TIMEOUT;
 80020f8:	2003      	movs	r0, #3
 80020fa:	e7d6      	b.n	80020aa <HAL_RCC_ClockConfig+0x5e>
    else if(RCC_ClkInitStruct->SYSCLKSource == RCC_SYSCLKSOURCE_PLLCLK)
 80020fc:	2a02      	cmp	r2, #2
 80020fe:	d102      	bne.n	8002106 <HAL_RCC_ClockConfig+0xba>
      if(__HAL_RCC_GET_FLAG(RCC_FLAG_PLLRDY) == RESET)
 8002100:	019b      	lsls	r3, r3, #6
 8002102:	d4e2      	bmi.n	80020ca <HAL_RCC_ClockConfig+0x7e>
 8002104:	e7d0      	b.n	80020a8 <HAL_RCC_ClockConfig+0x5c>
      if(__HAL_RCC_GET_FLAG(RCC_FLAG_HSIRDY) == RESET)
 8002106:	079b      	lsls	r3, r3, #30
 8002108:	d4df      	bmi.n	80020ca <HAL_RCC_ClockConfig+0x7e>
 800210a:	e7cd      	b.n	80020a8 <HAL_RCC_ClockConfig+0x5c>
    else if(RCC_ClkInitStruct->SYSCLKSource == RCC_SYSCLKSOURCE_PLLCLK)
 800210c:	2b02      	cmp	r3, #2
 800210e:	d012      	beq.n	8002136 <HAL_RCC_ClockConfig+0xea>
      while (__HAL_RCC_GET_SYSCLK_SOURCE() != RCC_SYSCLKSOURCE_STATUS_HSI)
 8002110:	220c      	movs	r2, #12
 8002112:	686b      	ldr	r3, [r5, #4]
 8002114:	4213      	tst	r3, r2
 8002116:	d0a7      	beq.n	8002068 <HAL_RCC_ClockConfig+0x1c>
        if((HAL_GetTick() - tickstart ) > CLOCKSWITCH_TIMEOUT_VALUE)
 8002118:	f7fe fcbe 	bl	8000a98 <HAL_GetTick>
 800211c:	9b01      	ldr	r3, [sp, #4]
 800211e:	1ac0      	subs	r0, r0, r3
 8002120:	4b13      	ldr	r3, [pc, #76]	; (8002170 <HAL_RCC_ClockConfig+0x124>)
 8002122:	4298      	cmp	r0, r3
 8002124:	d9f4      	bls.n	8002110 <HAL_RCC_ClockConfig+0xc4>
 8002126:	e7e7      	b.n	80020f8 <HAL_RCC_ClockConfig+0xac>
        if((HAL_GetTick() - tickstart ) > CLOCKSWITCH_TIMEOUT_VALUE)
 8002128:	f7fe fcb6 	bl	8000a98 <HAL_GetTick>
 800212c:	9b01      	ldr	r3, [sp, #4]
 800212e:	1ac0      	subs	r0, r0, r3
 8002130:	4b0f      	ldr	r3, [pc, #60]	; (8002170 <HAL_RCC_ClockConfig+0x124>)
 8002132:	4298      	cmp	r0, r3
 8002134:	d8e0      	bhi.n	80020f8 <HAL_RCC_ClockConfig+0xac>
      while (__HAL_RCC_GET_SYSCLK_SOURCE() != RCC_SYSCLKSOURCE_STATUS_PLLCLK)
 8002136:	220c      	movs	r2, #12
 8002138:	686b      	ldr	r3, [r5, #4]
 800213a:	4013      	ands	r3, r2
 800213c:	2b08      	cmp	r3, #8
 800213e:	d1f3      	bne.n	8002128 <HAL_RCC_ClockConfig+0xdc>
 8002140:	e792      	b.n	8002068 <HAL_RCC_ClockConfig+0x1c>
    __HAL_FLASH_SET_LATENCY(FLatency);
 8002142:	6822      	ldr	r2, [r4, #0]
 8002144:	439a      	bics	r2, r3
 8002146:	6022      	str	r2, [r4, #0]
    if((FLASH->ACR & FLASH_ACR_LATENCY) != FLatency)
 8002148:	6822      	ldr	r2, [r4, #0]
 800214a:	421a      	tst	r2, r3
 800214c:	d1ac      	bne.n	80020a8 <HAL_RCC_ClockConfig+0x5c>
 800214e:	e790      	b.n	8002072 <HAL_RCC_ClockConfig+0x26>
    MODIFY_REG(RCC->CFGR, RCC_CFGR_PPRE, RCC_ClkInitStruct->APB1CLKDivider);
 8002150:	6863      	ldr	r3, [r4, #4]
 8002152:	4a08      	ldr	r2, [pc, #32]	; (8002174 <HAL_RCC_ClockConfig+0x128>)
 8002154:	4013      	ands	r3, r2
 8002156:	68f2      	ldr	r2, [r6, #12]
 8002158:	4313      	orrs	r3, r2
 800215a:	6063      	str	r3, [r4, #4]
 800215c:	e78d      	b.n	800207a <HAL_RCC_ClockConfig+0x2e>
 800215e:	46c0      	nop			; (mov r8, r8)
 8002160:	40022000 	.word	0x40022000
 8002164:	40021000 	.word	0x40021000
 8002168:	08004e03 	.word	0x08004e03
 800216c:	2000000c 	.word	0x2000000c
 8002170:	00001388 	.word	0x00001388
 8002174:	fffff8ff 	.word	0xfffff8ff

08002178 <HAL_RCC_GetPCLK1Freq>:
  * @retval PCLK1 frequency
  */
uint32_t HAL_RCC_GetPCLK1Freq(void)
{
  /* Get HCLK source and Compute PCLK1 frequency ---------------------------*/
  return (HAL_RCC_GetHCLKFreq() >> APBPrescTable[(RCC->CFGR & RCC_CFGR_PPRE) >> RCC_CFGR_PPRE_BITNUMBER]);
 8002178:	4b04      	ldr	r3, [pc, #16]	; (800218c <HAL_RCC_GetPCLK1Freq+0x14>)
 800217a:	4a05      	ldr	r2, [pc, #20]	; (8002190 <HAL_RCC_GetPCLK1Freq+0x18>)
 800217c:	685b      	ldr	r3, [r3, #4]
 800217e:	055b      	lsls	r3, r3, #21
 8002180:	0f5b      	lsrs	r3, r3, #29
 8002182:	5cd3      	ldrb	r3, [r2, r3]
 8002184:	4a03      	ldr	r2, [pc, #12]	; (8002194 <HAL_RCC_GetPCLK1Freq+0x1c>)
 8002186:	6810      	ldr	r0, [r2, #0]
 8002188:	40d8      	lsrs	r0, r3
}    
 800218a:	4770      	bx	lr
 800218c:	40021000 	.word	0x40021000
 8002190:	08004e13 	.word	0x08004e13
 8002194:	2000000c 	.word	0x2000000c

08002198 <HAL_RCC_GetClockConfig>:
  /* Check the parameters */
  assert_param(RCC_ClkInitStruct != NULL);
  assert_param(pFLatency != NULL);

  /* Set all possible values for the Clock type parameter --------------------*/
  RCC_ClkInitStruct->ClockType = RCC_CLOCKTYPE_SYSCLK | RCC_CLOCKTYPE_HCLK | RCC_CLOCKTYPE_PCLK1;
 8002198:	2307      	movs	r3, #7
{
 800219a:	b510      	push	{r4, lr}
  
  /* Get the SYSCLK configuration --------------------------------------------*/ 
  RCC_ClkInitStruct->SYSCLKSource = (uint32_t)(RCC->CFGR & RCC_CFGR_SW);
 800219c:	2403      	movs	r4, #3
  RCC_ClkInitStruct->ClockType = RCC_CLOCKTYPE_SYSCLK | RCC_CLOCKTYPE_HCLK | RCC_CLOCKTYPE_PCLK1;
 800219e:	6003      	str	r3, [r0, #0]
  RCC_ClkInitStruct->SYSCLKSource = (uint32_t)(RCC->CFGR & RCC_CFGR_SW);
 80021a0:	4b09      	ldr	r3, [pc, #36]	; (80021c8 <HAL_RCC_GetClockConfig+0x30>)
 80021a2:	685a      	ldr	r2, [r3, #4]
 80021a4:	4022      	ands	r2, r4
 80021a6:	6042      	str	r2, [r0, #4]
  
  /* Get the HCLK configuration ----------------------------------------------*/ 
  RCC_ClkInitStruct->AHBCLKDivider = (uint32_t)(RCC->CFGR & RCC_CFGR_HPRE); 
 80021a8:	685a      	ldr	r2, [r3, #4]
 80021aa:	34ed      	adds	r4, #237	; 0xed
 80021ac:	4022      	ands	r2, r4
 80021ae:	6082      	str	r2, [r0, #8]
  
  /* Get the APB1 configuration ----------------------------------------------*/ 
  RCC_ClkInitStruct->APB1CLKDivider = (uint32_t)(RCC->CFGR & RCC_CFGR_PPRE);   
 80021b0:	22e0      	movs	r2, #224	; 0xe0
 80021b2:	685b      	ldr	r3, [r3, #4]
 80021b4:	00d2      	lsls	r2, r2, #3
 80021b6:	4013      	ands	r3, r2
  /* Get the Flash Wait State (Latency) configuration ------------------------*/   
  *pFLatency = (uint32_t)(FLASH->ACR & FLASH_ACR_LATENCY); 
 80021b8:	2201      	movs	r2, #1
  RCC_ClkInitStruct->APB1CLKDivider = (uint32_t)(RCC->CFGR & RCC_CFGR_PPRE);   
 80021ba:	60c3      	str	r3, [r0, #12]
  *pFLatency = (uint32_t)(FLASH->ACR & FLASH_ACR_LATENCY); 
 80021bc:	4b03      	ldr	r3, [pc, #12]	; (80021cc <HAL_RCC_GetClockConfig+0x34>)
 80021be:	681b      	ldr	r3, [r3, #0]
 80021c0:	4013      	ands	r3, r2
 80021c2:	600b      	str	r3, [r1, #0]
}
 80021c4:	bd10      	pop	{r4, pc}
 80021c6:	46c0      	nop			; (mov r8, r8)
 80021c8:	40021000 	.word	0x40021000
 80021cc:	40022000 	.word	0x40022000

080021d0 <HAL_RCCEx_PeriphCLKConfig>:
  *         the backup registers) and RCC_BDCR register are set to their reset values.
  *
  * @retval HAL status
  */
HAL_StatusTypeDef HAL_RCCEx_PeriphCLKConfig(RCC_PeriphCLKInitTypeDef  *PeriphClkInit)
{
 80021d0:	b5f0      	push	{r4, r5, r6, r7, lr}

  /* Check the parameters */
  assert_param(IS_RCC_PERIPHCLOCK(PeriphClkInit->PeriphClockSelection));
  
  /*---------------------------- RTC configuration -------------------------------*/
  if(((PeriphClkInit->PeriphClockSelection) & RCC_PERIPHCLK_RTC) == (RCC_PERIPHCLK_RTC))
 80021d2:	6803      	ldr	r3, [r0, #0]
{
 80021d4:	b085      	sub	sp, #20
 80021d6:	0005      	movs	r5, r0
  if(((PeriphClkInit->PeriphClockSelection) & RCC_PERIPHCLK_RTC) == (RCC_PERIPHCLK_RTC))
 80021d8:	03db      	lsls	r3, r3, #15
 80021da:	d528      	bpl.n	800222e <HAL_RCCEx_PeriphCLKConfig+0x5e>
    FlagStatus       pwrclkchanged = RESET;

    /* As soon as function is called to change RTC clock source, activation of the 
       power domain is done. */
    /* Requires to enable write access to Backup Domain of necessary */
    if(__HAL_RCC_PWR_IS_CLK_DISABLED())
 80021dc:	2280      	movs	r2, #128	; 0x80
    FlagStatus       pwrclkchanged = RESET;
 80021de:	2100      	movs	r1, #0
    if(__HAL_RCC_PWR_IS_CLK_DISABLED())
 80021e0:	4c3b      	ldr	r4, [pc, #236]	; (80022d0 <HAL_RCCEx_PeriphCLKConfig+0x100>)
 80021e2:	0552      	lsls	r2, r2, #21
 80021e4:	69e3      	ldr	r3, [r4, #28]
    FlagStatus       pwrclkchanged = RESET;
 80021e6:	9100      	str	r1, [sp, #0]
    if(__HAL_RCC_PWR_IS_CLK_DISABLED())
 80021e8:	4213      	tst	r3, r2
 80021ea:	d108      	bne.n	80021fe <HAL_RCCEx_PeriphCLKConfig+0x2e>
    {
    __HAL_RCC_PWR_CLK_ENABLE();
 80021ec:	69e3      	ldr	r3, [r4, #28]
 80021ee:	4313      	orrs	r3, r2
 80021f0:	61e3      	str	r3, [r4, #28]
 80021f2:	69e3      	ldr	r3, [r4, #28]
 80021f4:	4013      	ands	r3, r2
 80021f6:	9303      	str	r3, [sp, #12]
 80021f8:	9b03      	ldr	r3, [sp, #12]
      pwrclkchanged = SET;
 80021fa:	2301      	movs	r3, #1
 80021fc:	9300      	str	r3, [sp, #0]
    }
    
    if(HAL_IS_BIT_CLR(PWR->CR, PWR_CR_DBP))
 80021fe:	2780      	movs	r7, #128	; 0x80
 8002200:	4e34      	ldr	r6, [pc, #208]	; (80022d4 <HAL_RCCEx_PeriphCLKConfig+0x104>)
 8002202:	007f      	lsls	r7, r7, #1
 8002204:	6833      	ldr	r3, [r6, #0]
 8002206:	423b      	tst	r3, r7
 8002208:	d02f      	beq.n	800226a <HAL_RCCEx_PeriphCLKConfig+0x9a>
        }
      }
    }
    
    /* Reset the Backup domain only if the RTC Clock source selection is modified from reset value */ 
    temp_reg = (RCC->BDCR & RCC_BDCR_RTCSEL);
 800220a:	22c0      	movs	r2, #192	; 0xc0
 800220c:	6a23      	ldr	r3, [r4, #32]
 800220e:	0092      	lsls	r2, r2, #2
 8002210:	4013      	ands	r3, r2
 8002212:	4e31      	ldr	r6, [pc, #196]	; (80022d8 <HAL_RCCEx_PeriphCLKConfig+0x108>)
    if((temp_reg != 0x00000000U) && (temp_reg != (PeriphClkInit->RTCClockSelection & RCC_BDCR_RTCSEL)))
 8002214:	d13b      	bne.n	800228e <HAL_RCCEx_PeriphCLKConfig+0xbe>
            return HAL_TIMEOUT;
          }
        }
      }
    }
    __HAL_RCC_RTC_CONFIG(PeriphClkInit->RTCClockSelection);
 8002216:	6a23      	ldr	r3, [r4, #32]
 8002218:	401e      	ands	r6, r3
 800221a:	686b      	ldr	r3, [r5, #4]
 800221c:	431e      	orrs	r6, r3

    /* Require to disable power clock if necessary */
    if(pwrclkchanged == SET)
 800221e:	9b00      	ldr	r3, [sp, #0]
    __HAL_RCC_RTC_CONFIG(PeriphClkInit->RTCClockSelection);
 8002220:	6226      	str	r6, [r4, #32]
    if(pwrclkchanged == SET)
 8002222:	2b01      	cmp	r3, #1
 8002224:	d103      	bne.n	800222e <HAL_RCCEx_PeriphCLKConfig+0x5e>
    {
      __HAL_RCC_PWR_CLK_DISABLE();
 8002226:	69e3      	ldr	r3, [r4, #28]
 8002228:	4a2c      	ldr	r2, [pc, #176]	; (80022dc <HAL_RCCEx_PeriphCLKConfig+0x10c>)
 800222a:	4013      	ands	r3, r2
 800222c:	61e3      	str	r3, [r4, #28]
    }
  }

  /*------------------------------- USART1 Configuration ------------------------*/ 
  if(((PeriphClkInit->PeriphClockSelection) & RCC_PERIPHCLK_USART1) == RCC_PERIPHCLK_USART1)
 800222e:	682a      	ldr	r2, [r5, #0]
 8002230:	07d3      	lsls	r3, r2, #31
 8002232:	d506      	bpl.n	8002242 <HAL_RCCEx_PeriphCLKConfig+0x72>
  {
    /* Check the parameters */
    assert_param(IS_RCC_USART1CLKSOURCE(PeriphClkInit->Usart1ClockSelection));
    
    /* Configure the USART1 clock source */
    __HAL_RCC_USART1_CONFIG(PeriphClkInit->Usart1ClockSelection);
 8002234:	2003      	movs	r0, #3
 8002236:	4926      	ldr	r1, [pc, #152]	; (80022d0 <HAL_RCCEx_PeriphCLKConfig+0x100>)
 8002238:	6b0b      	ldr	r3, [r1, #48]	; 0x30
 800223a:	4383      	bics	r3, r0
 800223c:	68a8      	ldr	r0, [r5, #8]
 800223e:	4303      	orrs	r3, r0
 8002240:	630b      	str	r3, [r1, #48]	; 0x30
    __HAL_RCC_USART3_CONFIG(PeriphClkInit->Usart3ClockSelection);
  }
#endif /* STM32F091xC || STM32F098xx */  

  /*------------------------------ I2C1 Configuration ------------------------*/ 
  if(((PeriphClkInit->PeriphClockSelection) & RCC_PERIPHCLK_I2C1) == RCC_PERIPHCLK_I2C1)
 8002242:	0693      	lsls	r3, r2, #26
 8002244:	d506      	bpl.n	8002254 <HAL_RCCEx_PeriphCLKConfig+0x84>
  {
    /* Check the parameters */
    assert_param(IS_RCC_I2C1CLKSOURCE(PeriphClkInit->I2c1ClockSelection));
    
    /* Configure the I2C1 clock source */
    __HAL_RCC_I2C1_CONFIG(PeriphClkInit->I2c1ClockSelection);
 8002246:	2010      	movs	r0, #16
 8002248:	4921      	ldr	r1, [pc, #132]	; (80022d0 <HAL_RCCEx_PeriphCLKConfig+0x100>)
 800224a:	6b0b      	ldr	r3, [r1, #48]	; 0x30
 800224c:	4383      	bics	r3, r0
 800224e:	68e8      	ldr	r0, [r5, #12]
 8002250:	4303      	orrs	r3, r0
 8002252:	630b      	str	r3, [r1, #48]	; 0x30
#endif /* STM32F042x6 || STM32F048xx ||                */
       /* STM32F051x8 || STM32F058xx ||                */
       /* STM32F071xB || STM32F072xB || STM32F078xx || */
       /* STM32F091xC || STM32F098xx */
  
  return HAL_OK;
 8002254:	2000      	movs	r0, #0
  if(((PeriphClkInit->PeriphClockSelection) & RCC_PERIPHCLK_USB) == RCC_PERIPHCLK_USB)
 8002256:	0393      	lsls	r3, r2, #14
 8002258:	d517      	bpl.n	800228a <HAL_RCCEx_PeriphCLKConfig+0xba>
    __HAL_RCC_USB_CONFIG(PeriphClkInit->UsbClockSelection);
 800225a:	2180      	movs	r1, #128	; 0x80
 800225c:	4a1c      	ldr	r2, [pc, #112]	; (80022d0 <HAL_RCCEx_PeriphCLKConfig+0x100>)
 800225e:	6b13      	ldr	r3, [r2, #48]	; 0x30
 8002260:	438b      	bics	r3, r1
 8002262:	6929      	ldr	r1, [r5, #16]
 8002264:	430b      	orrs	r3, r1
 8002266:	6313      	str	r3, [r2, #48]	; 0x30
 8002268:	e00f      	b.n	800228a <HAL_RCCEx_PeriphCLKConfig+0xba>
      SET_BIT(PWR->CR, PWR_CR_DBP);
 800226a:	6833      	ldr	r3, [r6, #0]
 800226c:	433b      	orrs	r3, r7
 800226e:	6033      	str	r3, [r6, #0]
      tickstart = HAL_GetTick();
 8002270:	f7fe fc12 	bl	8000a98 <HAL_GetTick>
 8002274:	9001      	str	r0, [sp, #4]
      while(HAL_IS_BIT_CLR(PWR->CR, PWR_CR_DBP))
 8002276:	6833      	ldr	r3, [r6, #0]
 8002278:	423b      	tst	r3, r7
 800227a:	d1c6      	bne.n	800220a <HAL_RCCEx_PeriphCLKConfig+0x3a>
        if((HAL_GetTick() - tickstart) > RCC_DBP_TIMEOUT_VALUE)
 800227c:	f7fe fc0c 	bl	8000a98 <HAL_GetTick>
 8002280:	9b01      	ldr	r3, [sp, #4]
 8002282:	1ac0      	subs	r0, r0, r3
 8002284:	2864      	cmp	r0, #100	; 0x64
 8002286:	d9f6      	bls.n	8002276 <HAL_RCCEx_PeriphCLKConfig+0xa6>
          return HAL_TIMEOUT;
 8002288:	2003      	movs	r0, #3
}
 800228a:	b005      	add	sp, #20
 800228c:	bdf0      	pop	{r4, r5, r6, r7, pc}
    if((temp_reg != 0x00000000U) && (temp_reg != (PeriphClkInit->RTCClockSelection & RCC_BDCR_RTCSEL)))
 800228e:	6869      	ldr	r1, [r5, #4]
 8002290:	400a      	ands	r2, r1
 8002292:	4293      	cmp	r3, r2
 8002294:	d0bf      	beq.n	8002216 <HAL_RCCEx_PeriphCLKConfig+0x46>
      __HAL_RCC_BACKUPRESET_FORCE();
 8002296:	2380      	movs	r3, #128	; 0x80
      temp_reg = (RCC->BDCR & ~(RCC_BDCR_RTCSEL));
 8002298:	6a22      	ldr	r2, [r4, #32]
      __HAL_RCC_BACKUPRESET_FORCE();
 800229a:	6a20      	ldr	r0, [r4, #32]
      temp_reg = (RCC->BDCR & ~(RCC_BDCR_RTCSEL));
 800229c:	0011      	movs	r1, r2
      __HAL_RCC_BACKUPRESET_FORCE();
 800229e:	025b      	lsls	r3, r3, #9
 80022a0:	4303      	orrs	r3, r0
 80022a2:	6223      	str	r3, [r4, #32]
      __HAL_RCC_BACKUPRESET_RELEASE();
 80022a4:	6a23      	ldr	r3, [r4, #32]
 80022a6:	480e      	ldr	r0, [pc, #56]	; (80022e0 <HAL_RCCEx_PeriphCLKConfig+0x110>)
      temp_reg = (RCC->BDCR & ~(RCC_BDCR_RTCSEL));
 80022a8:	4031      	ands	r1, r6
      __HAL_RCC_BACKUPRESET_RELEASE();
 80022aa:	4003      	ands	r3, r0
 80022ac:	6223      	str	r3, [r4, #32]
      RCC->BDCR = temp_reg;
 80022ae:	6221      	str	r1, [r4, #32]
      if (HAL_IS_BIT_SET(temp_reg, RCC_BDCR_LSEON))
 80022b0:	07d3      	lsls	r3, r2, #31
 80022b2:	d5b0      	bpl.n	8002216 <HAL_RCCEx_PeriphCLKConfig+0x46>
        tickstart = HAL_GetTick();
 80022b4:	f7fe fbf0 	bl	8000a98 <HAL_GetTick>
 80022b8:	0007      	movs	r7, r0
        while(__HAL_RCC_GET_FLAG(RCC_FLAG_LSERDY) == RESET)
 80022ba:	2202      	movs	r2, #2
 80022bc:	6a23      	ldr	r3, [r4, #32]
 80022be:	4213      	tst	r3, r2
 80022c0:	d1a9      	bne.n	8002216 <HAL_RCCEx_PeriphCLKConfig+0x46>
          if((HAL_GetTick() - tickstart) > RCC_LSE_TIMEOUT_VALUE)
 80022c2:	f7fe fbe9 	bl	8000a98 <HAL_GetTick>
 80022c6:	4b07      	ldr	r3, [pc, #28]	; (80022e4 <HAL_RCCEx_PeriphCLKConfig+0x114>)
 80022c8:	1bc0      	subs	r0, r0, r7
 80022ca:	4298      	cmp	r0, r3
 80022cc:	d9f5      	bls.n	80022ba <HAL_RCCEx_PeriphCLKConfig+0xea>
 80022ce:	e7db      	b.n	8002288 <HAL_RCCEx_PeriphCLKConfig+0xb8>
 80022d0:	40021000 	.word	0x40021000
 80022d4:	40007000 	.word	0x40007000
 80022d8:	fffffcff 	.word	0xfffffcff
 80022dc:	efffffff 	.word	0xefffffff
 80022e0:	fffeffff 	.word	0xfffeffff
 80022e4:	00001388 	.word	0x00001388

080022e8 <HAL_TIM_Base_MspInit>:
 80022e8:	4770      	bx	lr

080022ea <HAL_TIM_Base_Start_IT>:
{
  /* Check the parameters */
  assert_param(IS_TIM_INSTANCE(htim->Instance));

   /* Enable the TIM Update interrupt */
   __HAL_TIM_ENABLE_IT(htim, TIM_IT_UPDATE);
 80022ea:	2201      	movs	r2, #1
 80022ec:	6803      	ldr	r3, [r0, #0]
 80022ee:	68d9      	ldr	r1, [r3, #12]
   /* Enable the Peripheral */
  __HAL_TIM_ENABLE(htim);

  /* Return function status */
  return HAL_OK;
}
 80022f0:	2000      	movs	r0, #0
   __HAL_TIM_ENABLE_IT(htim, TIM_IT_UPDATE);
 80022f2:	4311      	orrs	r1, r2
 80022f4:	60d9      	str	r1, [r3, #12]
  __HAL_TIM_ENABLE(htim);
 80022f6:	6819      	ldr	r1, [r3, #0]
 80022f8:	430a      	orrs	r2, r1
 80022fa:	601a      	str	r2, [r3, #0]
}
 80022fc:	4770      	bx	lr

080022fe <HAL_TIM_OC_DelayElapsedCallback>:
 80022fe:	4770      	bx	lr

08002300 <HAL_TIM_IC_CaptureCallback>:
 8002300:	4770      	bx	lr

08002302 <HAL_TIM_PWM_PulseFinishedCallback>:
 8002302:	4770      	bx	lr

08002304 <HAL_TIM_TriggerCallback>:
 8002304:	4770      	bx	lr

08002306 <HAL_TIM_IRQHandler>:
  * @retval None
  */
void HAL_TIM_IRQHandler(TIM_HandleTypeDef *htim)
{
  /* Capture compare 1 event */
  if(__HAL_TIM_GET_FLAG(htim, TIM_FLAG_CC1) != RESET)
 8002306:	2202      	movs	r2, #2
 8002308:	6803      	ldr	r3, [r0, #0]
{
 800230a:	b510      	push	{r4, lr}
  if(__HAL_TIM_GET_FLAG(htim, TIM_FLAG_CC1) != RESET)
 800230c:	6919      	ldr	r1, [r3, #16]
{
 800230e:	0004      	movs	r4, r0
  if(__HAL_TIM_GET_FLAG(htim, TIM_FLAG_CC1) != RESET)
 8002310:	4211      	tst	r1, r2
 8002312:	d00e      	beq.n	8002332 <HAL_TIM_IRQHandler+0x2c>
  {
    if(__HAL_TIM_GET_IT_SOURCE(htim, TIM_IT_CC1) !=RESET)
 8002314:	68d9      	ldr	r1, [r3, #12]
 8002316:	4211      	tst	r1, r2
 8002318:	d00b      	beq.n	8002332 <HAL_TIM_IRQHandler+0x2c>
    {
      {
        __HAL_TIM_CLEAR_IT(htim, TIM_IT_CC1);
 800231a:	3a05      	subs	r2, #5
 800231c:	611a      	str	r2, [r3, #16]
        htim->Channel = HAL_TIM_ACTIVE_CHANNEL_1;

        /* Input capture event */
        if((htim->Instance->CCMR1 & TIM_CCMR1_CC1S) != 0x00U)
 800231e:	699b      	ldr	r3, [r3, #24]
        htim->Channel = HAL_TIM_ACTIVE_CHANNEL_1;
 8002320:	3204      	adds	r2, #4
 8002322:	7702      	strb	r2, [r0, #28]
        if((htim->Instance->CCMR1 & TIM_CCMR1_CC1S) != 0x00U)
 8002324:	079b      	lsls	r3, r3, #30
 8002326:	d100      	bne.n	800232a <HAL_TIM_IRQHandler+0x24>
 8002328:	e079      	b.n	800241e <HAL_TIM_IRQHandler+0x118>
        {
          HAL_TIM_IC_CaptureCallback(htim);
 800232a:	f7ff ffe9 	bl	8002300 <HAL_TIM_IC_CaptureCallback>
        else
        {
          HAL_TIM_OC_DelayElapsedCallback(htim);
          HAL_TIM_PWM_PulseFinishedCallback(htim);
        }
        htim->Channel = HAL_TIM_ACTIVE_CHANNEL_CLEARED;
 800232e:	2300      	movs	r3, #0
 8002330:	7723      	strb	r3, [r4, #28]
      }
    }
  }
  /* Capture compare 2 event */
  if(__HAL_TIM_GET_FLAG(htim, TIM_FLAG_CC2) != RESET)
 8002332:	2204      	movs	r2, #4
 8002334:	6823      	ldr	r3, [r4, #0]
 8002336:	6919      	ldr	r1, [r3, #16]
 8002338:	4211      	tst	r1, r2
 800233a:	d010      	beq.n	800235e <HAL_TIM_IRQHandler+0x58>
  {
    if(__HAL_TIM_GET_IT_SOURCE(htim, TIM_IT_CC2) !=RESET)
 800233c:	68d9      	ldr	r1, [r3, #12]
 800233e:	4211      	tst	r1, r2
 8002340:	d00d      	beq.n	800235e <HAL_TIM_IRQHandler+0x58>
    {
      __HAL_TIM_CLEAR_IT(htim, TIM_IT_CC2);
 8002342:	3a09      	subs	r2, #9
 8002344:	611a      	str	r2, [r3, #16]
      htim->Channel = HAL_TIM_ACTIVE_CHANNEL_2;
 8002346:	3207      	adds	r2, #7
 8002348:	7722      	strb	r2, [r4, #28]
      /* Input capture event */
      if((htim->Instance->CCMR1 & TIM_CCMR1_CC2S) != 0x00U)
 800234a:	699a      	ldr	r2, [r3, #24]
 800234c:	23c0      	movs	r3, #192	; 0xc0
 800234e:	009b      	lsls	r3, r3, #2
      {
        HAL_TIM_IC_CaptureCallback(htim);
 8002350:	0020      	movs	r0, r4
      if((htim->Instance->CCMR1 & TIM_CCMR1_CC2S) != 0x00U)
 8002352:	421a      	tst	r2, r3
 8002354:	d069      	beq.n	800242a <HAL_TIM_IRQHandler+0x124>
        HAL_TIM_IC_CaptureCallback(htim);
 8002356:	f7ff ffd3 	bl	8002300 <HAL_TIM_IC_CaptureCallback>
      else
      {
        HAL_TIM_OC_DelayElapsedCallback(htim);
        HAL_TIM_PWM_PulseFinishedCallback(htim);
      }
      htim->Channel = HAL_TIM_ACTIVE_CHANNEL_CLEARED;
 800235a:	2300      	movs	r3, #0
 800235c:	7723      	strb	r3, [r4, #28]
    }
  }
  /* Capture compare 3 event */
  if(__HAL_TIM_GET_FLAG(htim, TIM_FLAG_CC3) != RESET)
 800235e:	2208      	movs	r2, #8
 8002360:	6823      	ldr	r3, [r4, #0]
 8002362:	6919      	ldr	r1, [r3, #16]
 8002364:	4211      	tst	r1, r2
 8002366:	d00e      	beq.n	8002386 <HAL_TIM_IRQHandler+0x80>
  {
    if(__HAL_TIM_GET_IT_SOURCE(htim, TIM_IT_CC3) !=RESET)
 8002368:	68d9      	ldr	r1, [r3, #12]
 800236a:	4211      	tst	r1, r2
 800236c:	d00b      	beq.n	8002386 <HAL_TIM_IRQHandler+0x80>
    {
      __HAL_TIM_CLEAR_IT(htim, TIM_IT_CC3);
 800236e:	3a11      	subs	r2, #17
 8002370:	611a      	str	r2, [r3, #16]
      htim->Channel = HAL_TIM_ACTIVE_CHANNEL_3;
      /* Input capture event */
      if((htim->Instance->CCMR2 & TIM_CCMR2_CC3S) != 0x00U)
 8002372:	69db      	ldr	r3, [r3, #28]
      htim->Channel = HAL_TIM_ACTIVE_CHANNEL_3;
 8002374:	320d      	adds	r2, #13
 8002376:	7722      	strb	r2, [r4, #28]
      {
        HAL_TIM_IC_CaptureCallback(htim);
 8002378:	0020      	movs	r0, r4
      if((htim->Instance->CCMR2 & TIM_CCMR2_CC3S) != 0x00U)
 800237a:	079b      	lsls	r3, r3, #30
 800237c:	d05b      	beq.n	8002436 <HAL_TIM_IRQHandler+0x130>
        HAL_TIM_IC_CaptureCallback(htim);
 800237e:	f7ff ffbf 	bl	8002300 <HAL_TIM_IC_CaptureCallback>
      else
      {
        HAL_TIM_OC_DelayElapsedCallback(htim);
        HAL_TIM_PWM_PulseFinishedCallback(htim);
      }
      htim->Channel = HAL_TIM_ACTIVE_CHANNEL_CLEARED;
 8002382:	2300      	movs	r3, #0
 8002384:	7723      	strb	r3, [r4, #28]
    }
  }
  /* Capture compare 4 event */
  if(__HAL_TIM_GET_FLAG(htim, TIM_FLAG_CC4) != RESET)
 8002386:	2210      	movs	r2, #16
 8002388:	6823      	ldr	r3, [r4, #0]
 800238a:	6919      	ldr	r1, [r3, #16]
 800238c:	4211      	tst	r1, r2
 800238e:	d010      	beq.n	80023b2 <HAL_TIM_IRQHandler+0xac>
  {
    if(__HAL_TIM_GET_IT_SOURCE(htim, TIM_IT_CC4) !=RESET)
 8002390:	68d9      	ldr	r1, [r3, #12]
 8002392:	4211      	tst	r1, r2
 8002394:	d00d      	beq.n	80023b2 <HAL_TIM_IRQHandler+0xac>
    {
      __HAL_TIM_CLEAR_IT(htim, TIM_IT_CC4);
 8002396:	3a21      	subs	r2, #33	; 0x21
 8002398:	611a      	str	r2, [r3, #16]
      htim->Channel = HAL_TIM_ACTIVE_CHANNEL_4;
 800239a:	3219      	adds	r2, #25
 800239c:	7722      	strb	r2, [r4, #28]
      /* Input capture event */
      if((htim->Instance->CCMR2 & TIM_CCMR2_CC4S) != 0x00U)
 800239e:	69da      	ldr	r2, [r3, #28]
 80023a0:	23c0      	movs	r3, #192	; 0xc0
 80023a2:	009b      	lsls	r3, r3, #2
      {
        HAL_TIM_IC_CaptureCallback(htim);
 80023a4:	0020      	movs	r0, r4
      if((htim->Instance->CCMR2 & TIM_CCMR2_CC4S) != 0x00U)
 80023a6:	421a      	tst	r2, r3
 80023a8:	d04b      	beq.n	8002442 <HAL_TIM_IRQHandler+0x13c>
        HAL_TIM_IC_CaptureCallback(htim);
 80023aa:	f7ff ffa9 	bl	8002300 <HAL_TIM_IC_CaptureCallback>
      else
      {
        HAL_TIM_OC_DelayElapsedCallback(htim);
        HAL_TIM_PWM_PulseFinishedCallback(htim);
      }
      htim->Channel = HAL_TIM_ACTIVE_CHANNEL_CLEARED;
 80023ae:	2300      	movs	r3, #0
 80023b0:	7723      	strb	r3, [r4, #28]
    }
  }
  /* TIM Update event */
  if(__HAL_TIM_GET_FLAG(htim, TIM_FLAG_UPDATE) != RESET)
 80023b2:	2201      	movs	r2, #1
 80023b4:	6823      	ldr	r3, [r4, #0]
 80023b6:	6919      	ldr	r1, [r3, #16]
 80023b8:	4211      	tst	r1, r2
 80023ba:	d007      	beq.n	80023cc <HAL_TIM_IRQHandler+0xc6>
  {
    if(__HAL_TIM_GET_IT_SOURCE(htim, TIM_IT_UPDATE) !=RESET)
 80023bc:	68d9      	ldr	r1, [r3, #12]
 80023be:	4211      	tst	r1, r2
 80023c0:	d004      	beq.n	80023cc <HAL_TIM_IRQHandler+0xc6>
    {
      __HAL_TIM_CLEAR_IT(htim, TIM_IT_UPDATE);
 80023c2:	3a03      	subs	r2, #3
 80023c4:	611a      	str	r2, [r3, #16]
      HAL_TIM_PeriodElapsedCallback(htim);
 80023c6:	0020      	movs	r0, r4
 80023c8:	f7fe f9d6 	bl	8000778 <HAL_TIM_PeriodElapsedCallback>
    }
  }
  /* TIM Break input event */
  if(__HAL_TIM_GET_FLAG(htim, TIM_FLAG_BREAK) != RESET)
 80023cc:	2280      	movs	r2, #128	; 0x80
 80023ce:	6823      	ldr	r3, [r4, #0]
 80023d0:	6919      	ldr	r1, [r3, #16]
 80023d2:	4211      	tst	r1, r2
 80023d4:	d008      	beq.n	80023e8 <HAL_TIM_IRQHandler+0xe2>
  {
    if(__HAL_TIM_GET_IT_SOURCE(htim, TIM_IT_BREAK) !=RESET)
 80023d6:	68d9      	ldr	r1, [r3, #12]
 80023d8:	4211      	tst	r1, r2
 80023da:	d005      	beq.n	80023e8 <HAL_TIM_IRQHandler+0xe2>
    {
      __HAL_TIM_CLEAR_IT(htim, TIM_IT_BREAK);
 80023dc:	3a02      	subs	r2, #2
 80023de:	3aff      	subs	r2, #255	; 0xff
 80023e0:	611a      	str	r2, [r3, #16]
      HAL_TIMEx_BreakCallback(htim);
 80023e2:	0020      	movs	r0, r4
 80023e4:	f000 f898 	bl	8002518 <HAL_TIMEx_BreakCallback>
    }
  }
  /* TIM Trigger detection event */
  if(__HAL_TIM_GET_FLAG(htim, TIM_FLAG_TRIGGER) != RESET)
 80023e8:	2240      	movs	r2, #64	; 0x40
 80023ea:	6823      	ldr	r3, [r4, #0]
 80023ec:	6919      	ldr	r1, [r3, #16]
 80023ee:	4211      	tst	r1, r2
 80023f0:	d007      	beq.n	8002402 <HAL_TIM_IRQHandler+0xfc>
  {
    if(__HAL_TIM_GET_IT_SOURCE(htim, TIM_IT_TRIGGER) !=RESET)
 80023f2:	68d9      	ldr	r1, [r3, #12]
 80023f4:	4211      	tst	r1, r2
 80023f6:	d004      	beq.n	8002402 <HAL_TIM_IRQHandler+0xfc>
    {
      __HAL_TIM_CLEAR_IT(htim, TIM_IT_TRIGGER);
 80023f8:	3a81      	subs	r2, #129	; 0x81
 80023fa:	611a      	str	r2, [r3, #16]
      HAL_TIM_TriggerCallback(htim);
 80023fc:	0020      	movs	r0, r4
 80023fe:	f7ff ff81 	bl	8002304 <HAL_TIM_TriggerCallback>
    }
  }
  /* TIM commutation event */
  if(__HAL_TIM_GET_FLAG(htim, TIM_FLAG_COM) != RESET)
 8002402:	2220      	movs	r2, #32
 8002404:	6823      	ldr	r3, [r4, #0]
 8002406:	6919      	ldr	r1, [r3, #16]
 8002408:	4211      	tst	r1, r2
 800240a:	d007      	beq.n	800241c <HAL_TIM_IRQHandler+0x116>
  {
    if(__HAL_TIM_GET_IT_SOURCE(htim, TIM_IT_COM) !=RESET)
 800240c:	68d9      	ldr	r1, [r3, #12]
 800240e:	4211      	tst	r1, r2
 8002410:	d004      	beq.n	800241c <HAL_TIM_IRQHandler+0x116>
    {
      __HAL_TIM_CLEAR_IT(htim, TIM_FLAG_COM);
 8002412:	3a41      	subs	r2, #65	; 0x41
 8002414:	611a      	str	r2, [r3, #16]
      HAL_TIMEx_CommutationCallback(htim);
 8002416:	0020      	movs	r0, r4
 8002418:	f000 f87d 	bl	8002516 <HAL_TIMEx_CommutationCallback>
    }
  }
}
 800241c:	bd10      	pop	{r4, pc}
          HAL_TIM_OC_DelayElapsedCallback(htim);
 800241e:	f7ff ff6e 	bl	80022fe <HAL_TIM_OC_DelayElapsedCallback>
          HAL_TIM_PWM_PulseFinishedCallback(htim);
 8002422:	0020      	movs	r0, r4
 8002424:	f7ff ff6d 	bl	8002302 <HAL_TIM_PWM_PulseFinishedCallback>
 8002428:	e781      	b.n	800232e <HAL_TIM_IRQHandler+0x28>
        HAL_TIM_OC_DelayElapsedCallback(htim);
 800242a:	f7ff ff68 	bl	80022fe <HAL_TIM_OC_DelayElapsedCallback>
        HAL_TIM_PWM_PulseFinishedCallback(htim);
 800242e:	0020      	movs	r0, r4
 8002430:	f7ff ff67 	bl	8002302 <HAL_TIM_PWM_PulseFinishedCallback>
 8002434:	e791      	b.n	800235a <HAL_TIM_IRQHandler+0x54>
        HAL_TIM_OC_DelayElapsedCallback(htim);
 8002436:	f7ff ff62 	bl	80022fe <HAL_TIM_OC_DelayElapsedCallback>
        HAL_TIM_PWM_PulseFinishedCallback(htim);
 800243a:	0020      	movs	r0, r4
 800243c:	f7ff ff61 	bl	8002302 <HAL_TIM_PWM_PulseFinishedCallback>
 8002440:	e79f      	b.n	8002382 <HAL_TIM_IRQHandler+0x7c>
        HAL_TIM_OC_DelayElapsedCallback(htim);
 8002442:	f7ff ff5c 	bl	80022fe <HAL_TIM_OC_DelayElapsedCallback>
        HAL_TIM_PWM_PulseFinishedCallback(htim);
 8002446:	0020      	movs	r0, r4
 8002448:	f7ff ff5b 	bl	8002302 <HAL_TIM_PWM_PulseFinishedCallback>
 800244c:	e7af      	b.n	80023ae <HAL_TIM_IRQHandler+0xa8>
	...

08002450 <TIM_Base_SetConfig>:
{
  uint32_t tmpcr1 = 0U;
  tmpcr1 = TIMx->CR1;

  /* Set TIM Time Base Unit parameters ---------------------------------------*/
  if (IS_TIM_COUNTER_MODE_SELECT_INSTANCE(TIMx))
 8002450:	4a1c      	ldr	r2, [pc, #112]	; (80024c4 <TIM_Base_SetConfig+0x74>)
{
 8002452:	b510      	push	{r4, lr}
  tmpcr1 = TIMx->CR1;
 8002454:	6803      	ldr	r3, [r0, #0]
  if (IS_TIM_COUNTER_MODE_SELECT_INSTANCE(TIMx))
 8002456:	4290      	cmp	r0, r2
 8002458:	d002      	beq.n	8002460 <TIM_Base_SetConfig+0x10>
 800245a:	4c1b      	ldr	r4, [pc, #108]	; (80024c8 <TIM_Base_SetConfig+0x78>)
 800245c:	42a0      	cmp	r0, r4
 800245e:	d108      	bne.n	8002472 <TIM_Base_SetConfig+0x22>
  {
    /* Select the Counter Mode */
    tmpcr1 &= ~(TIM_CR1_DIR | TIM_CR1_CMS);
 8002460:	2470      	movs	r4, #112	; 0x70
 8002462:	43a3      	bics	r3, r4
    tmpcr1 |= Structure->CounterMode;
 8002464:	684c      	ldr	r4, [r1, #4]
 8002466:	4323      	orrs	r3, r4
  }

  if(IS_TIM_CLOCK_DIVISION_INSTANCE(TIMx))
 8002468:	4290      	cmp	r0, r2
 800246a:	d00e      	beq.n	800248a <TIM_Base_SetConfig+0x3a>
 800246c:	4c16      	ldr	r4, [pc, #88]	; (80024c8 <TIM_Base_SetConfig+0x78>)
 800246e:	42a0      	cmp	r0, r4
 8002470:	d00b      	beq.n	800248a <TIM_Base_SetConfig+0x3a>
 8002472:	4c16      	ldr	r4, [pc, #88]	; (80024cc <TIM_Base_SetConfig+0x7c>)
 8002474:	42a0      	cmp	r0, r4
 8002476:	d008      	beq.n	800248a <TIM_Base_SetConfig+0x3a>
 8002478:	4c15      	ldr	r4, [pc, #84]	; (80024d0 <TIM_Base_SetConfig+0x80>)
 800247a:	42a0      	cmp	r0, r4
 800247c:	d005      	beq.n	800248a <TIM_Base_SetConfig+0x3a>
 800247e:	4c15      	ldr	r4, [pc, #84]	; (80024d4 <TIM_Base_SetConfig+0x84>)
 8002480:	42a0      	cmp	r0, r4
 8002482:	d002      	beq.n	800248a <TIM_Base_SetConfig+0x3a>
 8002484:	4c14      	ldr	r4, [pc, #80]	; (80024d8 <TIM_Base_SetConfig+0x88>)
 8002486:	42a0      	cmp	r0, r4
 8002488:	d103      	bne.n	8002492 <TIM_Base_SetConfig+0x42>
  {
    /* Set the clock division */
    tmpcr1 &= ~TIM_CR1_CKD;
 800248a:	4c14      	ldr	r4, [pc, #80]	; (80024dc <TIM_Base_SetConfig+0x8c>)
 800248c:	4023      	ands	r3, r4
    tmpcr1 |= (uint32_t)Structure->ClockDivision;
 800248e:	68cc      	ldr	r4, [r1, #12]
 8002490:	4323      	orrs	r3, r4
  }

  /* Set the auto-reload preload */
  MODIFY_REG(tmpcr1, TIM_CR1_ARPE, Structure->AutoReloadPreload);
 8002492:	2480      	movs	r4, #128	; 0x80
 8002494:	43a3      	bics	r3, r4
 8002496:	694c      	ldr	r4, [r1, #20]
 8002498:	4323      	orrs	r3, r4

  TIMx->CR1 = tmpcr1;
 800249a:	6003      	str	r3, [r0, #0]

  /* Set the Autoreload value */
  TIMx->ARR = (uint32_t)Structure->Period ;
 800249c:	688b      	ldr	r3, [r1, #8]
 800249e:	62c3      	str	r3, [r0, #44]	; 0x2c

  /* Set the Prescaler value */
  TIMx->PSC = (uint32_t)Structure->Prescaler;
 80024a0:	680b      	ldr	r3, [r1, #0]
 80024a2:	6283      	str	r3, [r0, #40]	; 0x28

  if (IS_TIM_REPETITION_COUNTER_INSTANCE(TIMx))
 80024a4:	4290      	cmp	r0, r2
 80024a6:	d008      	beq.n	80024ba <TIM_Base_SetConfig+0x6a>
 80024a8:	4b09      	ldr	r3, [pc, #36]	; (80024d0 <TIM_Base_SetConfig+0x80>)
 80024aa:	4298      	cmp	r0, r3
 80024ac:	d005      	beq.n	80024ba <TIM_Base_SetConfig+0x6a>
 80024ae:	4b09      	ldr	r3, [pc, #36]	; (80024d4 <TIM_Base_SetConfig+0x84>)
 80024b0:	4298      	cmp	r0, r3
 80024b2:	d002      	beq.n	80024ba <TIM_Base_SetConfig+0x6a>
 80024b4:	4b08      	ldr	r3, [pc, #32]	; (80024d8 <TIM_Base_SetConfig+0x88>)
 80024b6:	4298      	cmp	r0, r3
 80024b8:	d101      	bne.n	80024be <TIM_Base_SetConfig+0x6e>
  {
    /* Set the Repetition Counter value */
    TIMx->RCR = Structure->RepetitionCounter;
 80024ba:	690b      	ldr	r3, [r1, #16]
 80024bc:	6303      	str	r3, [r0, #48]	; 0x30
  }

  /* Generate an update event to reload the Prescaler 
     and the repetition counter(only for TIM1 and TIM8) value immediatly */
  TIMx->EGR = TIM_EGR_UG;
 80024be:	2301      	movs	r3, #1
 80024c0:	6143      	str	r3, [r0, #20]
}
 80024c2:	bd10      	pop	{r4, pc}
 80024c4:	40012c00 	.word	0x40012c00
 80024c8:	40000400 	.word	0x40000400
 80024cc:	40002000 	.word	0x40002000
 80024d0:	40014000 	.word	0x40014000
 80024d4:	40014400 	.word	0x40014400
 80024d8:	40014800 	.word	0x40014800
 80024dc:	fffffcff 	.word	0xfffffcff

080024e0 <HAL_TIM_Base_Init>:
{
 80024e0:	b570      	push	{r4, r5, r6, lr}
 80024e2:	0004      	movs	r4, r0
    return HAL_ERROR;
 80024e4:	2001      	movs	r0, #1
  if(htim == NULL)
 80024e6:	2c00      	cmp	r4, #0
 80024e8:	d014      	beq.n	8002514 <HAL_TIM_Base_Init+0x34>
  if(htim->State == HAL_TIM_STATE_RESET)
 80024ea:	0025      	movs	r5, r4
 80024ec:	353d      	adds	r5, #61	; 0x3d
 80024ee:	782b      	ldrb	r3, [r5, #0]
 80024f0:	b2db      	uxtb	r3, r3
 80024f2:	2b00      	cmp	r3, #0
 80024f4:	d105      	bne.n	8002502 <HAL_TIM_Base_Init+0x22>
    htim->Lock = HAL_UNLOCKED;
 80024f6:	0022      	movs	r2, r4
 80024f8:	323c      	adds	r2, #60	; 0x3c
 80024fa:	7013      	strb	r3, [r2, #0]
    HAL_TIM_Base_MspInit(htim);
 80024fc:	0020      	movs	r0, r4
 80024fe:	f7ff fef3 	bl	80022e8 <HAL_TIM_Base_MspInit>
  htim->State= HAL_TIM_STATE_BUSY;
 8002502:	2302      	movs	r3, #2
  TIM_Base_SetConfig(htim->Instance, &htim->Init);
 8002504:	6820      	ldr	r0, [r4, #0]
  htim->State= HAL_TIM_STATE_BUSY;
 8002506:	702b      	strb	r3, [r5, #0]
  TIM_Base_SetConfig(htim->Instance, &htim->Init);
 8002508:	1d21      	adds	r1, r4, #4
 800250a:	f7ff ffa1 	bl	8002450 <TIM_Base_SetConfig>
  htim->State= HAL_TIM_STATE_READY;
 800250e:	2301      	movs	r3, #1
  return HAL_OK;
 8002510:	2000      	movs	r0, #0
  htim->State= HAL_TIM_STATE_READY;
 8002512:	702b      	strb	r3, [r5, #0]
}
 8002514:	bd70      	pop	{r4, r5, r6, pc}

08002516 <HAL_TIMEx_CommutationCallback>:
 8002516:	4770      	bx	lr

08002518 <HAL_TIMEx_BreakCallback>:
  UNUSED(htim);

  /* NOTE : This function Should not be modified, when the callback is needed,
            the HAL_TIMEx_BreakCallback could be implemented in the user file
   */
}
 8002518:	4770      	bx	lr
	...

0800251c <UART_EndRxTransfer>:
  * @retval None
  */
static void UART_EndRxTransfer(UART_HandleTypeDef *huart)
{
  /* Disable RXNE, PE and ERR (Frame error, noise error, overrun error) interrupts */
  CLEAR_BIT(huart->Instance->CR1, (USART_CR1_RXNEIE | USART_CR1_PEIE));
 800251c:	6803      	ldr	r3, [r0, #0]
 800251e:	4906      	ldr	r1, [pc, #24]	; (8002538 <UART_EndRxTransfer+0x1c>)
 8002520:	681a      	ldr	r2, [r3, #0]
  CLEAR_BIT(huart->Instance->CR3, USART_CR3_EIE);

  /* At end of Rx process, restore huart->RxState to Ready */
  huart->RxState = HAL_UART_STATE_READY;
 8002522:	306a      	adds	r0, #106	; 0x6a
  CLEAR_BIT(huart->Instance->CR1, (USART_CR1_RXNEIE | USART_CR1_PEIE));
 8002524:	400a      	ands	r2, r1
 8002526:	601a      	str	r2, [r3, #0]
  CLEAR_BIT(huart->Instance->CR3, USART_CR3_EIE);
 8002528:	689a      	ldr	r2, [r3, #8]
 800252a:	3123      	adds	r1, #35	; 0x23
 800252c:	31ff      	adds	r1, #255	; 0xff
 800252e:	438a      	bics	r2, r1
 8002530:	609a      	str	r2, [r3, #8]
  huart->RxState = HAL_UART_STATE_READY;
 8002532:	2320      	movs	r3, #32
 8002534:	7003      	strb	r3, [r0, #0]
}
 8002536:	4770      	bx	lr
 8002538:	fffffedf 	.word	0xfffffedf

0800253c <HAL_UART_TxCpltCallback>:
 800253c:	4770      	bx	lr

0800253e <HAL_UART_ErrorCallback>:
 800253e:	4770      	bx	lr

08002540 <UART_DMAAbortOnError>:
  * @param  hdma DMA handle.
  * @retval None
  */
static void UART_DMAAbortOnError(DMA_HandleTypeDef *hdma)
{
  UART_HandleTypeDef* huart = (UART_HandleTypeDef*)(hdma->Parent);
 8002540:	6a40      	ldr	r0, [r0, #36]	; 0x24
  huart->RxXferCount = 0U;
 8002542:	2300      	movs	r3, #0
 8002544:	0002      	movs	r2, r0
{
 8002546:	b510      	push	{r4, lr}
  huart->RxXferCount = 0U;
 8002548:	325a      	adds	r2, #90	; 0x5a
 800254a:	8013      	strh	r3, [r2, #0]
  huart->TxXferCount = 0U;
 800254c:	3a08      	subs	r2, #8
 800254e:	8013      	strh	r3, [r2, #0]

  HAL_UART_ErrorCallback(huart);
 8002550:	f7ff fff5 	bl	800253e <HAL_UART_ErrorCallback>
}
 8002554:	bd10      	pop	{r4, pc}
	...

08002558 <UART_SetConfig>:
{
 8002558:	b570      	push	{r4, r5, r6, lr}
 800255a:	0004      	movs	r4, r0
  MODIFY_REG(huart->Instance->CR1, UART_CR1_FIELDS, tmpreg);
 800255c:	6805      	ldr	r5, [r0, #0]
  tmpreg = (uint32_t)huart->Init.WordLength | huart->Init.Parity | huart->Init.Mode | huart->Init.OverSampling ;
 800255e:	69c2      	ldr	r2, [r0, #28]
 8002560:	6883      	ldr	r3, [r0, #8]
 8002562:	6900      	ldr	r0, [r0, #16]
  MODIFY_REG(huart->Instance->CR1, UART_CR1_FIELDS, tmpreg);
 8002564:	6829      	ldr	r1, [r5, #0]
  tmpreg = (uint32_t)huart->Init.WordLength | huart->Init.Parity | huart->Init.Mode | huart->Init.OverSampling ;
 8002566:	4303      	orrs	r3, r0
 8002568:	6960      	ldr	r0, [r4, #20]
  UART_GETCLOCKSOURCE(huart, clocksource);
 800256a:	4e42      	ldr	r6, [pc, #264]	; (8002674 <UART_SetConfig+0x11c>)
  tmpreg = (uint32_t)huart->Init.WordLength | huart->Init.Parity | huart->Init.Mode | huart->Init.OverSampling ;
 800256c:	4303      	orrs	r3, r0
  MODIFY_REG(huart->Instance->CR1, UART_CR1_FIELDS, tmpreg);
 800256e:	4842      	ldr	r0, [pc, #264]	; (8002678 <UART_SetConfig+0x120>)
  tmpreg = (uint32_t)huart->Init.WordLength | huart->Init.Parity | huart->Init.Mode | huart->Init.OverSampling ;
 8002570:	4313      	orrs	r3, r2
  MODIFY_REG(huart->Instance->CR1, UART_CR1_FIELDS, tmpreg);
 8002572:	4001      	ands	r1, r0
 8002574:	430b      	orrs	r3, r1
 8002576:	602b      	str	r3, [r5, #0]
  MODIFY_REG(huart->Instance->CR2, USART_CR2_STOP, huart->Init.StopBits);
 8002578:	686b      	ldr	r3, [r5, #4]
 800257a:	4940      	ldr	r1, [pc, #256]	; (800267c <UART_SetConfig+0x124>)
  tmpreg = (uint32_t)huart->Init.HwFlowCtl | huart->Init.OneBitSampling ;
 800257c:	6a20      	ldr	r0, [r4, #32]
  MODIFY_REG(huart->Instance->CR2, USART_CR2_STOP, huart->Init.StopBits);
 800257e:	400b      	ands	r3, r1
 8002580:	68e1      	ldr	r1, [r4, #12]
 8002582:	430b      	orrs	r3, r1
 8002584:	606b      	str	r3, [r5, #4]
  tmpreg = (uint32_t)huart->Init.HwFlowCtl | huart->Init.OneBitSampling ;
 8002586:	69a3      	ldr	r3, [r4, #24]
  MODIFY_REG(huart->Instance->CR3, (USART_CR3_RTSE | USART_CR3_CTSE | USART_CR3_ONEBIT), tmpreg);
 8002588:	68a9      	ldr	r1, [r5, #8]
  tmpreg = (uint32_t)huart->Init.HwFlowCtl | huart->Init.OneBitSampling ;
 800258a:	4303      	orrs	r3, r0
  MODIFY_REG(huart->Instance->CR3, (USART_CR3_RTSE | USART_CR3_CTSE | USART_CR3_ONEBIT), tmpreg);
 800258c:	483c      	ldr	r0, [pc, #240]	; (8002680 <UART_SetConfig+0x128>)
 800258e:	4001      	ands	r1, r0
 8002590:	430b      	orrs	r3, r1
 8002592:	60ab      	str	r3, [r5, #8]
 8002594:	2380      	movs	r3, #128	; 0x80
 8002596:	021b      	lsls	r3, r3, #8
  UART_GETCLOCKSOURCE(huart, clocksource);
 8002598:	42b5      	cmp	r5, r6
 800259a:	d110      	bne.n	80025be <UART_SetConfig+0x66>
 800259c:	2003      	movs	r0, #3
 800259e:	4939      	ldr	r1, [pc, #228]	; (8002684 <UART_SetConfig+0x12c>)
 80025a0:	6b09      	ldr	r1, [r1, #48]	; 0x30
 80025a2:	4001      	ands	r1, r0
 80025a4:	4838      	ldr	r0, [pc, #224]	; (8002688 <UART_SetConfig+0x130>)
 80025a6:	5c40      	ldrb	r0, [r0, r1]
  if (huart->Init.OverSampling == UART_OVERSAMPLING_8)
 80025a8:	429a      	cmp	r2, r3
 80025aa:	d137      	bne.n	800261c <UART_SetConfig+0xc4>
    switch (clocksource)
 80025ac:	2808      	cmp	r0, #8
 80025ae:	d832      	bhi.n	8002616 <UART_SetConfig+0xbe>
 80025b0:	f7fd fdaa 	bl	8000108 <__gnu_thumb1_case_uqi>
 80025b4:	31163110 	.word	0x31163110
 80025b8:	31313129 	.word	0x31313129
 80025bc:	2c          	.byte	0x2c
 80025bd:	00          	.byte	0x00
  UART_GETCLOCKSOURCE(huart, clocksource);
 80025be:	4933      	ldr	r1, [pc, #204]	; (800268c <UART_SetConfig+0x134>)
 80025c0:	428d      	cmp	r5, r1
 80025c2:	d005      	beq.n	80025d0 <UART_SetConfig+0x78>
 80025c4:	4932      	ldr	r1, [pc, #200]	; (8002690 <UART_SetConfig+0x138>)
 80025c6:	428d      	cmp	r5, r1
 80025c8:	d002      	beq.n	80025d0 <UART_SetConfig+0x78>
 80025ca:	4932      	ldr	r1, [pc, #200]	; (8002694 <UART_SetConfig+0x13c>)
 80025cc:	428d      	cmp	r5, r1
 80025ce:	d14c      	bne.n	800266a <UART_SetConfig+0x112>
  if (huart->Init.OverSampling == UART_OVERSAMPLING_8)
 80025d0:	429a      	cmp	r2, r3
 80025d2:	d12c      	bne.n	800262e <UART_SetConfig+0xd6>
        usartdiv = (uint16_t)(UART_DIV_SAMPLING8(HAL_RCC_GetPCLK1Freq(), huart->Init.BaudRate));
 80025d4:	f7ff fdd0 	bl	8002178 <HAL_RCC_GetPCLK1Freq>
        usartdiv = (uint16_t)(UART_DIV_SAMPLING8(HAL_RCC_GetSysClockFreq(), huart->Init.BaudRate));
 80025d8:	6863      	ldr	r3, [r4, #4]
 80025da:	0040      	lsls	r0, r0, #1
 80025dc:	085b      	lsrs	r3, r3, #1
 80025de:	e002      	b.n	80025e6 <UART_SetConfig+0x8e>
        usartdiv = (uint16_t)(UART_DIV_SAMPLING8(HSI_VALUE, huart->Init.BaudRate));
 80025e0:	6863      	ldr	r3, [r4, #4]
 80025e2:	0858      	lsrs	r0, r3, #1
 80025e4:	4b2c      	ldr	r3, [pc, #176]	; (8002698 <UART_SetConfig+0x140>)
        usartdiv = (uint16_t)(UART_DIV_SAMPLING8(LSE_VALUE, huart->Init.BaudRate));
 80025e6:	18c0      	adds	r0, r0, r3
 80025e8:	6861      	ldr	r1, [r4, #4]
 80025ea:	f7fd fda1 	bl	8000130 <__udivsi3>
 80025ee:	b283      	uxth	r3, r0
  HAL_StatusTypeDef ret               = HAL_OK;
 80025f0:	2000      	movs	r0, #0
    brrtemp = usartdiv & 0xFFF0U;
 80025f2:	220f      	movs	r2, #15
 80025f4:	0019      	movs	r1, r3
 80025f6:	4391      	bics	r1, r2
 80025f8:	000a      	movs	r2, r1
    brrtemp |= (uint16_t)((usartdiv & (uint16_t)0x000FU) >> 1U);
 80025fa:	071b      	lsls	r3, r3, #28
    huart->Instance->BRR = brrtemp;
 80025fc:	6821      	ldr	r1, [r4, #0]
    brrtemp |= (uint16_t)((usartdiv & (uint16_t)0x000FU) >> 1U);
 80025fe:	0f5b      	lsrs	r3, r3, #29
    huart->Instance->BRR = brrtemp;
 8002600:	4313      	orrs	r3, r2
 8002602:	60cb      	str	r3, [r1, #12]
}
 8002604:	bd70      	pop	{r4, r5, r6, pc}
        usartdiv = (uint16_t)(UART_DIV_SAMPLING8(HAL_RCC_GetSysClockFreq(), huart->Init.BaudRate));
 8002606:	f7ff fcf5 	bl	8001ff4 <HAL_RCC_GetSysClockFreq>
 800260a:	e7e5      	b.n	80025d8 <UART_SetConfig+0x80>
        usartdiv = (uint16_t)(UART_DIV_SAMPLING8(LSE_VALUE, huart->Init.BaudRate));
 800260c:	6863      	ldr	r3, [r4, #4]
 800260e:	0858      	lsrs	r0, r3, #1
 8002610:	2380      	movs	r3, #128	; 0x80
 8002612:	025b      	lsls	r3, r3, #9
 8002614:	e7e7      	b.n	80025e6 <UART_SetConfig+0x8e>
        ret = HAL_ERROR;
 8002616:	2001      	movs	r0, #1
  uint16_t usartdiv                   = 0x0000U;
 8002618:	2300      	movs	r3, #0
 800261a:	e7ea      	b.n	80025f2 <UART_SetConfig+0x9a>
    switch (clocksource)
 800261c:	2808      	cmp	r0, #8
 800261e:	d826      	bhi.n	800266e <UART_SetConfig+0x116>
 8002620:	f7fd fd72 	bl	8000108 <__gnu_thumb1_case_uqi>
 8002624:	25102505 	.word	0x25102505
 8002628:	25252519 	.word	0x25252519
 800262c:	1e          	.byte	0x1e
 800262d:	00          	.byte	0x00
        huart->Instance->BRR = (uint16_t)(UART_DIV_SAMPLING16(HAL_RCC_GetPCLK1Freq(), huart->Init.BaudRate));
 800262e:	f7ff fda3 	bl	8002178 <HAL_RCC_GetPCLK1Freq>
 8002632:	6861      	ldr	r1, [r4, #4]
 8002634:	084b      	lsrs	r3, r1, #1
 8002636:	1818      	adds	r0, r3, r0
 8002638:	f7fd fd7a 	bl	8000130 <__udivsi3>
 800263c:	b280      	uxth	r0, r0
 800263e:	60e8      	str	r0, [r5, #12]
  HAL_StatusTypeDef ret               = HAL_OK;
 8002640:	2000      	movs	r0, #0
        break;
 8002642:	e7df      	b.n	8002604 <UART_SetConfig+0xac>
        huart->Instance->BRR = (uint16_t)(UART_DIV_SAMPLING16(HSI_VALUE, huart->Init.BaudRate));
 8002644:	6861      	ldr	r1, [r4, #4]
 8002646:	4b15      	ldr	r3, [pc, #84]	; (800269c <UART_SetConfig+0x144>)
 8002648:	0848      	lsrs	r0, r1, #1
        huart->Instance->BRR = (uint16_t)(UART_DIV_SAMPLING16(LSE_VALUE, huart->Init.BaudRate));
 800264a:	18c0      	adds	r0, r0, r3
 800264c:	f7fd fd70 	bl	8000130 <__udivsi3>
 8002650:	b280      	uxth	r0, r0
 8002652:	60f0      	str	r0, [r6, #12]
 8002654:	e7f4      	b.n	8002640 <UART_SetConfig+0xe8>
        huart->Instance->BRR = (uint16_t)(UART_DIV_SAMPLING16(HAL_RCC_GetSysClockFreq(), huart->Init.BaudRate));
 8002656:	f7ff fccd 	bl	8001ff4 <HAL_RCC_GetSysClockFreq>
 800265a:	6861      	ldr	r1, [r4, #4]
 800265c:	084b      	lsrs	r3, r1, #1
 800265e:	e7f4      	b.n	800264a <UART_SetConfig+0xf2>
        huart->Instance->BRR = (uint16_t)(UART_DIV_SAMPLING16(LSE_VALUE, huart->Init.BaudRate));
 8002660:	2380      	movs	r3, #128	; 0x80
 8002662:	6861      	ldr	r1, [r4, #4]
 8002664:	021b      	lsls	r3, r3, #8
 8002666:	0848      	lsrs	r0, r1, #1
 8002668:	e7ef      	b.n	800264a <UART_SetConfig+0xf2>
  if (huart->Init.OverSampling == UART_OVERSAMPLING_8)
 800266a:	429a      	cmp	r2, r3
 800266c:	d0d3      	beq.n	8002616 <UART_SetConfig+0xbe>
        ret = HAL_ERROR;
 800266e:	2001      	movs	r0, #1
  return ret;
 8002670:	e7c8      	b.n	8002604 <UART_SetConfig+0xac>
 8002672:	46c0      	nop			; (mov r8, r8)
 8002674:	40013800 	.word	0x40013800
 8002678:	efff69f3 	.word	0xefff69f3
 800267c:	ffffcfff 	.word	0xffffcfff
 8002680:	fffff4ff 	.word	0xfffff4ff
 8002684:	40021000 	.word	0x40021000
 8002688:	08004e1b 	.word	0x08004e1b
 800268c:	40004400 	.word	0x40004400
 8002690:	40004800 	.word	0x40004800
 8002694:	40004c00 	.word	0x40004c00
 8002698:	00f42400 	.word	0x00f42400
 800269c:	007a1200 	.word	0x007a1200

080026a0 <UART_AdvFeatureConfig>:
  if(HAL_IS_BIT_SET(huart->AdvancedInit.AdvFeatureInit, UART_ADVFEATURE_TXINVERT_INIT))
 80026a0:	6a43      	ldr	r3, [r0, #36]	; 0x24
{
 80026a2:	b530      	push	{r4, r5, lr}
  if(HAL_IS_BIT_SET(huart->AdvancedInit.AdvFeatureInit, UART_ADVFEATURE_TXINVERT_INIT))
 80026a4:	07da      	lsls	r2, r3, #31
 80026a6:	d506      	bpl.n	80026b6 <UART_AdvFeatureConfig+0x16>
    MODIFY_REG(huart->Instance->CR2, USART_CR2_TXINV, huart->AdvancedInit.TxPinLevelInvert);
 80026a8:	6801      	ldr	r1, [r0, #0]
 80026aa:	4c28      	ldr	r4, [pc, #160]	; (800274c <UART_AdvFeatureConfig+0xac>)
 80026ac:	684a      	ldr	r2, [r1, #4]
 80026ae:	4022      	ands	r2, r4
 80026b0:	6a84      	ldr	r4, [r0, #40]	; 0x28
 80026b2:	4322      	orrs	r2, r4
 80026b4:	604a      	str	r2, [r1, #4]
  if(HAL_IS_BIT_SET(huart->AdvancedInit.AdvFeatureInit, UART_ADVFEATURE_RXINVERT_INIT))
 80026b6:	079a      	lsls	r2, r3, #30
 80026b8:	d506      	bpl.n	80026c8 <UART_AdvFeatureConfig+0x28>
    MODIFY_REG(huart->Instance->CR2, USART_CR2_RXINV, huart->AdvancedInit.RxPinLevelInvert);
 80026ba:	6801      	ldr	r1, [r0, #0]
 80026bc:	4c24      	ldr	r4, [pc, #144]	; (8002750 <UART_AdvFeatureConfig+0xb0>)
 80026be:	684a      	ldr	r2, [r1, #4]
 80026c0:	4022      	ands	r2, r4
 80026c2:	6ac4      	ldr	r4, [r0, #44]	; 0x2c
 80026c4:	4322      	orrs	r2, r4
 80026c6:	604a      	str	r2, [r1, #4]
  if(HAL_IS_BIT_SET(huart->AdvancedInit.AdvFeatureInit, UART_ADVFEATURE_DATAINVERT_INIT))
 80026c8:	075a      	lsls	r2, r3, #29
 80026ca:	d506      	bpl.n	80026da <UART_AdvFeatureConfig+0x3a>
    MODIFY_REG(huart->Instance->CR2, USART_CR2_DATAINV, huart->AdvancedInit.DataInvert);
 80026cc:	6801      	ldr	r1, [r0, #0]
 80026ce:	4c21      	ldr	r4, [pc, #132]	; (8002754 <UART_AdvFeatureConfig+0xb4>)
 80026d0:	684a      	ldr	r2, [r1, #4]
 80026d2:	4022      	ands	r2, r4
 80026d4:	6b04      	ldr	r4, [r0, #48]	; 0x30
 80026d6:	4322      	orrs	r2, r4
 80026d8:	604a      	str	r2, [r1, #4]
  if(HAL_IS_BIT_SET(huart->AdvancedInit.AdvFeatureInit, UART_ADVFEATURE_SWAP_INIT))
 80026da:	071a      	lsls	r2, r3, #28
 80026dc:	d506      	bpl.n	80026ec <UART_AdvFeatureConfig+0x4c>
    MODIFY_REG(huart->Instance->CR2, USART_CR2_SWAP, huart->AdvancedInit.Swap);
 80026de:	6801      	ldr	r1, [r0, #0]
 80026e0:	4c1d      	ldr	r4, [pc, #116]	; (8002758 <UART_AdvFeatureConfig+0xb8>)
 80026e2:	684a      	ldr	r2, [r1, #4]
 80026e4:	4022      	ands	r2, r4
 80026e6:	6b44      	ldr	r4, [r0, #52]	; 0x34
 80026e8:	4322      	orrs	r2, r4
 80026ea:	604a      	str	r2, [r1, #4]
  if(HAL_IS_BIT_SET(huart->AdvancedInit.AdvFeatureInit, UART_ADVFEATURE_RXOVERRUNDISABLE_INIT))
 80026ec:	06da      	lsls	r2, r3, #27
 80026ee:	d506      	bpl.n	80026fe <UART_AdvFeatureConfig+0x5e>
    MODIFY_REG(huart->Instance->CR3, USART_CR3_OVRDIS, huart->AdvancedInit.OverrunDisable);
 80026f0:	6801      	ldr	r1, [r0, #0]
 80026f2:	4c1a      	ldr	r4, [pc, #104]	; (800275c <UART_AdvFeatureConfig+0xbc>)
 80026f4:	688a      	ldr	r2, [r1, #8]
 80026f6:	4022      	ands	r2, r4
 80026f8:	6b84      	ldr	r4, [r0, #56]	; 0x38
 80026fa:	4322      	orrs	r2, r4
 80026fc:	608a      	str	r2, [r1, #8]
  if(HAL_IS_BIT_SET(huart->AdvancedInit.AdvFeatureInit, UART_ADVFEATURE_DMADISABLEONERROR_INIT))
 80026fe:	069a      	lsls	r2, r3, #26
 8002700:	d506      	bpl.n	8002710 <UART_AdvFeatureConfig+0x70>
    MODIFY_REG(huart->Instance->CR3, USART_CR3_DDRE, huart->AdvancedInit.DMADisableonRxError);
 8002702:	6801      	ldr	r1, [r0, #0]
 8002704:	4c16      	ldr	r4, [pc, #88]	; (8002760 <UART_AdvFeatureConfig+0xc0>)
 8002706:	688a      	ldr	r2, [r1, #8]
 8002708:	4022      	ands	r2, r4
 800270a:	6bc4      	ldr	r4, [r0, #60]	; 0x3c
 800270c:	4322      	orrs	r2, r4
 800270e:	608a      	str	r2, [r1, #8]
  if(HAL_IS_BIT_SET(huart->AdvancedInit.AdvFeatureInit, UART_ADVFEATURE_AUTOBAUDRATE_INIT))
 8002710:	065a      	lsls	r2, r3, #25
 8002712:	d510      	bpl.n	8002736 <UART_AdvFeatureConfig+0x96>
    MODIFY_REG(huart->Instance->CR2, USART_CR2_ABREN, huart->AdvancedInit.AutoBaudRateEnable);
 8002714:	6801      	ldr	r1, [r0, #0]
 8002716:	4d13      	ldr	r5, [pc, #76]	; (8002764 <UART_AdvFeatureConfig+0xc4>)
 8002718:	684a      	ldr	r2, [r1, #4]
 800271a:	6c04      	ldr	r4, [r0, #64]	; 0x40
 800271c:	402a      	ands	r2, r5
 800271e:	4322      	orrs	r2, r4
 8002720:	604a      	str	r2, [r1, #4]
    if(huart->AdvancedInit.AutoBaudRateEnable == UART_ADVFEATURE_AUTOBAUDRATE_ENABLE)
 8002722:	2280      	movs	r2, #128	; 0x80
 8002724:	0352      	lsls	r2, r2, #13
 8002726:	4294      	cmp	r4, r2
 8002728:	d105      	bne.n	8002736 <UART_AdvFeatureConfig+0x96>
      MODIFY_REG(huart->Instance->CR2, USART_CR2_ABRMODE, huart->AdvancedInit.AutoBaudRateMode);
 800272a:	684a      	ldr	r2, [r1, #4]
 800272c:	4c0e      	ldr	r4, [pc, #56]	; (8002768 <UART_AdvFeatureConfig+0xc8>)
 800272e:	4022      	ands	r2, r4
 8002730:	6c44      	ldr	r4, [r0, #68]	; 0x44
 8002732:	4322      	orrs	r2, r4
 8002734:	604a      	str	r2, [r1, #4]
  if(HAL_IS_BIT_SET(huart->AdvancedInit.AdvFeatureInit, UART_ADVFEATURE_MSBFIRST_INIT))
 8002736:	061b      	lsls	r3, r3, #24
 8002738:	d506      	bpl.n	8002748 <UART_AdvFeatureConfig+0xa8>
    MODIFY_REG(huart->Instance->CR2, USART_CR2_MSBFIRST, huart->AdvancedInit.MSBFirst);
 800273a:	6802      	ldr	r2, [r0, #0]
 800273c:	490b      	ldr	r1, [pc, #44]	; (800276c <UART_AdvFeatureConfig+0xcc>)
 800273e:	6853      	ldr	r3, [r2, #4]
 8002740:	400b      	ands	r3, r1
 8002742:	6c81      	ldr	r1, [r0, #72]	; 0x48
 8002744:	430b      	orrs	r3, r1
 8002746:	6053      	str	r3, [r2, #4]
}
 8002748:	bd30      	pop	{r4, r5, pc}
 800274a:	46c0      	nop			; (mov r8, r8)
 800274c:	fffdffff 	.word	0xfffdffff
 8002750:	fffeffff 	.word	0xfffeffff
 8002754:	fffbffff 	.word	0xfffbffff
 8002758:	ffff7fff 	.word	0xffff7fff
 800275c:	ffffefff 	.word	0xffffefff
 8002760:	ffffdfff 	.word	0xffffdfff
 8002764:	ffefffff 	.word	0xffefffff
 8002768:	ff9fffff 	.word	0xff9fffff
 800276c:	fff7ffff 	.word	0xfff7ffff

08002770 <HAL_UART_Init>:
{
 8002770:	b570      	push	{r4, r5, r6, lr}
 8002772:	1e04      	subs	r4, r0, #0
  if(huart == NULL)
 8002774:	d101      	bne.n	800277a <HAL_UART_Init+0xa>
    return HAL_ERROR;
 8002776:	2001      	movs	r0, #1
}
 8002778:	bd70      	pop	{r4, r5, r6, pc}
  if(huart->gState == HAL_UART_STATE_RESET)
 800277a:	0005      	movs	r5, r0
 800277c:	3569      	adds	r5, #105	; 0x69
 800277e:	782b      	ldrb	r3, [r5, #0]
 8002780:	b2db      	uxtb	r3, r3
 8002782:	2b00      	cmp	r3, #0
 8002784:	d104      	bne.n	8002790 <HAL_UART_Init+0x20>
    huart->Lock = HAL_UNLOCKED;
 8002786:	0002      	movs	r2, r0
 8002788:	3268      	adds	r2, #104	; 0x68
 800278a:	7013      	strb	r3, [r2, #0]
    HAL_UART_MspInit(huart);
 800278c:	f7fe f908 	bl	80009a0 <HAL_UART_MspInit>
  huart->gState = HAL_UART_STATE_BUSY;
 8002790:	2324      	movs	r3, #36	; 0x24
  __HAL_UART_DISABLE(huart);
 8002792:	2101      	movs	r1, #1
 8002794:	6822      	ldr	r2, [r4, #0]
  huart->gState = HAL_UART_STATE_BUSY;
 8002796:	702b      	strb	r3, [r5, #0]
  __HAL_UART_DISABLE(huart);
 8002798:	6813      	ldr	r3, [r2, #0]
  if (UART_SetConfig(huart) == HAL_ERROR)
 800279a:	0020      	movs	r0, r4
  __HAL_UART_DISABLE(huart);
 800279c:	438b      	bics	r3, r1
 800279e:	6013      	str	r3, [r2, #0]
  if (UART_SetConfig(huart) == HAL_ERROR)
 80027a0:	f7ff feda 	bl	8002558 <UART_SetConfig>
 80027a4:	2801      	cmp	r0, #1
 80027a6:	d0e6      	beq.n	8002776 <HAL_UART_Init+0x6>
  if (huart->AdvancedInit.AdvFeatureInit != UART_ADVFEATURE_NO_INIT)
 80027a8:	6a63      	ldr	r3, [r4, #36]	; 0x24
 80027aa:	2b00      	cmp	r3, #0
 80027ac:	d002      	beq.n	80027b4 <HAL_UART_Init+0x44>
    UART_AdvFeatureConfig(huart);
 80027ae:	0020      	movs	r0, r4
 80027b0:	f7ff ff76 	bl	80026a0 <UART_AdvFeatureConfig>
  CLEAR_BIT(huart->Instance->CR2, USART_CR2_CLKEN);
 80027b4:	6823      	ldr	r3, [r4, #0]
 80027b6:	490b      	ldr	r1, [pc, #44]	; (80027e4 <HAL_UART_Init+0x74>)
 80027b8:	685a      	ldr	r2, [r3, #4]
  huart->ErrorCode = HAL_UART_ERROR_NONE;
 80027ba:	2000      	movs	r0, #0
  CLEAR_BIT(huart->Instance->CR2, USART_CR2_CLKEN);
 80027bc:	400a      	ands	r2, r1
  CLEAR_BIT(huart->Instance->CR3, USART_CR3_HDSEL);
 80027be:	2108      	movs	r1, #8
  CLEAR_BIT(huart->Instance->CR2, USART_CR2_CLKEN);
 80027c0:	605a      	str	r2, [r3, #4]
  CLEAR_BIT(huart->Instance->CR3, USART_CR3_HDSEL);
 80027c2:	689a      	ldr	r2, [r3, #8]
 80027c4:	438a      	bics	r2, r1
 80027c6:	609a      	str	r2, [r3, #8]
  __HAL_UART_ENABLE(huart);
 80027c8:	2201      	movs	r2, #1
 80027ca:	6819      	ldr	r1, [r3, #0]
 80027cc:	430a      	orrs	r2, r1
 80027ce:	601a      	str	r2, [r3, #0]
  huart->RxState = HAL_UART_STATE_READY;
 80027d0:	0022      	movs	r2, r4
  huart->gState  = HAL_UART_STATE_READY;
 80027d2:	2320      	movs	r3, #32
  huart->ErrorCode = HAL_UART_ERROR_NONE;
 80027d4:	66e0      	str	r0, [r4, #108]	; 0x6c
  huart->RxState = HAL_UART_STATE_READY;
 80027d6:	326a      	adds	r2, #106	; 0x6a
  __HAL_UNLOCK(huart);
 80027d8:	3468      	adds	r4, #104	; 0x68
  huart->gState  = HAL_UART_STATE_READY;
 80027da:	702b      	strb	r3, [r5, #0]
  huart->RxState = HAL_UART_STATE_READY;
 80027dc:	7013      	strb	r3, [r2, #0]
  __HAL_UNLOCK(huart);
 80027de:	7020      	strb	r0, [r4, #0]
  return (UART_CheckIdleState(huart));
 80027e0:	e7ca      	b.n	8002778 <HAL_UART_Init+0x8>
 80027e2:	46c0      	nop			; (mov r8, r8)
 80027e4:	fffff7ff 	.word	0xfffff7ff

080027e8 <UART_WaitOnFlagUntilTimeout>:
{
 80027e8:	b5f8      	push	{r3, r4, r5, r6, r7, lr}
 80027ea:	0004      	movs	r4, r0
 80027ec:	000e      	movs	r6, r1
 80027ee:	0015      	movs	r5, r2
 80027f0:	001f      	movs	r7, r3
  while((__HAL_UART_GET_FLAG(huart, Flag) ? SET : RESET) == Status)
 80027f2:	6822      	ldr	r2, [r4, #0]
 80027f4:	69d3      	ldr	r3, [r2, #28]
 80027f6:	4033      	ands	r3, r6
 80027f8:	1b9b      	subs	r3, r3, r6
 80027fa:	4259      	negs	r1, r3
 80027fc:	414b      	adcs	r3, r1
 80027fe:	42ab      	cmp	r3, r5
 8002800:	d001      	beq.n	8002806 <UART_WaitOnFlagUntilTimeout+0x1e>
  return HAL_OK;
 8002802:	2000      	movs	r0, #0
 8002804:	e018      	b.n	8002838 <UART_WaitOnFlagUntilTimeout+0x50>
    if(Timeout != HAL_MAX_DELAY)
 8002806:	9b06      	ldr	r3, [sp, #24]
 8002808:	3301      	adds	r3, #1
 800280a:	d0f3      	beq.n	80027f4 <UART_WaitOnFlagUntilTimeout+0xc>
      if((Timeout == 0U) || ((HAL_GetTick()-Tickstart) > Timeout))
 800280c:	9b06      	ldr	r3, [sp, #24]
 800280e:	2b00      	cmp	r3, #0
 8002810:	d113      	bne.n	800283a <UART_WaitOnFlagUntilTimeout+0x52>
        CLEAR_BIT(huart->Instance->CR1, (USART_CR1_RXNEIE | USART_CR1_PEIE | USART_CR1_TXEIE));
 8002812:	6823      	ldr	r3, [r4, #0]
 8002814:	490c      	ldr	r1, [pc, #48]	; (8002848 <UART_WaitOnFlagUntilTimeout+0x60>)
 8002816:	681a      	ldr	r2, [r3, #0]
        __HAL_UNLOCK(huart);
 8002818:	2003      	movs	r0, #3
        CLEAR_BIT(huart->Instance->CR1, (USART_CR1_RXNEIE | USART_CR1_PEIE | USART_CR1_TXEIE));
 800281a:	400a      	ands	r2, r1
 800281c:	601a      	str	r2, [r3, #0]
        CLEAR_BIT(huart->Instance->CR3, USART_CR3_EIE);
 800281e:	689a      	ldr	r2, [r3, #8]
 8002820:	31a3      	adds	r1, #163	; 0xa3
 8002822:	31ff      	adds	r1, #255	; 0xff
 8002824:	438a      	bics	r2, r1
 8002826:	609a      	str	r2, [r3, #8]
        huart->gState  = HAL_UART_STATE_READY;
 8002828:	0022      	movs	r2, r4
 800282a:	2320      	movs	r3, #32
 800282c:	3269      	adds	r2, #105	; 0x69
 800282e:	7013      	strb	r3, [r2, #0]
        huart->RxState = HAL_UART_STATE_READY;
 8002830:	7053      	strb	r3, [r2, #1]
        __HAL_UNLOCK(huart);
 8002832:	2300      	movs	r3, #0
 8002834:	3468      	adds	r4, #104	; 0x68
 8002836:	7023      	strb	r3, [r4, #0]
}
 8002838:	bdf8      	pop	{r3, r4, r5, r6, r7, pc}
      if((Timeout == 0U) || ((HAL_GetTick()-Tickstart) > Timeout))
 800283a:	f7fe f92d 	bl	8000a98 <HAL_GetTick>
 800283e:	9b06      	ldr	r3, [sp, #24]
 8002840:	1bc0      	subs	r0, r0, r7
 8002842:	4283      	cmp	r3, r0
 8002844:	d2d5      	bcs.n	80027f2 <UART_WaitOnFlagUntilTimeout+0xa>
 8002846:	e7e4      	b.n	8002812 <UART_WaitOnFlagUntilTimeout+0x2a>
 8002848:	fffffe5f 	.word	0xfffffe5f

0800284c <HAL_UART_Transmit>:
{
 800284c:	b5f0      	push	{r4, r5, r6, r7, lr}
  if(huart->gState == HAL_UART_STATE_READY)
 800284e:	0007      	movs	r7, r0
{
 8002850:	b085      	sub	sp, #20
 8002852:	9303      	str	r3, [sp, #12]
  if(huart->gState == HAL_UART_STATE_READY)
 8002854:	3769      	adds	r7, #105	; 0x69
 8002856:	783b      	ldrb	r3, [r7, #0]
{
 8002858:	0004      	movs	r4, r0
 800285a:	000d      	movs	r5, r1
 800285c:	0016      	movs	r6, r2
    return HAL_BUSY;
 800285e:	2002      	movs	r0, #2
  if(huart->gState == HAL_UART_STATE_READY)
 8002860:	2b20      	cmp	r3, #32
 8002862:	d146      	bne.n	80028f2 <HAL_UART_Transmit+0xa6>
      return  HAL_ERROR;
 8002864:	3801      	subs	r0, #1
    if((pData == NULL ) || (Size == 0U))
 8002866:	2900      	cmp	r1, #0
 8002868:	d043      	beq.n	80028f2 <HAL_UART_Transmit+0xa6>
 800286a:	2a00      	cmp	r2, #0
 800286c:	d041      	beq.n	80028f2 <HAL_UART_Transmit+0xa6>
    if ((huart->Init.WordLength == UART_WORDLENGTH_9B) && (huart->Init.Parity == UART_PARITY_NONE))
 800286e:	2380      	movs	r3, #128	; 0x80
 8002870:	68a2      	ldr	r2, [r4, #8]
 8002872:	015b      	lsls	r3, r3, #5
 8002874:	429a      	cmp	r2, r3
 8002876:	d104      	bne.n	8002882 <HAL_UART_Transmit+0x36>
 8002878:	6923      	ldr	r3, [r4, #16]
 800287a:	2b00      	cmp	r3, #0
 800287c:	d101      	bne.n	8002882 <HAL_UART_Transmit+0x36>
      if((((uint32_t)pData)&1U) != 0U)
 800287e:	4201      	tst	r1, r0
 8002880:	d137      	bne.n	80028f2 <HAL_UART_Transmit+0xa6>
    __HAL_LOCK(huart);
 8002882:	0023      	movs	r3, r4
 8002884:	3368      	adds	r3, #104	; 0x68
 8002886:	781a      	ldrb	r2, [r3, #0]
    return HAL_BUSY;
 8002888:	2002      	movs	r0, #2
    __HAL_LOCK(huart);
 800288a:	2a01      	cmp	r2, #1
 800288c:	d031      	beq.n	80028f2 <HAL_UART_Transmit+0xa6>
 800288e:	2201      	movs	r2, #1
 8002890:	701a      	strb	r2, [r3, #0]
    huart->ErrorCode = HAL_UART_ERROR_NONE;
 8002892:	2300      	movs	r3, #0
 8002894:	66e3      	str	r3, [r4, #108]	; 0x6c
    huart->gState = HAL_UART_STATE_BUSY_TX;
 8002896:	3321      	adds	r3, #33	; 0x21
 8002898:	703b      	strb	r3, [r7, #0]
    tickstart = HAL_GetTick();
 800289a:	f7fe f8fd 	bl	8000a98 <HAL_GetTick>
    huart->TxXferSize = Size;
 800289e:	0023      	movs	r3, r4
 80028a0:	3350      	adds	r3, #80	; 0x50
 80028a2:	801e      	strh	r6, [r3, #0]
    huart->TxXferCount = Size;
 80028a4:	805e      	strh	r6, [r3, #2]
      if ((huart->Init.WordLength == UART_WORDLENGTH_9B) && (huart->Init.Parity == UART_PARITY_NONE))
 80028a6:	2680      	movs	r6, #128	; 0x80
    tickstart = HAL_GetTick();
 80028a8:	9002      	str	r0, [sp, #8]
      if ((huart->Init.WordLength == UART_WORDLENGTH_9B) && (huart->Init.Parity == UART_PARITY_NONE))
 80028aa:	0176      	lsls	r6, r6, #5
    while(huart->TxXferCount > 0)
 80028ac:	0021      	movs	r1, r4
 80028ae:	3152      	adds	r1, #82	; 0x52
 80028b0:	880a      	ldrh	r2, [r1, #0]
 80028b2:	b292      	uxth	r2, r2
 80028b4:	2a00      	cmp	r2, #0
 80028b6:	d10d      	bne.n	80028d4 <HAL_UART_Transmit+0x88>
    if(UART_WaitOnFlagUntilTimeout(huart, UART_FLAG_TC, RESET, tickstart, Timeout) != HAL_OK)
 80028b8:	9b03      	ldr	r3, [sp, #12]
 80028ba:	2140      	movs	r1, #64	; 0x40
 80028bc:	9300      	str	r3, [sp, #0]
 80028be:	0020      	movs	r0, r4
 80028c0:	9b02      	ldr	r3, [sp, #8]
 80028c2:	f7ff ff91 	bl	80027e8 <UART_WaitOnFlagUntilTimeout>
 80028c6:	2800      	cmp	r0, #0
 80028c8:	d112      	bne.n	80028f0 <HAL_UART_Transmit+0xa4>
    huart->gState = HAL_UART_STATE_READY;
 80028ca:	2320      	movs	r3, #32
    __HAL_UNLOCK(huart);
 80028cc:	3468      	adds	r4, #104	; 0x68
    huart->gState = HAL_UART_STATE_READY;
 80028ce:	703b      	strb	r3, [r7, #0]
    __HAL_UNLOCK(huart);
 80028d0:	7020      	strb	r0, [r4, #0]
    return HAL_OK;
 80028d2:	e00e      	b.n	80028f2 <HAL_UART_Transmit+0xa6>
      huart->TxXferCount--;
 80028d4:	880b      	ldrh	r3, [r1, #0]
      if(UART_WaitOnFlagUntilTimeout(huart, UART_FLAG_TXE, RESET, tickstart, Timeout) != HAL_OK)
 80028d6:	2200      	movs	r2, #0
      huart->TxXferCount--;
 80028d8:	3b01      	subs	r3, #1
 80028da:	b29b      	uxth	r3, r3
 80028dc:	800b      	strh	r3, [r1, #0]
      if(UART_WaitOnFlagUntilTimeout(huart, UART_FLAG_TXE, RESET, tickstart, Timeout) != HAL_OK)
 80028de:	9b03      	ldr	r3, [sp, #12]
 80028e0:	2180      	movs	r1, #128	; 0x80
 80028e2:	9300      	str	r3, [sp, #0]
 80028e4:	0020      	movs	r0, r4
 80028e6:	9b02      	ldr	r3, [sp, #8]
 80028e8:	f7ff ff7e 	bl	80027e8 <UART_WaitOnFlagUntilTimeout>
 80028ec:	2800      	cmp	r0, #0
 80028ee:	d002      	beq.n	80028f6 <HAL_UART_Transmit+0xaa>
        return HAL_TIMEOUT;
 80028f0:	2003      	movs	r0, #3
}
 80028f2:	b005      	add	sp, #20
 80028f4:	bdf0      	pop	{r4, r5, r6, r7, pc}
      if ((huart->Init.WordLength == UART_WORDLENGTH_9B) && (huart->Init.Parity == UART_PARITY_NONE))
 80028f6:	68a3      	ldr	r3, [r4, #8]
 80028f8:	6822      	ldr	r2, [r4, #0]
 80028fa:	42b3      	cmp	r3, r6
 80028fc:	d108      	bne.n	8002910 <HAL_UART_Transmit+0xc4>
 80028fe:	6923      	ldr	r3, [r4, #16]
 8002900:	2b00      	cmp	r3, #0
 8002902:	d105      	bne.n	8002910 <HAL_UART_Transmit+0xc4>
        huart->Instance->TDR = (*tmp & (uint16_t)0x01FFU);
 8002904:	882b      	ldrh	r3, [r5, #0]
        pData += 2;
 8002906:	3502      	adds	r5, #2
        huart->Instance->TDR = (*tmp & (uint16_t)0x01FFU);
 8002908:	05db      	lsls	r3, r3, #23
 800290a:	0ddb      	lsrs	r3, r3, #23
 800290c:	8513      	strh	r3, [r2, #40]	; 0x28
        pData += 2;
 800290e:	e7cd      	b.n	80028ac <HAL_UART_Transmit+0x60>
        huart->Instance->TDR = (*pData++ & (uint8_t)0xFFU);
 8002910:	782b      	ldrb	r3, [r5, #0]
 8002912:	3501      	adds	r5, #1
 8002914:	8513      	strh	r3, [r2, #40]	; 0x28
 8002916:	e7c9      	b.n	80028ac <HAL_UART_Transmit+0x60>

08002918 <HAL_UART_Receive>:
{
 8002918:	b5f0      	push	{r4, r5, r6, r7, lr}
 800291a:	001f      	movs	r7, r3
  if(huart->RxState == HAL_UART_STATE_READY)
 800291c:	0003      	movs	r3, r0
 800291e:	336a      	adds	r3, #106	; 0x6a
{
 8002920:	0016      	movs	r6, r2
  if(huart->RxState == HAL_UART_STATE_READY)
 8002922:	781a      	ldrb	r2, [r3, #0]
{
 8002924:	0004      	movs	r4, r0
 8002926:	b085      	sub	sp, #20
 8002928:	000d      	movs	r5, r1
    return HAL_BUSY;
 800292a:	2002      	movs	r0, #2
  if(huart->RxState == HAL_UART_STATE_READY)
 800292c:	2a20      	cmp	r2, #32
 800292e:	d139      	bne.n	80029a4 <HAL_UART_Receive+0x8c>
      return  HAL_ERROR;
 8002930:	3801      	subs	r0, #1
    if((pData == NULL ) || (Size == 0U))
 8002932:	2900      	cmp	r1, #0
 8002934:	d036      	beq.n	80029a4 <HAL_UART_Receive+0x8c>
 8002936:	2e00      	cmp	r6, #0
 8002938:	d034      	beq.n	80029a4 <HAL_UART_Receive+0x8c>
    if ((huart->Init.WordLength == UART_WORDLENGTH_9B) && (huart->Init.Parity == UART_PARITY_NONE))
 800293a:	2280      	movs	r2, #128	; 0x80
 800293c:	68a1      	ldr	r1, [r4, #8]
 800293e:	0152      	lsls	r2, r2, #5
 8002940:	4291      	cmp	r1, r2
 8002942:	d104      	bne.n	800294e <HAL_UART_Receive+0x36>
 8002944:	6922      	ldr	r2, [r4, #16]
 8002946:	2a00      	cmp	r2, #0
 8002948:	d101      	bne.n	800294e <HAL_UART_Receive+0x36>
      if((((uint32_t)pData)&1U) != 0U)
 800294a:	4205      	tst	r5, r0
 800294c:	d12a      	bne.n	80029a4 <HAL_UART_Receive+0x8c>
    __HAL_LOCK(huart);
 800294e:	0022      	movs	r2, r4
 8002950:	3268      	adds	r2, #104	; 0x68
 8002952:	7811      	ldrb	r1, [r2, #0]
    return HAL_BUSY;
 8002954:	2002      	movs	r0, #2
    __HAL_LOCK(huart);
 8002956:	2901      	cmp	r1, #1
 8002958:	d024      	beq.n	80029a4 <HAL_UART_Receive+0x8c>
 800295a:	2101      	movs	r1, #1
 800295c:	7011      	strb	r1, [r2, #0]
    huart->ErrorCode = HAL_UART_ERROR_NONE;
 800295e:	2200      	movs	r2, #0
 8002960:	66e2      	str	r2, [r4, #108]	; 0x6c
    huart->RxState = HAL_UART_STATE_BUSY_RX;
 8002962:	3222      	adds	r2, #34	; 0x22
 8002964:	701a      	strb	r2, [r3, #0]
    tickstart = HAL_GetTick();
 8002966:	f7fe f897 	bl	8000a98 <HAL_GetTick>
    huart->RxXferSize = Size;
 800296a:	0023      	movs	r3, r4
    UART_MASK_COMPUTATION(huart);
 800296c:	2180      	movs	r1, #128	; 0x80
 800296e:	68a2      	ldr	r2, [r4, #8]
    huart->RxXferSize = Size;
 8002970:	3358      	adds	r3, #88	; 0x58
 8002972:	801e      	strh	r6, [r3, #0]
    huart->RxXferCount = Size;
 8002974:	805e      	strh	r6, [r3, #2]
    tickstart = HAL_GetTick();
 8002976:	9003      	str	r0, [sp, #12]
    UART_MASK_COMPUTATION(huart);
 8002978:	0149      	lsls	r1, r1, #5
 800297a:	3304      	adds	r3, #4
 800297c:	428a      	cmp	r2, r1
 800297e:	d115      	bne.n	80029ac <HAL_UART_Receive+0x94>
 8002980:	6922      	ldr	r2, [r4, #16]
 8002982:	2a00      	cmp	r2, #0
 8002984:	d110      	bne.n	80029a8 <HAL_UART_Receive+0x90>
 8002986:	4a23      	ldr	r2, [pc, #140]	; (8002a14 <HAL_UART_Receive+0xfc>)
 8002988:	801a      	strh	r2, [r3, #0]
    uhMask = huart->Mask;
 800298a:	881e      	ldrh	r6, [r3, #0]
    while(huart->RxXferCount > 0U)
 800298c:	0022      	movs	r2, r4
 800298e:	325a      	adds	r2, #90	; 0x5a
 8002990:	8810      	ldrh	r0, [r2, #0]
 8002992:	b280      	uxth	r0, r0
 8002994:	2800      	cmp	r0, #0
 8002996:	d119      	bne.n	80029cc <HAL_UART_Receive+0xb4>
    huart->RxState = HAL_UART_STATE_READY;
 8002998:	0023      	movs	r3, r4
 800299a:	2220      	movs	r2, #32
 800299c:	336a      	adds	r3, #106	; 0x6a
    __HAL_UNLOCK(huart);
 800299e:	3468      	adds	r4, #104	; 0x68
    huart->RxState = HAL_UART_STATE_READY;
 80029a0:	701a      	strb	r2, [r3, #0]
    __HAL_UNLOCK(huart);
 80029a2:	7020      	strb	r0, [r4, #0]
}
 80029a4:	b005      	add	sp, #20
 80029a6:	bdf0      	pop	{r4, r5, r6, r7, pc}
    UART_MASK_COMPUTATION(huart);
 80029a8:	22ff      	movs	r2, #255	; 0xff
 80029aa:	e7ed      	b.n	8002988 <HAL_UART_Receive+0x70>
 80029ac:	2a00      	cmp	r2, #0
 80029ae:	d104      	bne.n	80029ba <HAL_UART_Receive+0xa2>
 80029b0:	6922      	ldr	r2, [r4, #16]
 80029b2:	2a00      	cmp	r2, #0
 80029b4:	d0f8      	beq.n	80029a8 <HAL_UART_Receive+0x90>
 80029b6:	227f      	movs	r2, #127	; 0x7f
 80029b8:	e7e6      	b.n	8002988 <HAL_UART_Receive+0x70>
 80029ba:	2180      	movs	r1, #128	; 0x80
 80029bc:	0549      	lsls	r1, r1, #21
 80029be:	428a      	cmp	r2, r1
 80029c0:	d1e3      	bne.n	800298a <HAL_UART_Receive+0x72>
 80029c2:	6922      	ldr	r2, [r4, #16]
 80029c4:	2a00      	cmp	r2, #0
 80029c6:	d0f6      	beq.n	80029b6 <HAL_UART_Receive+0x9e>
 80029c8:	223f      	movs	r2, #63	; 0x3f
 80029ca:	e7dd      	b.n	8002988 <HAL_UART_Receive+0x70>
      huart->RxXferCount--;
 80029cc:	8813      	ldrh	r3, [r2, #0]
      if(UART_WaitOnFlagUntilTimeout(huart, UART_FLAG_RXNE, RESET, tickstart, Timeout) != HAL_OK)
 80029ce:	2120      	movs	r1, #32
      huart->RxXferCount--;
 80029d0:	3b01      	subs	r3, #1
 80029d2:	b29b      	uxth	r3, r3
 80029d4:	8013      	strh	r3, [r2, #0]
      if(UART_WaitOnFlagUntilTimeout(huart, UART_FLAG_RXNE, RESET, tickstart, Timeout) != HAL_OK)
 80029d6:	0020      	movs	r0, r4
 80029d8:	9700      	str	r7, [sp, #0]
 80029da:	9b03      	ldr	r3, [sp, #12]
 80029dc:	2200      	movs	r2, #0
 80029de:	f7ff ff03 	bl	80027e8 <UART_WaitOnFlagUntilTimeout>
 80029e2:	2800      	cmp	r0, #0
 80029e4:	d113      	bne.n	8002a0e <HAL_UART_Receive+0xf6>
      if ((huart->Init.WordLength == UART_WORDLENGTH_9B) && (huart->Init.Parity == UART_PARITY_NONE))
 80029e6:	68a2      	ldr	r2, [r4, #8]
 80029e8:	6823      	ldr	r3, [r4, #0]
 80029ea:	0011      	movs	r1, r2
 80029ec:	2280      	movs	r2, #128	; 0x80
 80029ee:	0152      	lsls	r2, r2, #5
 80029f0:	4291      	cmp	r1, r2
 80029f2:	d107      	bne.n	8002a04 <HAL_UART_Receive+0xec>
 80029f4:	6922      	ldr	r2, [r4, #16]
 80029f6:	2a00      	cmp	r2, #0
 80029f8:	d104      	bne.n	8002a04 <HAL_UART_Receive+0xec>
        *tmp = (uint16_t)(huart->Instance->RDR & uhMask);
 80029fa:	8c9b      	ldrh	r3, [r3, #36]	; 0x24
 80029fc:	4033      	ands	r3, r6
 80029fe:	802b      	strh	r3, [r5, #0]
        pData +=2U;
 8002a00:	3502      	adds	r5, #2
 8002a02:	e7c3      	b.n	800298c <HAL_UART_Receive+0x74>
        *pData++ = (uint8_t)(huart->Instance->RDR & (uint8_t)uhMask);
 8002a04:	8c9b      	ldrh	r3, [r3, #36]	; 0x24
 8002a06:	4033      	ands	r3, r6
 8002a08:	702b      	strb	r3, [r5, #0]
 8002a0a:	3501      	adds	r5, #1
 8002a0c:	e7be      	b.n	800298c <HAL_UART_Receive+0x74>
        return HAL_TIMEOUT;
 8002a0e:	2003      	movs	r0, #3
 8002a10:	e7c8      	b.n	80029a4 <HAL_UART_Receive+0x8c>
 8002a12:	46c0      	nop			; (mov r8, r8)
 8002a14:	000001ff 	.word	0x000001ff

08002a18 <UART_Transmit_IT>:
HAL_StatusTypeDef UART_Transmit_IT(UART_HandleTypeDef *huart)
{
  uint16_t* tmp;

  /* Check that a Tx process is ongoing */
  if (huart->gState == HAL_UART_STATE_BUSY_TX)
 8002a18:	0003      	movs	r3, r0
{
 8002a1a:	b530      	push	{r4, r5, lr}
  if (huart->gState == HAL_UART_STATE_BUSY_TX)
 8002a1c:	3369      	adds	r3, #105	; 0x69
 8002a1e:	781b      	ldrb	r3, [r3, #0]
{
 8002a20:	0002      	movs	r2, r0
      return HAL_OK;
    }
  }
  else
  {
    return HAL_BUSY;
 8002a22:	2002      	movs	r0, #2
  if (huart->gState == HAL_UART_STATE_BUSY_TX)
 8002a24:	2b21      	cmp	r3, #33	; 0x21
 8002a26:	d10f      	bne.n	8002a48 <UART_Transmit_IT+0x30>
    if(huart->TxXferCount == 0U)
 8002a28:	0014      	movs	r4, r2
 8002a2a:	3452      	adds	r4, #82	; 0x52
 8002a2c:	8823      	ldrh	r3, [r4, #0]
 8002a2e:	6811      	ldr	r1, [r2, #0]
 8002a30:	b29b      	uxth	r3, r3
 8002a32:	2b00      	cmp	r3, #0
 8002a34:	d109      	bne.n	8002a4a <UART_Transmit_IT+0x32>
      CLEAR_BIT(huart->Instance->CR1, USART_CR1_TXEIE);
 8002a36:	680a      	ldr	r2, [r1, #0]
 8002a38:	307e      	adds	r0, #126	; 0x7e
 8002a3a:	4382      	bics	r2, r0
 8002a3c:	600a      	str	r2, [r1, #0]
      SET_BIT(huart->Instance->CR1, USART_CR1_TCIE);
 8002a3e:	2240      	movs	r2, #64	; 0x40
 8002a40:	6808      	ldr	r0, [r1, #0]
 8002a42:	4302      	orrs	r2, r0
 8002a44:	600a      	str	r2, [r1, #0]
      return HAL_OK;
 8002a46:	2000      	movs	r0, #0
  }
}
 8002a48:	bd30      	pop	{r4, r5, pc}
      if ((huart->Init.WordLength == UART_WORDLENGTH_9B) && (huart->Init.Parity == UART_PARITY_NONE))
 8002a4a:	2080      	movs	r0, #128	; 0x80
 8002a4c:	6895      	ldr	r5, [r2, #8]
 8002a4e:	0140      	lsls	r0, r0, #5
 8002a50:	6cd3      	ldr	r3, [r2, #76]	; 0x4c
 8002a52:	4285      	cmp	r5, r0
 8002a54:	d10d      	bne.n	8002a72 <UART_Transmit_IT+0x5a>
 8002a56:	6910      	ldr	r0, [r2, #16]
 8002a58:	2800      	cmp	r0, #0
 8002a5a:	d10a      	bne.n	8002a72 <UART_Transmit_IT+0x5a>
        huart->Instance->TDR = (*tmp & (uint16_t)0x01FFU);
 8002a5c:	8818      	ldrh	r0, [r3, #0]
        huart->pTxBuffPtr += 2U;
 8002a5e:	3302      	adds	r3, #2
        huart->Instance->TDR = (*tmp & (uint16_t)0x01FFU);
 8002a60:	05c0      	lsls	r0, r0, #23
 8002a62:	0dc0      	lsrs	r0, r0, #23
 8002a64:	8508      	strh	r0, [r1, #40]	; 0x28
        huart->pTxBuffPtr += 2U;
 8002a66:	64d3      	str	r3, [r2, #76]	; 0x4c
      huart->TxXferCount--;
 8002a68:	8823      	ldrh	r3, [r4, #0]
 8002a6a:	3b01      	subs	r3, #1
 8002a6c:	b29b      	uxth	r3, r3
 8002a6e:	8023      	strh	r3, [r4, #0]
 8002a70:	e7e9      	b.n	8002a46 <UART_Transmit_IT+0x2e>
        huart->Instance->TDR = (uint8_t)(*huart->pTxBuffPtr++ & (uint8_t)0xFFU);
 8002a72:	1c58      	adds	r0, r3, #1
 8002a74:	64d0      	str	r0, [r2, #76]	; 0x4c
 8002a76:	781b      	ldrb	r3, [r3, #0]
 8002a78:	850b      	strh	r3, [r1, #40]	; 0x28
 8002a7a:	e7f5      	b.n	8002a68 <UART_Transmit_IT+0x50>

08002a7c <UART_EndTransmit_IT>:
  * @retval HAL status
  */
HAL_StatusTypeDef UART_EndTransmit_IT(UART_HandleTypeDef *huart)
{
  /* Disable the UART Transmit Complete Interrupt */
  CLEAR_BIT(huart->Instance->CR1, USART_CR1_TCIE);
 8002a7c:	2140      	movs	r1, #64	; 0x40
 8002a7e:	6802      	ldr	r2, [r0, #0]
{
 8002a80:	b510      	push	{r4, lr}
  CLEAR_BIT(huart->Instance->CR1, USART_CR1_TCIE);
 8002a82:	6813      	ldr	r3, [r2, #0]
 8002a84:	438b      	bics	r3, r1
 8002a86:	6013      	str	r3, [r2, #0]

  /* Tx process is ended, restore huart->gState to Ready */
  huart->gState = HAL_UART_STATE_READY;
 8002a88:	0003      	movs	r3, r0
 8002a8a:	2220      	movs	r2, #32
 8002a8c:	3369      	adds	r3, #105	; 0x69
 8002a8e:	701a      	strb	r2, [r3, #0]

  HAL_UART_TxCpltCallback(huart);
 8002a90:	f7ff fd54 	bl	800253c <HAL_UART_TxCpltCallback>

  return HAL_OK;
}
 8002a94:	2000      	movs	r0, #0
 8002a96:	bd10      	pop	{r4, pc}

08002a98 <UART_Receive_IT>:
  uint16_t* tmp;
  uint16_t  uhMask = huart->Mask;
  uint16_t  uhdata;

  /* Check that a Rx process is ongoing */
  if(huart->RxState == HAL_UART_STATE_BUSY_RX)
 8002a98:	0002      	movs	r2, r0
{
 8002a9a:	b570      	push	{r4, r5, r6, lr}
  if(huart->RxState == HAL_UART_STATE_BUSY_RX)
 8002a9c:	326a      	adds	r2, #106	; 0x6a
 8002a9e:	7811      	ldrb	r1, [r2, #0]
 8002aa0:	6803      	ldr	r3, [r0, #0]
 8002aa2:	2922      	cmp	r1, #34	; 0x22
 8002aa4:	d12d      	bne.n	8002b02 <UART_Receive_IT+0x6a>
  uint16_t  uhMask = huart->Mask;
 8002aa6:	0001      	movs	r1, r0
  {
    uhdata = (uint16_t) READ_REG(huart->Instance->RDR);
    if ((huart->Init.WordLength == UART_WORDLENGTH_9B) && (huart->Init.Parity == UART_PARITY_NONE))
 8002aa8:	2480      	movs	r4, #128	; 0x80
  uint16_t  uhMask = huart->Mask;
 8002aaa:	315c      	adds	r1, #92	; 0x5c
 8002aac:	880d      	ldrh	r5, [r1, #0]
    uhdata = (uint16_t) READ_REG(huart->Instance->RDR);
 8002aae:	8c99      	ldrh	r1, [r3, #36]	; 0x24
    if ((huart->Init.WordLength == UART_WORDLENGTH_9B) && (huart->Init.Parity == UART_PARITY_NONE))
 8002ab0:	0164      	lsls	r4, r4, #5
 8002ab2:	4029      	ands	r1, r5
 8002ab4:	6885      	ldr	r5, [r0, #8]
 8002ab6:	6d43      	ldr	r3, [r0, #84]	; 0x54
 8002ab8:	42a5      	cmp	r5, r4
 8002aba:	d11e      	bne.n	8002afa <UART_Receive_IT+0x62>
 8002abc:	6904      	ldr	r4, [r0, #16]
 8002abe:	2c00      	cmp	r4, #0
 8002ac0:	d11b      	bne.n	8002afa <UART_Receive_IT+0x62>
    {
      tmp = (uint16_t*) huart->pRxBuffPtr ;
      *tmp = (uint16_t)(uhdata & uhMask);
 8002ac2:	8019      	strh	r1, [r3, #0]
      huart->pRxBuffPtr +=2U;
 8002ac4:	3302      	adds	r3, #2
 8002ac6:	6543      	str	r3, [r0, #84]	; 0x54
    else
    {
      *huart->pRxBuffPtr++ = (uint8_t)(uhdata & (uint8_t)uhMask);
    }

    if(--huart->RxXferCount == 0U)
 8002ac8:	0001      	movs	r1, r0
      HAL_UART_RxCpltCallback(huart);

      return HAL_OK;
    }

    return HAL_OK;
 8002aca:	2400      	movs	r4, #0
    if(--huart->RxXferCount == 0U)
 8002acc:	315a      	adds	r1, #90	; 0x5a
 8002ace:	880b      	ldrh	r3, [r1, #0]
 8002ad0:	3b01      	subs	r3, #1
 8002ad2:	b29b      	uxth	r3, r3
 8002ad4:	800b      	strh	r3, [r1, #0]
 8002ad6:	42a3      	cmp	r3, r4
 8002ad8:	d10d      	bne.n	8002af6 <UART_Receive_IT+0x5e>
      CLEAR_BIT(huart->Instance->CR1, (USART_CR1_RXNEIE | USART_CR1_PEIE));
 8002ada:	6803      	ldr	r3, [r0, #0]
 8002adc:	4d0c      	ldr	r5, [pc, #48]	; (8002b10 <UART_Receive_IT+0x78>)
 8002ade:	6819      	ldr	r1, [r3, #0]
 8002ae0:	4029      	ands	r1, r5
 8002ae2:	6019      	str	r1, [r3, #0]
      CLEAR_BIT(huart->Instance->CR3, USART_CR3_EIE);
 8002ae4:	6899      	ldr	r1, [r3, #8]
 8002ae6:	3523      	adds	r5, #35	; 0x23
 8002ae8:	35ff      	adds	r5, #255	; 0xff
 8002aea:	43a9      	bics	r1, r5
 8002aec:	6099      	str	r1, [r3, #8]
      huart->RxState = HAL_UART_STATE_READY;
 8002aee:	2320      	movs	r3, #32
 8002af0:	7013      	strb	r3, [r2, #0]
      HAL_UART_RxCpltCallback(huart);
 8002af2:	f7fd fe4b 	bl	800078c <HAL_UART_RxCpltCallback>
    /* Clear RXNE interrupt flag */
    __HAL_UART_SEND_REQ(huart, UART_RXDATA_FLUSH_REQUEST);

    return HAL_BUSY;
  }
}
 8002af6:	0020      	movs	r0, r4
 8002af8:	bd70      	pop	{r4, r5, r6, pc}
      *huart->pRxBuffPtr++ = (uint8_t)(uhdata & (uint8_t)uhMask);
 8002afa:	1c5c      	adds	r4, r3, #1
 8002afc:	6544      	str	r4, [r0, #84]	; 0x54
 8002afe:	7019      	strb	r1, [r3, #0]
 8002b00:	e7e2      	b.n	8002ac8 <UART_Receive_IT+0x30>
    __HAL_UART_SEND_REQ(huart, UART_RXDATA_FLUSH_REQUEST);
 8002b02:	2208      	movs	r2, #8
 8002b04:	6999      	ldr	r1, [r3, #24]
    return HAL_BUSY;
 8002b06:	2402      	movs	r4, #2
    __HAL_UART_SEND_REQ(huart, UART_RXDATA_FLUSH_REQUEST);
 8002b08:	430a      	orrs	r2, r1
 8002b0a:	619a      	str	r2, [r3, #24]
    return HAL_BUSY;
 8002b0c:	e7f3      	b.n	8002af6 <UART_Receive_IT+0x5e>
 8002b0e:	46c0      	nop			; (mov r8, r8)
 8002b10:	fffffedf 	.word	0xfffffedf

08002b14 <HAL_UART_IRQHandler>:
  errorflags = (isrflags & (uint32_t)(USART_ISR_PE | USART_ISR_FE | USART_ISR_ORE | USART_ISR_NE));
 8002b14:	220f      	movs	r2, #15
{
 8002b16:	b570      	push	{r4, r5, r6, lr}
 8002b18:	0004      	movs	r4, r0
  uint32_t isrflags   = READ_REG(huart->Instance->ISR);
 8002b1a:	6800      	ldr	r0, [r0, #0]
 8002b1c:	69c3      	ldr	r3, [r0, #28]
  uint32_t cr1its     = READ_REG(huart->Instance->CR1);
 8002b1e:	6801      	ldr	r1, [r0, #0]
  errorflags = (isrflags & (uint32_t)(USART_ISR_PE | USART_ISR_FE | USART_ISR_ORE | USART_ISR_NE));
 8002b20:	401a      	ands	r2, r3
  if (errorflags == RESET)
 8002b22:	d108      	bne.n	8002b36 <HAL_UART_IRQHandler+0x22>
    if(((isrflags & USART_ISR_RXNE) != RESET) && ((cr1its & USART_CR1_RXNEIE) != RESET))
 8002b24:	2520      	movs	r5, #32
 8002b26:	422b      	tst	r3, r5
 8002b28:	d005      	beq.n	8002b36 <HAL_UART_IRQHandler+0x22>
 8002b2a:	4229      	tst	r1, r5
 8002b2c:	d003      	beq.n	8002b36 <HAL_UART_IRQHandler+0x22>
      UART_Receive_IT(huart);
 8002b2e:	0020      	movs	r0, r4
 8002b30:	f7ff ffb2 	bl	8002a98 <UART_Receive_IT>
}
 8002b34:	bd70      	pop	{r4, r5, r6, pc}
  cr3its = READ_REG(huart->Instance->CR3);
 8002b36:	6885      	ldr	r5, [r0, #8]
  if(   (errorflags != RESET)
 8002b38:	2a00      	cmp	r2, #0
 8002b3a:	d060      	beq.n	8002bfe <HAL_UART_IRQHandler+0xea>
     && (   ((cr3its & USART_CR3_EIE) != RESET)
 8002b3c:	2201      	movs	r2, #1
 8002b3e:	4015      	ands	r5, r2
 8002b40:	d103      	bne.n	8002b4a <HAL_UART_IRQHandler+0x36>
         || ((cr1its & (USART_CR1_RXNEIE | USART_CR1_PEIE)) != RESET)) )
 8002b42:	2690      	movs	r6, #144	; 0x90
 8002b44:	0076      	lsls	r6, r6, #1
 8002b46:	4231      	tst	r1, r6
 8002b48:	d059      	beq.n	8002bfe <HAL_UART_IRQHandler+0xea>
    if(((isrflags & USART_ISR_PE) != RESET) && ((cr1its & USART_CR1_PEIE) != RESET))
 8002b4a:	4213      	tst	r3, r2
 8002b4c:	d005      	beq.n	8002b5a <HAL_UART_IRQHandler+0x46>
 8002b4e:	05ce      	lsls	r6, r1, #23
 8002b50:	d503      	bpl.n	8002b5a <HAL_UART_IRQHandler+0x46>
      __HAL_UART_CLEAR_IT(huart, UART_CLEAR_PEF);
 8002b52:	6202      	str	r2, [r0, #32]
      huart->ErrorCode |= HAL_UART_ERROR_PE;
 8002b54:	6ee6      	ldr	r6, [r4, #108]	; 0x6c
 8002b56:	4332      	orrs	r2, r6
 8002b58:	66e2      	str	r2, [r4, #108]	; 0x6c
    if(((isrflags & USART_ISR_FE) != RESET) && ((cr3its & USART_CR3_EIE) != RESET))
 8002b5a:	2202      	movs	r2, #2
 8002b5c:	4213      	tst	r3, r2
 8002b5e:	d006      	beq.n	8002b6e <HAL_UART_IRQHandler+0x5a>
 8002b60:	2d00      	cmp	r5, #0
 8002b62:	d004      	beq.n	8002b6e <HAL_UART_IRQHandler+0x5a>
      __HAL_UART_CLEAR_IT(huart, UART_CLEAR_FEF);
 8002b64:	6202      	str	r2, [r0, #32]
      huart->ErrorCode |= HAL_UART_ERROR_FE;
 8002b66:	6ee6      	ldr	r6, [r4, #108]	; 0x6c
 8002b68:	1892      	adds	r2, r2, r2
 8002b6a:	4332      	orrs	r2, r6
 8002b6c:	66e2      	str	r2, [r4, #108]	; 0x6c
    if(((isrflags & USART_ISR_NE) != RESET) && ((cr3its & USART_CR3_EIE) != RESET))
 8002b6e:	2204      	movs	r2, #4
 8002b70:	4213      	tst	r3, r2
 8002b72:	d006      	beq.n	8002b82 <HAL_UART_IRQHandler+0x6e>
 8002b74:	2d00      	cmp	r5, #0
 8002b76:	d004      	beq.n	8002b82 <HAL_UART_IRQHandler+0x6e>
      __HAL_UART_CLEAR_IT(huart, UART_CLEAR_NEF);
 8002b78:	6202      	str	r2, [r0, #32]
      huart->ErrorCode |= HAL_UART_ERROR_NE;
 8002b7a:	6ee6      	ldr	r6, [r4, #108]	; 0x6c
 8002b7c:	3a02      	subs	r2, #2
 8002b7e:	4332      	orrs	r2, r6
 8002b80:	66e2      	str	r2, [r4, #108]	; 0x6c
    if(((isrflags & USART_ISR_ORE) != RESET) &&
 8002b82:	071a      	lsls	r2, r3, #28
 8002b84:	d508      	bpl.n	8002b98 <HAL_UART_IRQHandler+0x84>
 8002b86:	068a      	lsls	r2, r1, #26
 8002b88:	d401      	bmi.n	8002b8e <HAL_UART_IRQHandler+0x7a>
       (((cr1its & USART_CR1_RXNEIE) != RESET) || ((cr3its & USART_CR3_EIE) != RESET)))
 8002b8a:	2d00      	cmp	r5, #0
 8002b8c:	d004      	beq.n	8002b98 <HAL_UART_IRQHandler+0x84>
      __HAL_UART_CLEAR_IT(huart, UART_CLEAR_OREF);
 8002b8e:	2208      	movs	r2, #8
 8002b90:	6202      	str	r2, [r0, #32]
      huart->ErrorCode |= HAL_UART_ERROR_ORE;
 8002b92:	6ee0      	ldr	r0, [r4, #108]	; 0x6c
 8002b94:	4302      	orrs	r2, r0
 8002b96:	66e2      	str	r2, [r4, #108]	; 0x6c
    if(huart->ErrorCode != HAL_UART_ERROR_NONE)
 8002b98:	6ee2      	ldr	r2, [r4, #108]	; 0x6c
 8002b9a:	2a00      	cmp	r2, #0
 8002b9c:	d0ca      	beq.n	8002b34 <HAL_UART_IRQHandler+0x20>
      if(((isrflags & USART_ISR_RXNE) != RESET) && ((cr1its & USART_CR1_RXNEIE) != RESET))
 8002b9e:	2220      	movs	r2, #32
 8002ba0:	4213      	tst	r3, r2
 8002ba2:	d004      	beq.n	8002bae <HAL_UART_IRQHandler+0x9a>
 8002ba4:	4211      	tst	r1, r2
 8002ba6:	d002      	beq.n	8002bae <HAL_UART_IRQHandler+0x9a>
        UART_Receive_IT(huart);
 8002ba8:	0020      	movs	r0, r4
 8002baa:	f7ff ff75 	bl	8002a98 <UART_Receive_IT>
      if (((huart->ErrorCode & HAL_UART_ERROR_ORE) != RESET) ||
 8002bae:	6ee3      	ldr	r3, [r4, #108]	; 0x6c
        UART_EndRxTransfer(huart);
 8002bb0:	0020      	movs	r0, r4
      if (((huart->ErrorCode & HAL_UART_ERROR_ORE) != RESET) ||
 8002bb2:	071b      	lsls	r3, r3, #28
 8002bb4:	d404      	bmi.n	8002bc0 <HAL_UART_IRQHandler+0xac>
          (HAL_IS_BIT_SET(huart->Instance->CR3, USART_CR3_DMAR)))
 8002bb6:	6823      	ldr	r3, [r4, #0]
 8002bb8:	689d      	ldr	r5, [r3, #8]
 8002bba:	2340      	movs	r3, #64	; 0x40
 8002bbc:	401d      	ands	r5, r3
      if (((huart->ErrorCode & HAL_UART_ERROR_ORE) != RESET) ||
 8002bbe:	d01a      	beq.n	8002bf6 <HAL_UART_IRQHandler+0xe2>
        UART_EndRxTransfer(huart);
 8002bc0:	f7ff fcac 	bl	800251c <UART_EndRxTransfer>
        if (HAL_IS_BIT_SET(huart->Instance->CR3, USART_CR3_DMAR))
 8002bc4:	2140      	movs	r1, #64	; 0x40
 8002bc6:	6823      	ldr	r3, [r4, #0]
 8002bc8:	689a      	ldr	r2, [r3, #8]
 8002bca:	420a      	tst	r2, r1
 8002bcc:	d00f      	beq.n	8002bee <HAL_UART_IRQHandler+0xda>
          CLEAR_BIT(huart->Instance->CR3, USART_CR3_DMAR);
 8002bce:	689a      	ldr	r2, [r3, #8]
          if(huart->hdmarx != NULL)
 8002bd0:	6e60      	ldr	r0, [r4, #100]	; 0x64
          CLEAR_BIT(huart->Instance->CR3, USART_CR3_DMAR);
 8002bd2:	438a      	bics	r2, r1
 8002bd4:	609a      	str	r2, [r3, #8]
          if(huart->hdmarx != NULL)
 8002bd6:	2800      	cmp	r0, #0
 8002bd8:	d009      	beq.n	8002bee <HAL_UART_IRQHandler+0xda>
            huart->hdmarx->XferAbortCallback = UART_DMAAbortOnError;
 8002bda:	4b13      	ldr	r3, [pc, #76]	; (8002c28 <HAL_UART_IRQHandler+0x114>)
 8002bdc:	6343      	str	r3, [r0, #52]	; 0x34
            if(HAL_DMA_Abort_IT(huart->hdmarx) != HAL_OK)
 8002bde:	f7fd ff9b 	bl	8000b18 <HAL_DMA_Abort_IT>
 8002be2:	2800      	cmp	r0, #0
 8002be4:	d0a6      	beq.n	8002b34 <HAL_UART_IRQHandler+0x20>
              huart->hdmarx->XferAbortCallback(huart->hdmarx);
 8002be6:	6e60      	ldr	r0, [r4, #100]	; 0x64
 8002be8:	6b43      	ldr	r3, [r0, #52]	; 0x34
 8002bea:	4798      	blx	r3
 8002bec:	e7a2      	b.n	8002b34 <HAL_UART_IRQHandler+0x20>
            HAL_UART_ErrorCallback(huart);
 8002bee:	0020      	movs	r0, r4
 8002bf0:	f7ff fca5 	bl	800253e <HAL_UART_ErrorCallback>
 8002bf4:	e79e      	b.n	8002b34 <HAL_UART_IRQHandler+0x20>
        HAL_UART_ErrorCallback(huart);
 8002bf6:	f7ff fca2 	bl	800253e <HAL_UART_ErrorCallback>
        huart->ErrorCode = HAL_UART_ERROR_NONE;
 8002bfa:	66e5      	str	r5, [r4, #108]	; 0x6c
 8002bfc:	e79a      	b.n	8002b34 <HAL_UART_IRQHandler+0x20>
  if(((isrflags & USART_ISR_TXE) != RESET) && ((cr1its & USART_CR1_TXEIE) != RESET))
 8002bfe:	2280      	movs	r2, #128	; 0x80
 8002c00:	4213      	tst	r3, r2
 8002c02:	d005      	beq.n	8002c10 <HAL_UART_IRQHandler+0xfc>
 8002c04:	4211      	tst	r1, r2
 8002c06:	d003      	beq.n	8002c10 <HAL_UART_IRQHandler+0xfc>
    UART_Transmit_IT(huart);
 8002c08:	0020      	movs	r0, r4
 8002c0a:	f7ff ff05 	bl	8002a18 <UART_Transmit_IT>
    return;
 8002c0e:	e791      	b.n	8002b34 <HAL_UART_IRQHandler+0x20>
  if(((isrflags & USART_ISR_TC) != RESET) && ((cr1its & USART_CR1_TCIE) != RESET))
 8002c10:	2240      	movs	r2, #64	; 0x40
 8002c12:	4213      	tst	r3, r2
 8002c14:	d100      	bne.n	8002c18 <HAL_UART_IRQHandler+0x104>
 8002c16:	e78d      	b.n	8002b34 <HAL_UART_IRQHandler+0x20>
 8002c18:	4211      	tst	r1, r2
 8002c1a:	d100      	bne.n	8002c1e <HAL_UART_IRQHandler+0x10a>
 8002c1c:	e78a      	b.n	8002b34 <HAL_UART_IRQHandler+0x20>
    UART_EndTransmit_IT(huart);
 8002c1e:	0020      	movs	r0, r4
 8002c20:	f7ff ff2c 	bl	8002a7c <UART_EndTransmit_IT>
    return;
 8002c24:	e786      	b.n	8002b34 <HAL_UART_IRQHandler+0x20>
 8002c26:	46c0      	nop			; (mov r8, r8)
 8002c28:	08002541 	.word	0x08002541

08002c2c <USBD_CDC_DataIn>:
  * @param  epnum: endpoint number
  * @retval status
  */
static uint8_t  USBD_CDC_DataIn (USBD_HandleTypeDef *pdev, uint8_t epnum)
{
  USBD_CDC_HandleTypeDef   *hcdc = (USBD_CDC_HandleTypeDef*) pdev->pClassData;
 8002c2c:	2386      	movs	r3, #134	; 0x86
 8002c2e:	009b      	lsls	r3, r3, #2
 8002c30:	58c3      	ldr	r3, [r0, r3]

    return USBD_OK;
  }
  else
  {
    return USBD_FAIL;
 8002c32:	2002      	movs	r0, #2
  if(pdev->pClassData != NULL)
 8002c34:	2b00      	cmp	r3, #0
 8002c36:	d003      	beq.n	8002c40 <USBD_CDC_DataIn+0x14>
    hcdc->TxState = 0;
 8002c38:	2285      	movs	r2, #133	; 0x85
 8002c3a:	2000      	movs	r0, #0
 8002c3c:	0092      	lsls	r2, r2, #2
 8002c3e:	5098      	str	r0, [r3, r2]
  }
}
 8002c40:	4770      	bx	lr
	...

08002c44 <USBD_CDC_EP0_RxReady>:
  * @param  epnum: endpoint number
  * @retval status
  */
static uint8_t  USBD_CDC_EP0_RxReady (USBD_HandleTypeDef *pdev)
{ 
  USBD_CDC_HandleTypeDef   *hcdc = (USBD_CDC_HandleTypeDef*) pdev->pClassData;
 8002c44:	2386      	movs	r3, #134	; 0x86
 8002c46:	009b      	lsls	r3, r3, #2
{ 
 8002c48:	b570      	push	{r4, r5, r6, lr}
  USBD_CDC_HandleTypeDef   *hcdc = (USBD_CDC_HandleTypeDef*) pdev->pClassData;
 8002c4a:	58c4      	ldr	r4, [r0, r3]
  
  if((pdev->pUserData != NULL) && (hcdc->CmdOpCode != 0xFF))
 8002c4c:	3304      	adds	r3, #4
 8002c4e:	58c3      	ldr	r3, [r0, r3]
 8002c50:	2b00      	cmp	r3, #0
 8002c52:	d00b      	beq.n	8002c6c <USBD_CDC_EP0_RxReady+0x28>
 8002c54:	2580      	movs	r5, #128	; 0x80
 8002c56:	00ad      	lsls	r5, r5, #2
 8002c58:	5d60      	ldrb	r0, [r4, r5]
 8002c5a:	28ff      	cmp	r0, #255	; 0xff
 8002c5c:	d006      	beq.n	8002c6c <USBD_CDC_EP0_RxReady+0x28>
  {
    ((USBD_CDC_ItfTypeDef *)pdev->pUserData)->Control(hcdc->CmdOpCode,
 8002c5e:	4a04      	ldr	r2, [pc, #16]	; (8002c70 <USBD_CDC_EP0_RxReady+0x2c>)
 8002c60:	689b      	ldr	r3, [r3, #8]
 8002c62:	5ca2      	ldrb	r2, [r4, r2]
 8002c64:	0021      	movs	r1, r4
 8002c66:	4798      	blx	r3
                                                      (uint8_t *)hcdc->data,
                                                      hcdc->CmdLength);
      hcdc->CmdOpCode = 0xFF; 
 8002c68:	23ff      	movs	r3, #255	; 0xff
 8002c6a:	5563      	strb	r3, [r4, r5]
      
  }
  return USBD_OK;
}
 8002c6c:	2000      	movs	r0, #0
 8002c6e:	bd70      	pop	{r4, r5, r6, pc}
 8002c70:	00000201 	.word	0x00000201

08002c74 <USBD_CDC_GetFSCfgDesc>:
  * @param  length : pointer data length
  * @retval pointer to descriptor buffer
  */
static uint8_t  *USBD_CDC_GetFSCfgDesc (uint16_t *length)
{
  *length = sizeof (USBD_CDC_CfgFSDesc);
 8002c74:	2343      	movs	r3, #67	; 0x43
 8002c76:	8003      	strh	r3, [r0, #0]
  return USBD_CDC_CfgFSDesc;
}
 8002c78:	4800      	ldr	r0, [pc, #0]	; (8002c7c <USBD_CDC_GetFSCfgDesc+0x8>)
 8002c7a:	4770      	bx	lr
 8002c7c:	20000048 	.word	0x20000048

08002c80 <USBD_CDC_GetHSCfgDesc>:
  * @param  length : pointer data length
  * @retval pointer to descriptor buffer
  */
static uint8_t  *USBD_CDC_GetHSCfgDesc (uint16_t *length)
{
  *length = sizeof (USBD_CDC_CfgHSDesc);
 8002c80:	2343      	movs	r3, #67	; 0x43
 8002c82:	8003      	strh	r3, [r0, #0]
  return USBD_CDC_CfgHSDesc;
}
 8002c84:	4800      	ldr	r0, [pc, #0]	; (8002c88 <USBD_CDC_GetHSCfgDesc+0x8>)
 8002c86:	4770      	bx	lr
 8002c88:	2000008c 	.word	0x2000008c

08002c8c <USBD_CDC_GetOtherSpeedCfgDesc>:
  * @param  length : pointer data length
  * @retval pointer to descriptor buffer
  */
static uint8_t  *USBD_CDC_GetOtherSpeedCfgDesc (uint16_t *length)
{
  *length = sizeof (USBD_CDC_OtherSpeedCfgDesc);
 8002c8c:	2343      	movs	r3, #67	; 0x43
 8002c8e:	8003      	strh	r3, [r0, #0]
  return USBD_CDC_OtherSpeedCfgDesc;
}
 8002c90:	4800      	ldr	r0, [pc, #0]	; (8002c94 <USBD_CDC_GetOtherSpeedCfgDesc+0x8>)
 8002c92:	4770      	bx	lr
 8002c94:	200000dc 	.word	0x200000dc

08002c98 <USBD_CDC_GetDeviceQualifierDescriptor>:
* @param  length : pointer data length
* @retval pointer to descriptor buffer
*/
uint8_t  *USBD_CDC_GetDeviceQualifierDescriptor (uint16_t *length)
{
  *length = sizeof (USBD_CDC_DeviceQualifierDesc);
 8002c98:	230a      	movs	r3, #10
 8002c9a:	8003      	strh	r3, [r0, #0]
  return USBD_CDC_DeviceQualifierDesc;
}
 8002c9c:	4800      	ldr	r0, [pc, #0]	; (8002ca0 <USBD_CDC_GetDeviceQualifierDescriptor+0x8>)
 8002c9e:	4770      	bx	lr
 8002ca0:	200000d0 	.word	0x200000d0

08002ca4 <USBD_CDC_DataOut>:
{      
 8002ca4:	b570      	push	{r4, r5, r6, lr}
  USBD_CDC_HandleTypeDef   *hcdc = (USBD_CDC_HandleTypeDef*) pdev->pClassData;
 8002ca6:	2686      	movs	r6, #134	; 0x86
 8002ca8:	00b6      	lsls	r6, r6, #2
{      
 8002caa:	0004      	movs	r4, r0
  USBD_CDC_HandleTypeDef   *hcdc = (USBD_CDC_HandleTypeDef*) pdev->pClassData;
 8002cac:	5985      	ldr	r5, [r0, r6]
  hcdc->RxLength = USBD_LL_GetRxDataSize (pdev, epnum);
 8002cae:	f001 fb49 	bl	8004344 <USBD_LL_GetRxDataSize>
 8002cb2:	2383      	movs	r3, #131	; 0x83
 8002cb4:	009b      	lsls	r3, r3, #2
 8002cb6:	50e8      	str	r0, [r5, r3]
  if(pdev->pClassData != NULL)
 8002cb8:	59a3      	ldr	r3, [r4, r6]
    return USBD_FAIL;
 8002cba:	2002      	movs	r0, #2
  if(pdev->pClassData != NULL)
 8002cbc:	2b00      	cmp	r3, #0
 8002cbe:	d00a      	beq.n	8002cd6 <USBD_CDC_DataOut+0x32>
    ((USBD_CDC_ItfTypeDef *)pdev->pUserData)->Receive(hcdc->RxBuffer, &hcdc->RxLength);
 8002cc0:	2383      	movs	r3, #131	; 0x83
 8002cc2:	2281      	movs	r2, #129	; 0x81
 8002cc4:	009b      	lsls	r3, r3, #2
 8002cc6:	18e9      	adds	r1, r5, r3
 8002cc8:	3310      	adds	r3, #16
 8002cca:	58e3      	ldr	r3, [r4, r3]
 8002ccc:	0092      	lsls	r2, r2, #2
 8002cce:	68db      	ldr	r3, [r3, #12]
 8002cd0:	58a8      	ldr	r0, [r5, r2]
 8002cd2:	4798      	blx	r3
    return USBD_OK;
 8002cd4:	2000      	movs	r0, #0
}
 8002cd6:	bd70      	pop	{r4, r5, r6, pc}

08002cd8 <USBD_CDC_Setup>:
  switch (req->bmRequest & USB_REQ_TYPE_MASK)
 8002cd8:	2260      	movs	r2, #96	; 0x60
 8002cda:	780b      	ldrb	r3, [r1, #0]
{
 8002cdc:	b570      	push	{r4, r5, r6, lr}
  switch (req->bmRequest & USB_REQ_TYPE_MASK)
 8002cde:	401a      	ands	r2, r3
{
 8002ce0:	0004      	movs	r4, r0
 8002ce2:	000d      	movs	r5, r1
  switch (req->bmRequest & USB_REQ_TYPE_MASK)
 8002ce4:	2a00      	cmp	r2, #0
 8002ce6:	d028      	beq.n	8002d3a <USBD_CDC_Setup+0x62>
 8002ce8:	2a20      	cmp	r2, #32
 8002cea:	d11e      	bne.n	8002d2a <USBD_CDC_Setup+0x52>
    if (req->wLength)
 8002cec:	88ca      	ldrh	r2, [r1, #6]
 8002cee:	7848      	ldrb	r0, [r1, #1]
 8002cf0:	2a00      	cmp	r2, #0
 8002cf2:	d01c      	beq.n	8002d2e <USBD_CDC_Setup+0x56>
  USBD_CDC_HandleTypeDef   *hcdc = (USBD_CDC_HandleTypeDef*) pdev->pClassData;
 8002cf4:	2186      	movs	r1, #134	; 0x86
      if (req->bmRequest & 0x80)
 8002cf6:	b25b      	sxtb	r3, r3
  USBD_CDC_HandleTypeDef   *hcdc = (USBD_CDC_HandleTypeDef*) pdev->pClassData;
 8002cf8:	0089      	lsls	r1, r1, #2
 8002cfa:	5866      	ldr	r6, [r4, r1]
      if (req->bmRequest & 0x80)
 8002cfc:	2b00      	cmp	r3, #0
 8002cfe:	da0b      	bge.n	8002d18 <USBD_CDC_Setup+0x40>
        ((USBD_CDC_ItfTypeDef *)pdev->pUserData)->Control(req->bRequest,
 8002d00:	2387      	movs	r3, #135	; 0x87
 8002d02:	009b      	lsls	r3, r3, #2
 8002d04:	58e3      	ldr	r3, [r4, r3]
 8002d06:	0031      	movs	r1, r6
 8002d08:	689b      	ldr	r3, [r3, #8]
 8002d0a:	4798      	blx	r3
          USBD_CtlSendData (pdev, 
 8002d0c:	0031      	movs	r1, r6
 8002d0e:	88ea      	ldrh	r2, [r5, #6]
      USBD_CtlSendData (pdev,
 8002d10:	0020      	movs	r0, r4
 8002d12:	f000 fbf4 	bl	80034fe <USBD_CtlSendData>
      break;
 8002d16:	e008      	b.n	8002d2a <USBD_CDC_Setup+0x52>
        hcdc->CmdOpCode = req->bRequest;
 8002d18:	2380      	movs	r3, #128	; 0x80
 8002d1a:	009b      	lsls	r3, r3, #2
 8002d1c:	54f0      	strb	r0, [r6, r3]
        hcdc->CmdLength = req->wLength;
 8002d1e:	4b0a      	ldr	r3, [pc, #40]	; (8002d48 <USBD_CDC_Setup+0x70>)
        USBD_CtlPrepareRx (pdev, 
 8002d20:	0031      	movs	r1, r6
        hcdc->CmdLength = req->wLength;
 8002d22:	54f2      	strb	r2, [r6, r3]
        USBD_CtlPrepareRx (pdev, 
 8002d24:	0020      	movs	r0, r4
 8002d26:	f000 fc00 	bl	800352a <USBD_CtlPrepareRx>
}
 8002d2a:	2000      	movs	r0, #0
 8002d2c:	bd70      	pop	{r4, r5, r6, pc}
      ((USBD_CDC_ItfTypeDef *)pdev->pUserData)->Control(req->bRequest,
 8002d2e:	2387      	movs	r3, #135	; 0x87
 8002d30:	009b      	lsls	r3, r3, #2
 8002d32:	58e3      	ldr	r3, [r4, r3]
 8002d34:	689b      	ldr	r3, [r3, #8]
 8002d36:	4798      	blx	r3
 8002d38:	e7f7      	b.n	8002d2a <USBD_CDC_Setup+0x52>
    switch (req->bRequest)
 8002d3a:	784b      	ldrb	r3, [r1, #1]
 8002d3c:	2b0a      	cmp	r3, #10
 8002d3e:	d1f4      	bne.n	8002d2a <USBD_CDC_Setup+0x52>
      USBD_CtlSendData (pdev,
 8002d40:	2201      	movs	r2, #1
 8002d42:	4902      	ldr	r1, [pc, #8]	; (8002d4c <USBD_CDC_Setup+0x74>)
 8002d44:	e7e4      	b.n	8002d10 <USBD_CDC_Setup+0x38>
 8002d46:	46c0      	nop			; (mov r8, r8)
 8002d48:	00000201 	.word	0x00000201
 8002d4c:	20000208 	.word	0x20000208

08002d50 <USBD_CDC_DeInit>:
{
 8002d50:	b570      	push	{r4, r5, r6, lr}
 8002d52:	0004      	movs	r4, r0
  if(pdev->pClassData != NULL)
 8002d54:	2586      	movs	r5, #134	; 0x86
  USBD_LL_CloseEP(pdev,
 8002d56:	2181      	movs	r1, #129	; 0x81
 8002d58:	f001 fa80 	bl	800425c <USBD_LL_CloseEP>
  USBD_LL_CloseEP(pdev,
 8002d5c:	2101      	movs	r1, #1
 8002d5e:	0020      	movs	r0, r4
 8002d60:	f001 fa7c 	bl	800425c <USBD_LL_CloseEP>
  if(pdev->pClassData != NULL)
 8002d64:	00ad      	lsls	r5, r5, #2
  USBD_LL_CloseEP(pdev,
 8002d66:	2182      	movs	r1, #130	; 0x82
 8002d68:	0020      	movs	r0, r4
 8002d6a:	f001 fa77 	bl	800425c <USBD_LL_CloseEP>
  if(pdev->pClassData != NULL)
 8002d6e:	5963      	ldr	r3, [r4, r5]
 8002d70:	2b00      	cmp	r3, #0
 8002d72:	d009      	beq.n	8002d88 <USBD_CDC_DeInit+0x38>
    ((USBD_CDC_ItfTypeDef *)pdev->pUserData)->DeInit();
 8002d74:	2387      	movs	r3, #135	; 0x87
 8002d76:	009b      	lsls	r3, r3, #2
 8002d78:	58e3      	ldr	r3, [r4, r3]
 8002d7a:	685b      	ldr	r3, [r3, #4]
 8002d7c:	4798      	blx	r3
    USBD_free(pdev->pClassData);
 8002d7e:	5960      	ldr	r0, [r4, r5]
 8002d80:	f001 faec 	bl	800435c <USBD_static_free>
    pdev->pClassData = NULL;
 8002d84:	2300      	movs	r3, #0
 8002d86:	5163      	str	r3, [r4, r5]
}
 8002d88:	2000      	movs	r0, #0
 8002d8a:	bd70      	pop	{r4, r5, r6, pc}

08002d8c <USBD_CDC_Init>:
{
 8002d8c:	b5f8      	push	{r3, r4, r5, r6, r7, lr}
  if(pdev->dev_speed == USBD_SPEED_HIGH  ) 
 8002d8e:	7c03      	ldrb	r3, [r0, #16]
{
 8002d90:	0004      	movs	r4, r0
  if(pdev->dev_speed == USBD_SPEED_HIGH  ) 
 8002d92:	2b00      	cmp	r3, #0
 8002d94:	d133      	bne.n	8002dfe <USBD_CDC_Init+0x72>
    USBD_LL_OpenEP(pdev,
 8002d96:	2380      	movs	r3, #128	; 0x80
 8002d98:	2202      	movs	r2, #2
 8002d9a:	009b      	lsls	r3, r3, #2
 8002d9c:	2181      	movs	r1, #129	; 0x81
 8002d9e:	f001 fa4b 	bl	8004238 <USBD_LL_OpenEP>
    USBD_LL_OpenEP(pdev,
 8002da2:	2380      	movs	r3, #128	; 0x80
 8002da4:	009b      	lsls	r3, r3, #2
  pdev->pClassData = USBD_malloc(sizeof (USBD_CDC_HandleTypeDef));
 8002da6:	2587      	movs	r5, #135	; 0x87
    USBD_LL_OpenEP(pdev,
 8002da8:	2202      	movs	r2, #2
 8002daa:	2101      	movs	r1, #1
 8002dac:	0020      	movs	r0, r4
 8002dae:	f001 fa43 	bl	8004238 <USBD_LL_OpenEP>
  pdev->pClassData = USBD_malloc(sizeof (USBD_CDC_HandleTypeDef));
 8002db2:	00ad      	lsls	r5, r5, #2
  USBD_LL_OpenEP(pdev,
 8002db4:	2308      	movs	r3, #8
 8002db6:	2203      	movs	r2, #3
 8002db8:	2182      	movs	r1, #130	; 0x82
 8002dba:	0020      	movs	r0, r4
 8002dbc:	f001 fa3c 	bl	8004238 <USBD_LL_OpenEP>
  pdev->pClassData = USBD_malloc(sizeof (USBD_CDC_HandleTypeDef));
 8002dc0:	2786      	movs	r7, #134	; 0x86
 8002dc2:	0028      	movs	r0, r5
 8002dc4:	f001 fac6 	bl	8004354 <USBD_static_malloc>
 8002dc8:	00bf      	lsls	r7, r7, #2
 8002dca:	0006      	movs	r6, r0
 8002dcc:	51e0      	str	r0, [r4, r7]
    ret = 1; 
 8002dce:	2001      	movs	r0, #1
  if(pdev->pClassData == NULL)
 8002dd0:	2e00      	cmp	r6, #0
 8002dd2:	d013      	beq.n	8002dfc <USBD_CDC_Init+0x70>
    ((USBD_CDC_ItfTypeDef *)pdev->pUserData)->Init();
 8002dd4:	5963      	ldr	r3, [r4, r5]
    hcdc->TxState =0;
 8002dd6:	2500      	movs	r5, #0
    ((USBD_CDC_ItfTypeDef *)pdev->pUserData)->Init();
 8002dd8:	681b      	ldr	r3, [r3, #0]
 8002dda:	4798      	blx	r3
    hcdc->TxState =0;
 8002ddc:	2385      	movs	r3, #133	; 0x85
 8002dde:	2281      	movs	r2, #129	; 0x81
 8002de0:	009b      	lsls	r3, r3, #2
 8002de2:	50f5      	str	r5, [r6, r3]
    hcdc->RxState =0;
 8002de4:	51f5      	str	r5, [r6, r7]
    if(pdev->dev_speed == USBD_SPEED_HIGH  ) 
 8002de6:	7c27      	ldrb	r7, [r4, #16]
 8002de8:	0092      	lsls	r2, r2, #2
 8002dea:	42af      	cmp	r7, r5
 8002dec:	d10e      	bne.n	8002e0c <USBD_CDC_Init+0x80>
      USBD_LL_PrepareReceive(pdev,
 8002dee:	3b14      	subs	r3, #20
 8002df0:	58b2      	ldr	r2, [r6, r2]
 8002df2:	2101      	movs	r1, #1
 8002df4:	0020      	movs	r0, r4
 8002df6:	f001 fa95 	bl	8004324 <USBD_LL_PrepareReceive>
  uint8_t ret = 0;
 8002dfa:	0038      	movs	r0, r7
}
 8002dfc:	bdf8      	pop	{r3, r4, r5, r6, r7, pc}
    USBD_LL_OpenEP(pdev,
 8002dfe:	2340      	movs	r3, #64	; 0x40
 8002e00:	2202      	movs	r2, #2
 8002e02:	2181      	movs	r1, #129	; 0x81
 8002e04:	f001 fa18 	bl	8004238 <USBD_LL_OpenEP>
    USBD_LL_OpenEP(pdev,
 8002e08:	2340      	movs	r3, #64	; 0x40
 8002e0a:	e7cc      	b.n	8002da6 <USBD_CDC_Init+0x1a>
      USBD_LL_PrepareReceive(pdev,
 8002e0c:	2340      	movs	r3, #64	; 0x40
 8002e0e:	58b2      	ldr	r2, [r6, r2]
 8002e10:	2101      	movs	r1, #1
 8002e12:	0020      	movs	r0, r4
 8002e14:	f001 fa86 	bl	8004324 <USBD_LL_PrepareReceive>
  uint8_t ret = 0;
 8002e18:	0028      	movs	r0, r5
 8002e1a:	e7ef      	b.n	8002dfc <USBD_CDC_Init+0x70>

08002e1c <USBD_CDC_RegisterInterface>:
  * @retval status
  */
uint8_t  USBD_CDC_RegisterInterface  (USBD_HandleTypeDef   *pdev, 
                                      USBD_CDC_ItfTypeDef *fops)
{
  uint8_t  ret = USBD_FAIL;
 8002e1c:	2302      	movs	r3, #2
  
  if(fops != NULL)
 8002e1e:	2900      	cmp	r1, #0
 8002e20:	d003      	beq.n	8002e2a <USBD_CDC_RegisterInterface+0xe>
  {
    pdev->pUserData= fops;
 8002e22:	2387      	movs	r3, #135	; 0x87
 8002e24:	009b      	lsls	r3, r3, #2
 8002e26:	50c1      	str	r1, [r0, r3]
    ret = USBD_OK;    
 8002e28:	2300      	movs	r3, #0
  }
  
  return ret;
}
 8002e2a:	0018      	movs	r0, r3
 8002e2c:	4770      	bx	lr

08002e2e <USBD_CDC_SetTxBuffer>:
  */
uint8_t  USBD_CDC_SetTxBuffer  (USBD_HandleTypeDef   *pdev,
                                uint8_t  *pbuff,
                                uint16_t length)
{
  USBD_CDC_HandleTypeDef   *hcdc = (USBD_CDC_HandleTypeDef*) pdev->pClassData;
 8002e2e:	2386      	movs	r3, #134	; 0x86
 8002e30:	009b      	lsls	r3, r3, #2
 8002e32:	58c3      	ldr	r3, [r0, r3]
  
  hcdc->TxBuffer = pbuff;
 8002e34:	2082      	movs	r0, #130	; 0x82
 8002e36:	0080      	lsls	r0, r0, #2
 8002e38:	5019      	str	r1, [r3, r0]
  hcdc->TxLength = length;  
 8002e3a:	2184      	movs	r1, #132	; 0x84
 8002e3c:	0089      	lsls	r1, r1, #2
  
  return USBD_OK;  
}
 8002e3e:	2000      	movs	r0, #0
  hcdc->TxLength = length;  
 8002e40:	505a      	str	r2, [r3, r1]
}
 8002e42:	4770      	bx	lr

08002e44 <USBD_CDC_SetRxBuffer>:
uint8_t  USBD_CDC_SetRxBuffer  (USBD_HandleTypeDef   *pdev,
                                   uint8_t  *pbuff)
{
  USBD_CDC_HandleTypeDef   *hcdc = (USBD_CDC_HandleTypeDef*) pdev->pClassData;
  
  hcdc->RxBuffer = pbuff;
 8002e44:	2386      	movs	r3, #134	; 0x86
 8002e46:	009b      	lsls	r3, r3, #2
 8002e48:	58c2      	ldr	r2, [r0, r3]
 8002e4a:	3b14      	subs	r3, #20
  
  return USBD_OK;
}
 8002e4c:	2000      	movs	r0, #0
  hcdc->RxBuffer = pbuff;
 8002e4e:	50d1      	str	r1, [r2, r3]
}
 8002e50:	4770      	bx	lr

08002e52 <USBD_CDC_TransmitPacket>:
  * @param  epnum: endpoint number
  * @retval status
  */
uint8_t  USBD_CDC_TransmitPacket(USBD_HandleTypeDef *pdev)
{      
  USBD_CDC_HandleTypeDef   *hcdc = (USBD_CDC_HandleTypeDef*) pdev->pClassData;
 8002e52:	2386      	movs	r3, #134	; 0x86
 8002e54:	009b      	lsls	r3, r3, #2
 8002e56:	58c2      	ldr	r2, [r0, r3]
{      
 8002e58:	b510      	push	{r4, lr}
      return USBD_BUSY;
    }
  }
  else
  {
    return USBD_FAIL;
 8002e5a:	2302      	movs	r3, #2
  if(pdev->pClassData != NULL)
 8002e5c:	2a00      	cmp	r2, #0
 8002e5e:	d011      	beq.n	8002e84 <USBD_CDC_TransmitPacket+0x32>
    if(hcdc->TxState == 0)
 8002e60:	2185      	movs	r1, #133	; 0x85
 8002e62:	0089      	lsls	r1, r1, #2
 8002e64:	5854      	ldr	r4, [r2, r1]
 8002e66:	3b01      	subs	r3, #1
 8002e68:	2c00      	cmp	r4, #0
 8002e6a:	d10b      	bne.n	8002e84 <USBD_CDC_TransmitPacket+0x32>
      hcdc->TxState = 1;
 8002e6c:	5053      	str	r3, [r2, r1]
                       hcdc->TxLength);
 8002e6e:	2384      	movs	r3, #132	; 0x84
 8002e70:	009b      	lsls	r3, r3, #2
      USBD_LL_Transmit(pdev,
 8002e72:	58d3      	ldr	r3, [r2, r3]
 8002e74:	390c      	subs	r1, #12
 8002e76:	5852      	ldr	r2, [r2, r1]
 8002e78:	3988      	subs	r1, #136	; 0x88
 8002e7a:	b29b      	uxth	r3, r3
 8002e7c:	39ff      	subs	r1, #255	; 0xff
 8002e7e:	f001 fa41 	bl	8004304 <USBD_LL_Transmit>
      return USBD_OK;
 8002e82:	0023      	movs	r3, r4
  }
}
 8002e84:	0018      	movs	r0, r3
 8002e86:	bd10      	pop	{r4, pc}

08002e88 <USBD_CDC_ReceivePacket>:
  * @param  pdev: device instance
  * @retval status
  */
uint8_t  USBD_CDC_ReceivePacket(USBD_HandleTypeDef *pdev)
{      
  USBD_CDC_HandleTypeDef   *hcdc = (USBD_CDC_HandleTypeDef*) pdev->pClassData;
 8002e88:	2386      	movs	r3, #134	; 0x86
 8002e8a:	009b      	lsls	r3, r3, #2
 8002e8c:	58c2      	ldr	r2, [r0, r3]
{      
 8002e8e:	b510      	push	{r4, lr}
    }
    return USBD_OK;
  }
  else
  {
    return USBD_FAIL;
 8002e90:	2402      	movs	r4, #2
  if(pdev->pClassData != NULL)
 8002e92:	2a00      	cmp	r2, #0
 8002e94:	d009      	beq.n	8002eaa <USBD_CDC_ReceivePacket+0x22>
 8002e96:	2181      	movs	r1, #129	; 0x81
    if(pdev->dev_speed == USBD_SPEED_HIGH  ) 
 8002e98:	7c04      	ldrb	r4, [r0, #16]
 8002e9a:	0089      	lsls	r1, r1, #2
 8002e9c:	2c00      	cmp	r4, #0
 8002e9e:	d106      	bne.n	8002eae <USBD_CDC_ReceivePacket+0x26>
      USBD_LL_PrepareReceive(pdev,
 8002ea0:	5852      	ldr	r2, [r2, r1]
 8002ea2:	3b18      	subs	r3, #24
 8002ea4:	2101      	movs	r1, #1
 8002ea6:	f001 fa3d 	bl	8004324 <USBD_LL_PrepareReceive>
  }
}
 8002eaa:	0020      	movs	r0, r4
 8002eac:	bd10      	pop	{r4, pc}
      USBD_LL_PrepareReceive(pdev,
 8002eae:	5852      	ldr	r2, [r2, r1]
 8002eb0:	2340      	movs	r3, #64	; 0x40
 8002eb2:	2101      	movs	r1, #1
 8002eb4:	f001 fa36 	bl	8004324 <USBD_LL_PrepareReceive>
    return USBD_OK;
 8002eb8:	2400      	movs	r4, #0
 8002eba:	e7f6      	b.n	8002eaa <USBD_CDC_ReceivePacket+0x22>

08002ebc <USBD_Init>:
* @param  pdesc: Descriptor structure address
* @param  id: Low level core index
* @retval None
*/
USBD_StatusTypeDef USBD_Init(USBD_HandleTypeDef *pdev, USBD_DescriptorsTypeDef *pdesc, uint8_t id)
{
 8002ebc:	b510      	push	{r4, lr}
  /* Check whether the USB Host handle is valid */
  if(pdev == NULL)
  {
    USBD_ErrLog("Invalid Device handle");
    return USBD_FAIL; 
 8002ebe:	2302      	movs	r3, #2
  if(pdev == NULL)
 8002ec0:	2800      	cmp	r0, #0
 8002ec2:	d013      	beq.n	8002eec <USBD_Init+0x30>
  }
  
  /* Unlink previous class*/
  if(pdev->pClass != NULL)
 8002ec4:	2385      	movs	r3, #133	; 0x85
 8002ec6:	009b      	lsls	r3, r3, #2
 8002ec8:	58c4      	ldr	r4, [r0, r3]
 8002eca:	2c00      	cmp	r4, #0
 8002ecc:	d001      	beq.n	8002ed2 <USBD_Init+0x16>
  {
    pdev->pClass = NULL;
 8002ece:	2400      	movs	r4, #0
 8002ed0:	50c4      	str	r4, [r0, r3]
  }
  
  /* Assign USBD Descriptors */
  if(pdesc != NULL)
 8002ed2:	2900      	cmp	r1, #0
 8002ed4:	d002      	beq.n	8002edc <USBD_Init+0x20>
  {
    pdev->pDesc = pdesc;
 8002ed6:	2384      	movs	r3, #132	; 0x84
 8002ed8:	009b      	lsls	r3, r3, #2
 8002eda:	50c1      	str	r1, [r0, r3]
  }
  
  /* Set Device initial State */
  pdev->dev_state  = USBD_STATE_DEFAULT;
 8002edc:	23fe      	movs	r3, #254	; 0xfe
 8002ede:	2101      	movs	r1, #1
 8002ee0:	005b      	lsls	r3, r3, #1
 8002ee2:	54c1      	strb	r1, [r0, r3]
  pdev->id = id;
 8002ee4:	7002      	strb	r2, [r0, #0]
  /* Initialize low level driver */
  USBD_LL_Init(pdev);
 8002ee6:	f001 f957 	bl	8004198 <USBD_LL_Init>
  
  return USBD_OK; 
 8002eea:	2300      	movs	r3, #0
}
 8002eec:	0018      	movs	r0, r3
 8002eee:	bd10      	pop	{r4, pc}

08002ef0 <USBD_RegisterClass>:
    status = USBD_OK;
  }
  else
  {
    USBD_ErrLog("Invalid Class handle");
    status = USBD_FAIL; 
 8002ef0:	2302      	movs	r3, #2
  if(pclass != 0)
 8002ef2:	2900      	cmp	r1, #0
 8002ef4:	d003      	beq.n	8002efe <USBD_RegisterClass+0xe>
    pdev->pClass = pclass;
 8002ef6:	2385      	movs	r3, #133	; 0x85
 8002ef8:	009b      	lsls	r3, r3, #2
 8002efa:	50c1      	str	r1, [r0, r3]
    status = USBD_OK;
 8002efc:	2300      	movs	r3, #0
  }
  
  return status;
}
 8002efe:	0018      	movs	r0, r3
 8002f00:	4770      	bx	lr

08002f02 <USBD_Start>:
  *         Start the USB Device Core.
  * @param  pdev: Device Handle
  * @retval USBD Status
  */
USBD_StatusTypeDef  USBD_Start  (USBD_HandleTypeDef *pdev)
{
 8002f02:	b510      	push	{r4, lr}
  
  /* Start the low level driver  */
  USBD_LL_Start(pdev); 
 8002f04:	f001 f988 	bl	8004218 <USBD_LL_Start>
  
  return USBD_OK;  
}
 8002f08:	2000      	movs	r0, #0
 8002f0a:	bd10      	pop	{r4, pc}

08002f0c <USBD_SetClassConfig>:

USBD_StatusTypeDef USBD_SetClassConfig(USBD_HandleTypeDef  *pdev, uint8_t cfgidx)
{
  USBD_StatusTypeDef   ret = USBD_FAIL;
  
  if(pdev->pClass != NULL)
 8002f0c:	2385      	movs	r3, #133	; 0x85
 8002f0e:	009b      	lsls	r3, r3, #2
 8002f10:	58c3      	ldr	r3, [r0, r3]
{
 8002f12:	b510      	push	{r4, lr}
  if(pdev->pClass != NULL)
 8002f14:	2b00      	cmp	r3, #0
 8002f16:	d101      	bne.n	8002f1c <USBD_SetClassConfig+0x10>
  USBD_StatusTypeDef   ret = USBD_FAIL;
 8002f18:	2002      	movs	r0, #2
    {
      ret = USBD_OK;
    }
  }
  return ret; 
}
 8002f1a:	bd10      	pop	{r4, pc}
    if(pdev->pClass->Init(pdev, cfgidx) == 0)
 8002f1c:	681b      	ldr	r3, [r3, #0]
 8002f1e:	4798      	blx	r3
 8002f20:	2800      	cmp	r0, #0
 8002f22:	d1f9      	bne.n	8002f18 <USBD_SetClassConfig+0xc>
 8002f24:	e7f9      	b.n	8002f1a <USBD_SetClassConfig+0xe>

08002f26 <USBD_ClrClassConfig>:
* @retval status: USBD_StatusTypeDef
*/
USBD_StatusTypeDef USBD_ClrClassConfig(USBD_HandleTypeDef  *pdev, uint8_t cfgidx)
{
  /* Clear configuration  and De-initialize the Class process*/
  pdev->pClass->DeInit(pdev, cfgidx);  
 8002f26:	2385      	movs	r3, #133	; 0x85
{
 8002f28:	b510      	push	{r4, lr}
  pdev->pClass->DeInit(pdev, cfgidx);  
 8002f2a:	009b      	lsls	r3, r3, #2
 8002f2c:	58c3      	ldr	r3, [r0, r3]
 8002f2e:	685b      	ldr	r3, [r3, #4]
 8002f30:	4798      	blx	r3
  return USBD_OK;
}
 8002f32:	2000      	movs	r0, #0
 8002f34:	bd10      	pop	{r4, pc}
	...

08002f38 <USBD_LL_SetupStage>:
* @retval status
*/
USBD_StatusTypeDef USBD_LL_SetupStage(USBD_HandleTypeDef *pdev, uint8_t *psetup)
{

  USBD_ParseSetupRequest(&pdev->request, psetup);
 8002f38:	2382      	movs	r3, #130	; 0x82
 8002f3a:	009b      	lsls	r3, r3, #2
{
 8002f3c:	b570      	push	{r4, r5, r6, lr}
  USBD_ParseSetupRequest(&pdev->request, psetup);
 8002f3e:	18c5      	adds	r5, r0, r3
{
 8002f40:	0004      	movs	r4, r0
  USBD_ParseSetupRequest(&pdev->request, psetup);
 8002f42:	0028      	movs	r0, r5
 8002f44:	f000 faaa 	bl	800349c <USBD_ParseSetupRequest>
  
  pdev->ep0_state = USBD_EP0_SETUP;
 8002f48:	23fa      	movs	r3, #250	; 0xfa
 8002f4a:	2201      	movs	r2, #1
 8002f4c:	005b      	lsls	r3, r3, #1
 8002f4e:	50e2      	str	r2, [r4, r3]
  pdev->ep0_data_len = pdev->request.wLength;
 8002f50:	4b12      	ldr	r3, [pc, #72]	; (8002f9c <USBD_LL_SetupStage+0x64>)
 8002f52:	5ae2      	ldrh	r2, [r4, r3]
 8002f54:	3b16      	subs	r3, #22
 8002f56:	50e2      	str	r2, [r4, r3]
  
  switch (pdev->request.bmRequest & 0x1F) 
 8002f58:	3310      	adds	r3, #16
 8002f5a:	5ce1      	ldrb	r1, [r4, r3]
 8002f5c:	3bea      	subs	r3, #234	; 0xea
 8002f5e:	3bff      	subs	r3, #255	; 0xff
 8002f60:	400b      	ands	r3, r1
 8002f62:	2b01      	cmp	r3, #1
 8002f64:	d00f      	beq.n	8002f86 <USBD_LL_SetupStage+0x4e>
 8002f66:	2b00      	cmp	r3, #0
 8002f68:	d007      	beq.n	8002f7a <USBD_LL_SetupStage+0x42>
 8002f6a:	2b02      	cmp	r3, #2
 8002f6c:	d010      	beq.n	8002f90 <USBD_LL_SetupStage+0x58>
  case USB_REQ_RECIPIENT_ENDPOINT:        
    USBD_StdEPReq(pdev, &pdev->request);   
    break;
    
  default:           
    USBD_LL_StallEP(pdev , pdev->request.bmRequest & 0x80);
 8002f6e:	237f      	movs	r3, #127	; 0x7f
 8002f70:	0020      	movs	r0, r4
 8002f72:	4399      	bics	r1, r3
 8002f74:	f001 f982 	bl	800427c <USBD_LL_StallEP>
    break;
 8002f78:	e003      	b.n	8002f82 <USBD_LL_SetupStage+0x4a>
    USBD_StdDevReq (pdev, &pdev->request);
 8002f7a:	0029      	movs	r1, r5
 8002f7c:	0020      	movs	r0, r4
 8002f7e:	f000 f8f1 	bl	8003164 <USBD_StdDevReq>
  }  
  return USBD_OK;  
}
 8002f82:	2000      	movs	r0, #0
 8002f84:	bd70      	pop	{r4, r5, r6, pc}
    USBD_StdItfReq(pdev, &pdev->request);
 8002f86:	0029      	movs	r1, r5
 8002f88:	0020      	movs	r0, r4
 8002f8a:	f000 f9fd 	bl	8003388 <USBD_StdItfReq>
    break;
 8002f8e:	e7f8      	b.n	8002f82 <USBD_LL_SetupStage+0x4a>
    USBD_StdEPReq(pdev, &pdev->request);   
 8002f90:	0029      	movs	r1, r5
 8002f92:	0020      	movs	r0, r4
 8002f94:	f000 fa14 	bl	80033c0 <USBD_StdEPReq>
    break;
 8002f98:	e7f3      	b.n	8002f82 <USBD_LL_SetupStage+0x4a>
 8002f9a:	46c0      	nop			; (mov r8, r8)
 8002f9c:	0000020e 	.word	0x0000020e

08002fa0 <USBD_LL_DataOutStage>:
* @param  pdev: device instance
* @param  epnum: endpoint index
* @retval status
*/
USBD_StatusTypeDef USBD_LL_DataOutStage(USBD_HandleTypeDef *pdev , uint8_t epnum, uint8_t *pdata)
{
 8002fa0:	b570      	push	{r4, r5, r6, lr}
 8002fa2:	0004      	movs	r4, r0
 8002fa4:	0015      	movs	r5, r2
  USBD_EndpointTypeDef    *pep;
  
  if(epnum == 0) 
 8002fa6:	2900      	cmp	r1, #0
 8002fa8:	d127      	bne.n	8002ffa <USBD_LL_DataOutStage+0x5a>
  {
    pep = &pdev->ep_out[0];
    
    if ( pdev->ep0_state == USBD_EP0_DATA_OUT)
 8002faa:	23fa      	movs	r3, #250	; 0xfa
 8002fac:	005b      	lsls	r3, r3, #1
 8002fae:	58c3      	ldr	r3, [r0, r3]
 8002fb0:	2b03      	cmp	r3, #3
 8002fb2:	d10f      	bne.n	8002fd4 <USBD_LL_DataOutStage+0x34>
    {
      if(pep->rem_length > pep->maxpacket)
 8002fb4:	3005      	adds	r0, #5
 8002fb6:	30ff      	adds	r0, #255	; 0xff
 8002fb8:	6883      	ldr	r3, [r0, #8]
 8002fba:	68c2      	ldr	r2, [r0, #12]
 8002fbc:	4293      	cmp	r3, r2
 8002fbe:	d90b      	bls.n	8002fd8 <USBD_LL_DataOutStage+0x38>
      {
        pep->rem_length -=  pep->maxpacket;
 8002fc0:	1a9b      	subs	r3, r3, r2
 8002fc2:	6083      	str	r3, [r0, #8]
       
        USBD_CtlContinueRx (pdev, 
                            pdata,
                            MIN(pep->rem_length ,pep->maxpacket));
 8002fc4:	429a      	cmp	r2, r3
 8002fc6:	d900      	bls.n	8002fca <USBD_LL_DataOutStage+0x2a>
 8002fc8:	001a      	movs	r2, r3
        USBD_CtlContinueRx (pdev, 
 8002fca:	b292      	uxth	r2, r2
 8002fcc:	0029      	movs	r1, r5
 8002fce:	0020      	movs	r0, r4
 8002fd0:	f000 fabb 	bl	800354a <USBD_CtlContinueRx>
          (pdev->dev_state == USBD_STATE_CONFIGURED))
  {
    pdev->pClass->DataOut(pdev, epnum); 
  }  
  return USBD_OK;
}
 8002fd4:	2000      	movs	r0, #0
 8002fd6:	bd70      	pop	{r4, r5, r6, pc}
        if((pdev->pClass->EP0_RxReady != NULL)&&
 8002fd8:	2385      	movs	r3, #133	; 0x85
 8002fda:	009b      	lsls	r3, r3, #2
 8002fdc:	58e3      	ldr	r3, [r4, r3]
 8002fde:	691b      	ldr	r3, [r3, #16]
 8002fe0:	2b00      	cmp	r3, #0
 8002fe2:	d006      	beq.n	8002ff2 <USBD_LL_DataOutStage+0x52>
           (pdev->dev_state == USBD_STATE_CONFIGURED))
 8002fe4:	22fe      	movs	r2, #254	; 0xfe
 8002fe6:	0052      	lsls	r2, r2, #1
        if((pdev->pClass->EP0_RxReady != NULL)&&
 8002fe8:	5ca2      	ldrb	r2, [r4, r2]
 8002fea:	2a03      	cmp	r2, #3
 8002fec:	d101      	bne.n	8002ff2 <USBD_LL_DataOutStage+0x52>
          pdev->pClass->EP0_RxReady(pdev); 
 8002fee:	0020      	movs	r0, r4
 8002ff0:	4798      	blx	r3
        USBD_CtlSendStatus(pdev);
 8002ff2:	0020      	movs	r0, r4
 8002ff4:	f000 fab1 	bl	800355a <USBD_CtlSendStatus>
 8002ff8:	e7ec      	b.n	8002fd4 <USBD_LL_DataOutStage+0x34>
  else if((pdev->pClass->DataOut != NULL)&&
 8002ffa:	2385      	movs	r3, #133	; 0x85
 8002ffc:	009b      	lsls	r3, r3, #2
 8002ffe:	58c3      	ldr	r3, [r0, r3]
 8003000:	699b      	ldr	r3, [r3, #24]
 8003002:	2b00      	cmp	r3, #0
 8003004:	d0e6      	beq.n	8002fd4 <USBD_LL_DataOutStage+0x34>
          (pdev->dev_state == USBD_STATE_CONFIGURED))
 8003006:	22fe      	movs	r2, #254	; 0xfe
 8003008:	0052      	lsls	r2, r2, #1
  else if((pdev->pClass->DataOut != NULL)&&
 800300a:	5c82      	ldrb	r2, [r0, r2]
 800300c:	2a03      	cmp	r2, #3
 800300e:	d1e1      	bne.n	8002fd4 <USBD_LL_DataOutStage+0x34>
    pdev->pClass->DataOut(pdev, epnum); 
 8003010:	4798      	blx	r3
 8003012:	e7df      	b.n	8002fd4 <USBD_LL_DataOutStage+0x34>

08003014 <USBD_LL_DataInStage>:
* @param  pdev: device instance
* @param  epnum: endpoint index
* @retval status
*/
USBD_StatusTypeDef USBD_LL_DataInStage(USBD_HandleTypeDef *pdev ,uint8_t epnum, uint8_t *pdata)
{
 8003014:	b5f8      	push	{r3, r4, r5, r6, r7, lr}
 8003016:	000d      	movs	r5, r1
 8003018:	0004      	movs	r4, r0
 800301a:	0011      	movs	r1, r2
  USBD_EndpointTypeDef    *pep;
    
  if(epnum == 0) 
 800301c:	2d00      	cmp	r5, #0
 800301e:	d141      	bne.n	80030a4 <USBD_LL_DataInStage+0x90>
  {
    pep = &pdev->ep_in[0];
    
    if ( pdev->ep0_state == USBD_EP0_DATA_IN)
 8003020:	23fa      	movs	r3, #250	; 0xfa
 8003022:	005b      	lsls	r3, r3, #1
 8003024:	58c3      	ldr	r3, [r0, r3]
 8003026:	2b02      	cmp	r3, #2
 8003028:	d10e      	bne.n	8003048 <USBD_LL_DataInStage+0x34>
    {
      if(pep->rem_length > pep->maxpacket)
 800302a:	69c2      	ldr	r2, [r0, #28]
 800302c:	6a06      	ldr	r6, [r0, #32]
 800302e:	42b2      	cmp	r2, r6
 8003030:	d913      	bls.n	800305a <USBD_LL_DataInStage+0x46>
      {
        pep->rem_length -=  pep->maxpacket;
 8003032:	1b92      	subs	r2, r2, r6
 8003034:	61c2      	str	r2, [r0, #28]
        
        USBD_CtlContinueSendData (pdev, 
 8003036:	b292      	uxth	r2, r2
 8003038:	f000 fa6f 	bl	800351a <USBD_CtlContinueSendData>
          
          USBD_CtlContinueSendData(pdev , NULL, 0);
          pdev->ep0_data_len = 0;
          
        /* Prepare endpoint for premature end of transfer */
        USBD_LL_PrepareReceive (pdev,
 800303c:	002b      	movs	r3, r5
 800303e:	002a      	movs	r2, r5
 8003040:	0029      	movs	r1, r5
 8003042:	0020      	movs	r0, r4
 8003044:	f001 f96e 	bl	8004324 <USBD_LL_PrepareReceive>
          }          
          USBD_CtlReceiveStatus(pdev);
        }
      }
    }
    if (pdev->dev_test_mode == 1)
 8003048:	2380      	movs	r3, #128	; 0x80
 800304a:	009b      	lsls	r3, r3, #2
 800304c:	5ce2      	ldrb	r2, [r4, r3]
 800304e:	2a01      	cmp	r2, #1
 8003050:	d101      	bne.n	8003056 <USBD_LL_DataInStage+0x42>
    {
      USBD_RunTestMode(pdev); 
      pdev->dev_test_mode = 0;
 8003052:	2200      	movs	r2, #0
 8003054:	54e2      	strb	r2, [r4, r3]
          (pdev->dev_state == USBD_STATE_CONFIGURED))
  {
    pdev->pClass->DataIn(pdev, epnum); 
  }  
  return USBD_OK;
}
 8003056:	2000      	movs	r0, #0
 8003058:	bdf8      	pop	{r3, r4, r5, r6, r7, pc}
        if((pep->total_length % pep->maxpacket == 0) &&
 800305a:	6987      	ldr	r7, [r0, #24]
 800305c:	0031      	movs	r1, r6
 800305e:	0038      	movs	r0, r7
 8003060:	f7fd f8ec 	bl	800023c <__aeabi_uidivmod>
 8003064:	1e0d      	subs	r5, r1, #0
 8003066:	d10c      	bne.n	8003082 <USBD_LL_DataInStage+0x6e>
 8003068:	42be      	cmp	r6, r7
 800306a:	d80a      	bhi.n	8003082 <USBD_LL_DataInStage+0x6e>
             (pep->total_length < pdev->ep0_data_len ))
 800306c:	26fc      	movs	r6, #252	; 0xfc
 800306e:	0076      	lsls	r6, r6, #1
           (pep->total_length >= pep->maxpacket) &&
 8003070:	59a3      	ldr	r3, [r4, r6]
 8003072:	429f      	cmp	r7, r3
 8003074:	d205      	bcs.n	8003082 <USBD_LL_DataInStage+0x6e>
          USBD_CtlContinueSendData(pdev , NULL, 0);
 8003076:	000a      	movs	r2, r1
 8003078:	0020      	movs	r0, r4
 800307a:	f000 fa4e 	bl	800351a <USBD_CtlContinueSendData>
          pdev->ep0_data_len = 0;
 800307e:	51a5      	str	r5, [r4, r6]
 8003080:	e7dc      	b.n	800303c <USBD_LL_DataInStage+0x28>
          if((pdev->pClass->EP0_TxSent != NULL)&&
 8003082:	2385      	movs	r3, #133	; 0x85
 8003084:	009b      	lsls	r3, r3, #2
 8003086:	58e3      	ldr	r3, [r4, r3]
 8003088:	68db      	ldr	r3, [r3, #12]
 800308a:	2b00      	cmp	r3, #0
 800308c:	d006      	beq.n	800309c <USBD_LL_DataInStage+0x88>
             (pdev->dev_state == USBD_STATE_CONFIGURED))
 800308e:	22fe      	movs	r2, #254	; 0xfe
 8003090:	0052      	lsls	r2, r2, #1
          if((pdev->pClass->EP0_TxSent != NULL)&&
 8003092:	5ca2      	ldrb	r2, [r4, r2]
 8003094:	2a03      	cmp	r2, #3
 8003096:	d101      	bne.n	800309c <USBD_LL_DataInStage+0x88>
            pdev->pClass->EP0_TxSent(pdev); 
 8003098:	0020      	movs	r0, r4
 800309a:	4798      	blx	r3
          USBD_CtlReceiveStatus(pdev);
 800309c:	0020      	movs	r0, r4
 800309e:	f000 fa68 	bl	8003572 <USBD_CtlReceiveStatus>
 80030a2:	e7d1      	b.n	8003048 <USBD_LL_DataInStage+0x34>
  else if((pdev->pClass->DataIn != NULL)&& 
 80030a4:	2385      	movs	r3, #133	; 0x85
 80030a6:	009b      	lsls	r3, r3, #2
 80030a8:	58c3      	ldr	r3, [r0, r3]
 80030aa:	695b      	ldr	r3, [r3, #20]
 80030ac:	2b00      	cmp	r3, #0
 80030ae:	d0d2      	beq.n	8003056 <USBD_LL_DataInStage+0x42>
          (pdev->dev_state == USBD_STATE_CONFIGURED))
 80030b0:	22fe      	movs	r2, #254	; 0xfe
 80030b2:	0052      	lsls	r2, r2, #1
  else if((pdev->pClass->DataIn != NULL)&& 
 80030b4:	5c82      	ldrb	r2, [r0, r2]
 80030b6:	2a03      	cmp	r2, #3
 80030b8:	d1cd      	bne.n	8003056 <USBD_LL_DataInStage+0x42>
    pdev->pClass->DataIn(pdev, epnum); 
 80030ba:	0029      	movs	r1, r5
 80030bc:	4798      	blx	r3
 80030be:	e7ca      	b.n	8003056 <USBD_LL_DataInStage+0x42>

080030c0 <USBD_LL_Reset>:
*/

USBD_StatusTypeDef USBD_LL_Reset(USBD_HandleTypeDef  *pdev)
{
  /* Open EP0 OUT */
  USBD_LL_OpenEP(pdev,
 80030c0:	2200      	movs	r2, #0
{
 80030c2:	b570      	push	{r4, r5, r6, lr}
 80030c4:	0004      	movs	r4, r0
  USBD_LL_OpenEP(pdev,
 80030c6:	0011      	movs	r1, r2
 80030c8:	2340      	movs	r3, #64	; 0x40
 80030ca:	f001 f8b5 	bl	8004238 <USBD_LL_OpenEP>
              0x00,
              USBD_EP_TYPE_CTRL,
              USB_MAX_EP0_SIZE);
  
  pdev->ep_out[0].maxpacket = USB_MAX_EP0_SIZE;
 80030ce:	0023      	movs	r3, r4
 80030d0:	2540      	movs	r5, #64	; 0x40
 80030d2:	33fc      	adds	r3, #252	; 0xfc
 80030d4:	615d      	str	r5, [r3, #20]
  
  /* Open EP0 IN */
  USBD_LL_OpenEP(pdev,
 80030d6:	2200      	movs	r2, #0
 80030d8:	002b      	movs	r3, r5
 80030da:	2180      	movs	r1, #128	; 0x80
 80030dc:	0020      	movs	r0, r4
 80030de:	f001 f8ab 	bl	8004238 <USBD_LL_OpenEP>
              USBD_EP_TYPE_CTRL,
              USB_MAX_EP0_SIZE);
  
  pdev->ep_in[0].maxpacket = USB_MAX_EP0_SIZE;
  /* Upon Reset call user call back */
  pdev->dev_state = USBD_STATE_DEFAULT;
 80030e2:	23fe      	movs	r3, #254	; 0xfe
 80030e4:	2201      	movs	r2, #1
 80030e6:	005b      	lsls	r3, r3, #1
  pdev->ep_in[0].maxpacket = USB_MAX_EP0_SIZE;
 80030e8:	6225      	str	r5, [r4, #32]
  pdev->dev_state = USBD_STATE_DEFAULT;
 80030ea:	54e2      	strb	r2, [r4, r3]
  
  if (pdev->pClassData) 
 80030ec:	331c      	adds	r3, #28
 80030ee:	58e3      	ldr	r3, [r4, r3]
 80030f0:	2b00      	cmp	r3, #0
 80030f2:	d006      	beq.n	8003102 <USBD_LL_Reset+0x42>
    pdev->pClass->DeInit(pdev, pdev->dev_config);  
 80030f4:	2385      	movs	r3, #133	; 0x85
 80030f6:	009b      	lsls	r3, r3, #2
 80030f8:	58e3      	ldr	r3, [r4, r3]
 80030fa:	7921      	ldrb	r1, [r4, #4]
 80030fc:	685b      	ldr	r3, [r3, #4]
 80030fe:	0020      	movs	r0, r4
 8003100:	4798      	blx	r3
 
  
  return USBD_OK;
}
 8003102:	2000      	movs	r0, #0
 8003104:	bd70      	pop	{r4, r5, r6, pc}

08003106 <USBD_LL_SetSpeed>:
* @param  pdev: device instance
* @retval status
*/
USBD_StatusTypeDef USBD_LL_SetSpeed(USBD_HandleTypeDef  *pdev, USBD_SpeedTypeDef speed)
{
  pdev->dev_speed = speed;
 8003106:	7401      	strb	r1, [r0, #16]
  return USBD_OK;
}
 8003108:	2000      	movs	r0, #0
 800310a:	4770      	bx	lr

0800310c <USBD_LL_Suspend>:
* @retval status
*/

USBD_StatusTypeDef USBD_LL_Suspend(USBD_HandleTypeDef  *pdev)
{
  pdev->dev_old_state =  pdev->dev_state;
 800310c:	23fe      	movs	r3, #254	; 0xfe
 800310e:	22fe      	movs	r2, #254	; 0xfe
 8003110:	005b      	lsls	r3, r3, #1
 8003112:	5cc1      	ldrb	r1, [r0, r3]
 8003114:	32ff      	adds	r2, #255	; 0xff
 8003116:	5481      	strb	r1, [r0, r2]
  pdev->dev_state  = USBD_STATE_SUSPENDED;
 8003118:	3afa      	subs	r2, #250	; 0xfa
 800311a:	3aff      	subs	r2, #255	; 0xff
 800311c:	54c2      	strb	r2, [r0, r3]
  return USBD_OK;
}
 800311e:	2000      	movs	r0, #0
 8003120:	4770      	bx	lr

08003122 <USBD_LL_Resume>:
* @retval status
*/

USBD_StatusTypeDef USBD_LL_Resume(USBD_HandleTypeDef  *pdev)
{
  pdev->dev_state = pdev->dev_old_state;  
 8003122:	23fe      	movs	r3, #254	; 0xfe
 8003124:	33ff      	adds	r3, #255	; 0xff
 8003126:	5cc2      	ldrb	r2, [r0, r3]
 8003128:	3b01      	subs	r3, #1
 800312a:	54c2      	strb	r2, [r0, r3]
  return USBD_OK;
}
 800312c:	2000      	movs	r0, #0
 800312e:	4770      	bx	lr

08003130 <USBD_LL_SOF>:
* @retval status
*/

USBD_StatusTypeDef USBD_LL_SOF(USBD_HandleTypeDef  *pdev)
{
  if(pdev->dev_state == USBD_STATE_CONFIGURED)
 8003130:	23fe      	movs	r3, #254	; 0xfe
{
 8003132:	b510      	push	{r4, lr}
  if(pdev->dev_state == USBD_STATE_CONFIGURED)
 8003134:	005b      	lsls	r3, r3, #1
 8003136:	5cc3      	ldrb	r3, [r0, r3]
 8003138:	2b03      	cmp	r3, #3
 800313a:	d106      	bne.n	800314a <USBD_LL_SOF+0x1a>
  {
    if(pdev->pClass->SOF != NULL)
 800313c:	2385      	movs	r3, #133	; 0x85
 800313e:	009b      	lsls	r3, r3, #2
 8003140:	58c3      	ldr	r3, [r0, r3]
 8003142:	69db      	ldr	r3, [r3, #28]
 8003144:	2b00      	cmp	r3, #0
 8003146:	d000      	beq.n	800314a <USBD_LL_SOF+0x1a>
    {
      pdev->pClass->SOF(pdev);
 8003148:	4798      	blx	r3
    }
  }
  return USBD_OK;
}
 800314a:	2000      	movs	r0, #0
 800314c:	bd10      	pop	{r4, pc}

0800314e <USBD_CtlError.constprop.0>:
* @param  pdev: device instance
* @param  req: usb request
* @retval None
*/

void USBD_CtlError( USBD_HandleTypeDef *pdev ,
 800314e:	b510      	push	{r4, lr}
 8003150:	0004      	movs	r4, r0
                            USBD_SetupReqTypedef *req)
{
  USBD_LL_StallEP(pdev , 0x80);
 8003152:	2180      	movs	r1, #128	; 0x80
 8003154:	f001 f892 	bl	800427c <USBD_LL_StallEP>
  USBD_LL_StallEP(pdev , 0);
 8003158:	2100      	movs	r1, #0
 800315a:	0020      	movs	r0, r4
 800315c:	f001 f88e 	bl	800427c <USBD_LL_StallEP>
}
 8003160:	bd10      	pop	{r4, pc}
	...

08003164 <USBD_StdDevReq>:
{
 8003164:	b573      	push	{r0, r1, r4, r5, r6, lr}
 8003166:	0004      	movs	r4, r0
  switch (req->bRequest) 
 8003168:	7848      	ldrb	r0, [r1, #1]
{
 800316a:	000d      	movs	r5, r1
  switch (req->bRequest) 
 800316c:	2809      	cmp	r0, #9
 800316e:	d900      	bls.n	8003172 <USBD_StdDevReq+0xe>
 8003170:	e081      	b.n	8003276 <USBD_StdDevReq+0x112>
 8003172:	f7fc ffd3 	bl	800011c <__gnu_thumb1_case_uhi>
 8003176:	00d4      	.short	0x00d4
 8003178:	008000f5 	.word	0x008000f5
 800317c:	008000e7 	.word	0x008000e7
 8003180:	000a0072 	.word	0x000a0072
 8003184:	00c30080 	.word	0x00c30080
 8003188:	0095      	.short	0x0095
  switch (req->wValue >> 8)
 800318a:	884b      	ldrh	r3, [r1, #2]
 800318c:	0a18      	lsrs	r0, r3, #8
 800318e:	3801      	subs	r0, #1
 8003190:	2806      	cmp	r0, #6
 8003192:	d870      	bhi.n	8003276 <USBD_StdDevReq+0x112>
 8003194:	f7fc ffb8 	bl	8000108 <__gnu_thumb1_case_uqi>
 8003198:	6f2e1f04 	.word	0x6f2e1f04
 800319c:	4a6f      	.short	0x4a6f
 800319e:	55          	.byte	0x55
 800319f:	00          	.byte	0x00
    pbuf = pdev->pDesc->GetDeviceDescriptor(pdev->dev_speed, &len);
 80031a0:	2384      	movs	r3, #132	; 0x84
 80031a2:	466a      	mov	r2, sp
 80031a4:	009b      	lsls	r3, r3, #2
 80031a6:	58e3      	ldr	r3, [r4, r3]
 80031a8:	7c20      	ldrb	r0, [r4, #16]
 80031aa:	681b      	ldr	r3, [r3, #0]
 80031ac:	1d91      	adds	r1, r2, #6
 80031ae:	4798      	blx	r3
  if((len != 0)&& (req->wLength != 0))
 80031b0:	466b      	mov	r3, sp
 80031b2:	1d9e      	adds	r6, r3, #6
 80031b4:	8831      	ldrh	r1, [r6, #0]
 80031b6:	2900      	cmp	r1, #0
 80031b8:	d070      	beq.n	800329c <USBD_StdDevReq+0x138>
 80031ba:	88ea      	ldrh	r2, [r5, #6]
 80031bc:	2a00      	cmp	r2, #0
 80031be:	d06d      	beq.n	800329c <USBD_StdDevReq+0x138>
    len = MIN(len , req->wLength);
 80031c0:	1c0b      	adds	r3, r1, #0
 80031c2:	4291      	cmp	r1, r2
 80031c4:	d900      	bls.n	80031c8 <USBD_StdDevReq+0x64>
 80031c6:	1c13      	adds	r3, r2, #0
    USBD_CtlSendData (pdev, 
 80031c8:	0001      	movs	r1, r0
    len = MIN(len , req->wLength);
 80031ca:	b29a      	uxth	r2, r3
 80031cc:	8033      	strh	r3, [r6, #0]
    USBD_CtlSendData (pdev, 
 80031ce:	0020      	movs	r0, r4
 80031d0:	f000 f995 	bl	80034fe <USBD_CtlSendData>
 80031d4:	e062      	b.n	800329c <USBD_StdDevReq+0x138>
 80031d6:	2385      	movs	r3, #133	; 0x85
    if(pdev->dev_speed == USBD_SPEED_HIGH )   
 80031d8:	7c22      	ldrb	r2, [r4, #16]
 80031da:	009b      	lsls	r3, r3, #2
      pbuf   = (uint8_t *)pdev->pClass->GetHSConfigDescriptor(&len);
 80031dc:	58e3      	ldr	r3, [r4, r3]
    if(pdev->dev_speed == USBD_SPEED_HIGH )   
 80031de:	2a00      	cmp	r2, #0
 80031e0:	d106      	bne.n	80031f0 <USBD_StdDevReq+0x8c>
      pbuf   = (uint8_t *)pdev->pClass->GetHSConfigDescriptor(&len);
 80031e2:	6a9b      	ldr	r3, [r3, #40]	; 0x28
      pbuf   = (uint8_t *)pdev->pClass->GetFSConfigDescriptor(&len);
 80031e4:	466a      	mov	r2, sp
 80031e6:	1d90      	adds	r0, r2, #6
 80031e8:	4798      	blx	r3
      pbuf[1] = USB_DESC_TYPE_CONFIGURATION;
 80031ea:	2302      	movs	r3, #2
 80031ec:	7043      	strb	r3, [r0, #1]
 80031ee:	e7df      	b.n	80031b0 <USBD_StdDevReq+0x4c>
      pbuf   = (uint8_t *)pdev->pClass->GetFSConfigDescriptor(&len);
 80031f0:	6adb      	ldr	r3, [r3, #44]	; 0x2c
 80031f2:	e7f7      	b.n	80031e4 <USBD_StdDevReq+0x80>
    switch ((uint8_t)(req->wValue))
 80031f4:	b2d8      	uxtb	r0, r3
 80031f6:	2805      	cmp	r0, #5
 80031f8:	d83d      	bhi.n	8003276 <USBD_StdDevReq+0x112>
 80031fa:	2284      	movs	r2, #132	; 0x84
 80031fc:	0092      	lsls	r2, r2, #2
 80031fe:	7c23      	ldrb	r3, [r4, #16]
      pbuf = pdev->pDesc->GetInterfaceStrDescriptor(pdev->dev_speed, &len);
 8003200:	58a2      	ldr	r2, [r4, r2]
    switch ((uint8_t)(req->wValue))
 8003202:	f7fc ff81 	bl	8000108 <__gnu_thumb1_case_uqi>
 8003206:	0903      	.short	0x0903
 8003208:	110f0d0b 	.word	0x110f0d0b
     pbuf = pdev->pDesc->GetLangIDStrDescriptor(pdev->dev_speed, &len);        
 800320c:	6852      	ldr	r2, [r2, #4]
      pbuf = pdev->pDesc->GetInterfaceStrDescriptor(pdev->dev_speed, &len);
 800320e:	4669      	mov	r1, sp
 8003210:	0018      	movs	r0, r3
 8003212:	3106      	adds	r1, #6
 8003214:	4790      	blx	r2
 8003216:	e7cb      	b.n	80031b0 <USBD_StdDevReq+0x4c>
      pbuf = pdev->pDesc->GetManufacturerStrDescriptor(pdev->dev_speed, &len);
 8003218:	6892      	ldr	r2, [r2, #8]
 800321a:	e7f8      	b.n	800320e <USBD_StdDevReq+0xaa>
      pbuf = pdev->pDesc->GetProductStrDescriptor(pdev->dev_speed, &len);
 800321c:	68d2      	ldr	r2, [r2, #12]
 800321e:	e7f6      	b.n	800320e <USBD_StdDevReq+0xaa>
      pbuf = pdev->pDesc->GetSerialStrDescriptor(pdev->dev_speed, &len);
 8003220:	6912      	ldr	r2, [r2, #16]
 8003222:	e7f4      	b.n	800320e <USBD_StdDevReq+0xaa>
      pbuf = pdev->pDesc->GetConfigurationStrDescriptor(pdev->dev_speed, &len);
 8003224:	6952      	ldr	r2, [r2, #20]
 8003226:	e7f2      	b.n	800320e <USBD_StdDevReq+0xaa>
      pbuf = pdev->pDesc->GetInterfaceStrDescriptor(pdev->dev_speed, &len);
 8003228:	6992      	ldr	r2, [r2, #24]
 800322a:	e7f0      	b.n	800320e <USBD_StdDevReq+0xaa>
    if(pdev->dev_speed == USBD_SPEED_HIGH  )   
 800322c:	7c23      	ldrb	r3, [r4, #16]
 800322e:	2b00      	cmp	r3, #0
 8003230:	d121      	bne.n	8003276 <USBD_StdDevReq+0x112>
      pbuf   = (uint8_t *)pdev->pClass->GetDeviceQualifierDescriptor(&len);
 8003232:	2385      	movs	r3, #133	; 0x85
 8003234:	466a      	mov	r2, sp
 8003236:	009b      	lsls	r3, r3, #2
 8003238:	58e3      	ldr	r3, [r4, r3]
 800323a:	1d90      	adds	r0, r2, #6
 800323c:	6b5b      	ldr	r3, [r3, #52]	; 0x34
 800323e:	4798      	blx	r3
 8003240:	e7b6      	b.n	80031b0 <USBD_StdDevReq+0x4c>
    if(pdev->dev_speed == USBD_SPEED_HIGH  )   
 8003242:	7c23      	ldrb	r3, [r4, #16]
 8003244:	2b00      	cmp	r3, #0
 8003246:	d116      	bne.n	8003276 <USBD_StdDevReq+0x112>
      pbuf   = (uint8_t *)pdev->pClass->GetOtherSpeedConfigDescriptor(&len);
 8003248:	2385      	movs	r3, #133	; 0x85
 800324a:	466a      	mov	r2, sp
 800324c:	009b      	lsls	r3, r3, #2
 800324e:	58e3      	ldr	r3, [r4, r3]
 8003250:	1d90      	adds	r0, r2, #6
 8003252:	6b1b      	ldr	r3, [r3, #48]	; 0x30
 8003254:	4798      	blx	r3
      pbuf[1] = USB_DESC_TYPE_OTHER_SPEED_CONFIGURATION;
 8003256:	2307      	movs	r3, #7
 8003258:	e7c8      	b.n	80031ec <USBD_StdDevReq+0x88>
  if ((req->wIndex == 0) && (req->wLength == 0)) 
 800325a:	888b      	ldrh	r3, [r1, #4]
 800325c:	2b00      	cmp	r3, #0
 800325e:	d10a      	bne.n	8003276 <USBD_StdDevReq+0x112>
 8003260:	88cb      	ldrh	r3, [r1, #6]
 8003262:	2b00      	cmp	r3, #0
 8003264:	d107      	bne.n	8003276 <USBD_StdDevReq+0x112>
    if (pdev->dev_state == USBD_STATE_CONFIGURED) 
 8003266:	26fe      	movs	r6, #254	; 0xfe
    dev_addr = (uint8_t)(req->wValue) & 0x7F;     
 8003268:	884d      	ldrh	r5, [r1, #2]
 800326a:	337f      	adds	r3, #127	; 0x7f
    if (pdev->dev_state == USBD_STATE_CONFIGURED) 
 800326c:	0076      	lsls	r6, r6, #1
    dev_addr = (uint8_t)(req->wValue) & 0x7F;     
 800326e:	401d      	ands	r5, r3
    if (pdev->dev_state == USBD_STATE_CONFIGURED) 
 8003270:	5da3      	ldrb	r3, [r4, r6]
 8003272:	2b03      	cmp	r3, #3
 8003274:	d103      	bne.n	800327e <USBD_StdDevReq+0x11a>
    USBD_CtlError(pdev , req);
 8003276:	0020      	movs	r0, r4
 8003278:	f7ff ff69 	bl	800314e <USBD_CtlError.constprop.0>
    break;
 800327c:	e00e      	b.n	800329c <USBD_StdDevReq+0x138>
      pdev->dev_address = dev_addr;
 800327e:	23ff      	movs	r3, #255	; 0xff
 8003280:	005b      	lsls	r3, r3, #1
 8003282:	54e5      	strb	r5, [r4, r3]
      USBD_LL_SetUSBAddress(pdev, dev_addr);               
 8003284:	0029      	movs	r1, r5
 8003286:	0020      	movs	r0, r4
 8003288:	f001 f82c 	bl	80042e4 <USBD_LL_SetUSBAddress>
      USBD_CtlSendStatus(pdev);                         
 800328c:	0020      	movs	r0, r4
 800328e:	f000 f964 	bl	800355a <USBD_CtlSendStatus>
        pdev->dev_state  = USBD_STATE_ADDRESSED;
 8003292:	2302      	movs	r3, #2
      if (dev_addr != 0) 
 8003294:	2d00      	cmp	r5, #0
 8003296:	d100      	bne.n	800329a <USBD_StdDevReq+0x136>
        pdev->dev_state  = USBD_STATE_DEFAULT; 
 8003298:	2301      	movs	r3, #1
 800329a:	55a3      	strb	r3, [r4, r6]
}
 800329c:	2000      	movs	r0, #0
 800329e:	bd76      	pop	{r1, r2, r4, r5, r6, pc}
  cfgidx = (uint8_t)(req->wValue);                 
 80032a0:	7889      	ldrb	r1, [r1, #2]
 80032a2:	4d38      	ldr	r5, [pc, #224]	; (8003384 <USBD_StdDevReq+0x220>)
 80032a4:	7029      	strb	r1, [r5, #0]
  if (cfgidx > USBD_MAX_NUM_CONFIGURATION ) 
 80032a6:	2901      	cmp	r1, #1
 80032a8:	d8e5      	bhi.n	8003276 <USBD_StdDevReq+0x112>
    switch (pdev->dev_state) 
 80032aa:	23fe      	movs	r3, #254	; 0xfe
 80032ac:	005b      	lsls	r3, r3, #1
 80032ae:	5ce2      	ldrb	r2, [r4, r3]
 80032b0:	2a02      	cmp	r2, #2
 80032b2:	d00d      	beq.n	80032d0 <USBD_StdDevReq+0x16c>
 80032b4:	2a03      	cmp	r2, #3
 80032b6:	d1de      	bne.n	8003276 <USBD_StdDevReq+0x112>
      if (cfgidx == 0) 
 80032b8:	2900      	cmp	r1, #0
 80032ba:	d115      	bne.n	80032e8 <USBD_StdDevReq+0x184>
        pdev->dev_state = USBD_STATE_ADDRESSED;
 80032bc:	2202      	movs	r2, #2
        USBD_ClrClassConfig(pdev , cfgidx);
 80032be:	0020      	movs	r0, r4
        pdev->dev_state = USBD_STATE_ADDRESSED;
 80032c0:	54e2      	strb	r2, [r4, r3]
        pdev->dev_config = cfgidx;          
 80032c2:	6061      	str	r1, [r4, #4]
        USBD_ClrClassConfig(pdev , cfgidx);
 80032c4:	f7ff fe2f 	bl	8002f26 <USBD_ClrClassConfig>
      USBD_CtlSendStatus(pdev);
 80032c8:	0020      	movs	r0, r4
 80032ca:	f000 f946 	bl	800355a <USBD_CtlSendStatus>
 80032ce:	e7e5      	b.n	800329c <USBD_StdDevReq+0x138>
      if (cfgidx) 
 80032d0:	2900      	cmp	r1, #0
 80032d2:	d0f9      	beq.n	80032c8 <USBD_StdDevReq+0x164>
        pdev->dev_config = cfgidx;
 80032d4:	2101      	movs	r1, #1
        pdev->dev_state = USBD_STATE_CONFIGURED;
 80032d6:	2203      	movs	r2, #3
        pdev->dev_config = cfgidx;
 80032d8:	6061      	str	r1, [r4, #4]
        pdev->dev_state = USBD_STATE_CONFIGURED;
 80032da:	54e2      	strb	r2, [r4, r3]
        if(USBD_SetClassConfig(pdev , cfgidx) == USBD_FAIL)
 80032dc:	0020      	movs	r0, r4
 80032de:	f7ff fe15 	bl	8002f0c <USBD_SetClassConfig>
 80032e2:	2802      	cmp	r0, #2
 80032e4:	d1f0      	bne.n	80032c8 <USBD_StdDevReq+0x164>
 80032e6:	e7c6      	b.n	8003276 <USBD_StdDevReq+0x112>
      else  if (cfgidx != pdev->dev_config) 
 80032e8:	6861      	ldr	r1, [r4, #4]
 80032ea:	2901      	cmp	r1, #1
 80032ec:	d0ec      	beq.n	80032c8 <USBD_StdDevReq+0x164>
        USBD_ClrClassConfig(pdev , pdev->dev_config);
 80032ee:	b2c9      	uxtb	r1, r1
 80032f0:	0020      	movs	r0, r4
 80032f2:	f7ff fe18 	bl	8002f26 <USBD_ClrClassConfig>
        pdev->dev_config = cfgidx;
 80032f6:	7829      	ldrb	r1, [r5, #0]
 80032f8:	6061      	str	r1, [r4, #4]
 80032fa:	e7ef      	b.n	80032dc <USBD_StdDevReq+0x178>
  if (req->wLength != 1) 
 80032fc:	88ca      	ldrh	r2, [r1, #6]
 80032fe:	2a01      	cmp	r2, #1
 8003300:	d1b9      	bne.n	8003276 <USBD_StdDevReq+0x112>
    switch (pdev->dev_state )  
 8003302:	23fe      	movs	r3, #254	; 0xfe
 8003304:	005b      	lsls	r3, r3, #1
 8003306:	5ce3      	ldrb	r3, [r4, r3]
 8003308:	2b02      	cmp	r3, #2
 800330a:	d003      	beq.n	8003314 <USBD_StdDevReq+0x1b0>
 800330c:	2b03      	cmp	r3, #3
 800330e:	d1b2      	bne.n	8003276 <USBD_StdDevReq+0x112>
                        (uint8_t *)&pdev->dev_config,
 8003310:	1d21      	adds	r1, r4, #4
 8003312:	e75c      	b.n	80031ce <USBD_StdDevReq+0x6a>
      pdev->dev_default_config = 0;
 8003314:	2300      	movs	r3, #0
                        (uint8_t *)&pdev->dev_default_config,
 8003316:	0021      	movs	r1, r4
      pdev->dev_default_config = 0;
 8003318:	60a3      	str	r3, [r4, #8]
                        (uint8_t *)&pdev->dev_default_config,
 800331a:	3108      	adds	r1, #8
 800331c:	e757      	b.n	80031ce <USBD_StdDevReq+0x6a>
  switch (pdev->dev_state) 
 800331e:	23fe      	movs	r3, #254	; 0xfe
 8003320:	005b      	lsls	r3, r3, #1
 8003322:	5ce3      	ldrb	r3, [r4, r3]
 8003324:	3b02      	subs	r3, #2
 8003326:	2b01      	cmp	r3, #1
 8003328:	d8a5      	bhi.n	8003276 <USBD_StdDevReq+0x112>
    pdev->dev_config_status = USB_CONFIG_SELF_POWERED;                                  
 800332a:	2301      	movs	r3, #1
 800332c:	60e3      	str	r3, [r4, #12]
    if (pdev->dev_remote_wakeup) 
 800332e:	2381      	movs	r3, #129	; 0x81
 8003330:	009b      	lsls	r3, r3, #2
 8003332:	58e3      	ldr	r3, [r4, r3]
 8003334:	2b00      	cmp	r3, #0
 8003336:	d001      	beq.n	800333c <USBD_StdDevReq+0x1d8>
       pdev->dev_config_status |= USB_CONFIG_REMOTE_WAKEUP;                                
 8003338:	2303      	movs	r3, #3
 800333a:	60e3      	str	r3, [r4, #12]
                      (uint8_t *)& pdev->dev_config_status,
 800333c:	0021      	movs	r1, r4
    USBD_CtlSendData (pdev, 
 800333e:	2202      	movs	r2, #2
                      (uint8_t *)& pdev->dev_config_status,
 8003340:	310c      	adds	r1, #12
 8003342:	e744      	b.n	80031ce <USBD_StdDevReq+0x6a>
  if (req->wValue == USB_FEATURE_REMOTE_WAKEUP)
 8003344:	884b      	ldrh	r3, [r1, #2]
 8003346:	2b01      	cmp	r3, #1
 8003348:	d1a8      	bne.n	800329c <USBD_StdDevReq+0x138>
    pdev->dev_remote_wakeup = 1;  
 800334a:	2281      	movs	r2, #129	; 0x81
 800334c:	0092      	lsls	r2, r2, #2
 800334e:	50a3      	str	r3, [r4, r2]
    pdev->pClass->Setup (pdev, req);   
 8003350:	2385      	movs	r3, #133	; 0x85
 8003352:	009b      	lsls	r3, r3, #2
      pdev->pClass->Setup (pdev, req);   
 8003354:	58e3      	ldr	r3, [r4, r3]
 8003356:	0029      	movs	r1, r5
 8003358:	689b      	ldr	r3, [r3, #8]
 800335a:	0020      	movs	r0, r4
 800335c:	4798      	blx	r3
 800335e:	e7b3      	b.n	80032c8 <USBD_StdDevReq+0x164>
  switch (pdev->dev_state)
 8003360:	23fe      	movs	r3, #254	; 0xfe
 8003362:	005b      	lsls	r3, r3, #1
 8003364:	5ce3      	ldrb	r3, [r4, r3]
 8003366:	3b02      	subs	r3, #2
 8003368:	2b01      	cmp	r3, #1
 800336a:	d900      	bls.n	800336e <USBD_StdDevReq+0x20a>
 800336c:	e783      	b.n	8003276 <USBD_StdDevReq+0x112>
    if (req->wValue == USB_FEATURE_REMOTE_WAKEUP) 
 800336e:	884b      	ldrh	r3, [r1, #2]
 8003370:	2b01      	cmp	r3, #1
 8003372:	d000      	beq.n	8003376 <USBD_StdDevReq+0x212>
 8003374:	e792      	b.n	800329c <USBD_StdDevReq+0x138>
      pdev->dev_remote_wakeup = 0; 
 8003376:	2381      	movs	r3, #129	; 0x81
 8003378:	2200      	movs	r2, #0
 800337a:	009b      	lsls	r3, r3, #2
 800337c:	50e2      	str	r2, [r4, r3]
      pdev->pClass->Setup (pdev, req);   
 800337e:	3310      	adds	r3, #16
 8003380:	e7e8      	b.n	8003354 <USBD_StdDevReq+0x1f0>
 8003382:	46c0      	nop			; (mov r8, r8)
 8003384:	20000209 	.word	0x20000209

08003388 <USBD_StdItfReq>:
  switch (pdev->dev_state) 
 8003388:	23fe      	movs	r3, #254	; 0xfe
{
 800338a:	b570      	push	{r4, r5, r6, lr}
  switch (pdev->dev_state) 
 800338c:	005b      	lsls	r3, r3, #1
 800338e:	5cc3      	ldrb	r3, [r0, r3]
{
 8003390:	0004      	movs	r4, r0
 8003392:	000d      	movs	r5, r1
  switch (pdev->dev_state) 
 8003394:	2b03      	cmp	r3, #3
 8003396:	d10f      	bne.n	80033b8 <USBD_StdItfReq+0x30>
    if (LOBYTE(req->wIndex) <= USBD_MAX_NUM_INTERFACES) 
 8003398:	790b      	ldrb	r3, [r1, #4]
 800339a:	2b01      	cmp	r3, #1
 800339c:	d80c      	bhi.n	80033b8 <USBD_StdItfReq+0x30>
      pdev->pClass->Setup (pdev, req); 
 800339e:	2385      	movs	r3, #133	; 0x85
 80033a0:	009b      	lsls	r3, r3, #2
 80033a2:	58c3      	ldr	r3, [r0, r3]
 80033a4:	689b      	ldr	r3, [r3, #8]
 80033a6:	4798      	blx	r3
      if((req->wLength == 0)&& (ret == USBD_OK))
 80033a8:	88eb      	ldrh	r3, [r5, #6]
 80033aa:	2b00      	cmp	r3, #0
 80033ac:	d102      	bne.n	80033b4 <USBD_StdItfReq+0x2c>
         USBD_CtlSendStatus(pdev);
 80033ae:	0020      	movs	r0, r4
 80033b0:	f000 f8d3 	bl	800355a <USBD_CtlSendStatus>
}
 80033b4:	2000      	movs	r0, #0
 80033b6:	bd70      	pop	{r4, r5, r6, pc}
     USBD_CtlError(pdev , req);
 80033b8:	0020      	movs	r0, r4
 80033ba:	f7ff fec8 	bl	800314e <USBD_CtlError.constprop.0>
    break;
 80033be:	e7f9      	b.n	80033b4 <USBD_StdItfReq+0x2c>

080033c0 <USBD_StdEPReq>:
{
 80033c0:	b570      	push	{r4, r5, r6, lr}
 80033c2:	000d      	movs	r5, r1
 80033c4:	0004      	movs	r4, r0
  if ((req->bmRequest & 0x60) == 0x20)
 80033c6:	2060      	movs	r0, #96	; 0x60
  ep_addr  = LOBYTE(req->wIndex);   
 80033c8:	888a      	ldrh	r2, [r1, #4]
  if ((req->bmRequest & 0x60) == 0x20)
 80033ca:	782b      	ldrb	r3, [r5, #0]
  ep_addr  = LOBYTE(req->wIndex);   
 80033cc:	b2d1      	uxtb	r1, r2
  if ((req->bmRequest & 0x60) == 0x20)
 80033ce:	4003      	ands	r3, r0
 80033d0:	2b20      	cmp	r3, #32
 80033d2:	d108      	bne.n	80033e6 <USBD_StdEPReq+0x26>
    pdev->pClass->Setup (pdev, req);
 80033d4:	33f5      	adds	r3, #245	; 0xf5
 80033d6:	33ff      	adds	r3, #255	; 0xff
 80033d8:	58e3      	ldr	r3, [r4, r3]
 80033da:	0029      	movs	r1, r5
 80033dc:	689b      	ldr	r3, [r3, #8]
 80033de:	0020      	movs	r0, r4
 80033e0:	4798      	blx	r3
}
 80033e2:	2000      	movs	r0, #0
 80033e4:	bd70      	pop	{r4, r5, r6, pc}
  switch (req->bRequest) 
 80033e6:	786b      	ldrb	r3, [r5, #1]
 80033e8:	2b01      	cmp	r3, #1
 80033ea:	d021      	beq.n	8003430 <USBD_StdEPReq+0x70>
 80033ec:	2b00      	cmp	r3, #0
 80033ee:	d02f      	beq.n	8003450 <USBD_StdEPReq+0x90>
 80033f0:	2b03      	cmp	r3, #3
 80033f2:	d1f6      	bne.n	80033e2 <USBD_StdEPReq+0x22>
    switch (pdev->dev_state) 
 80033f4:	33fa      	adds	r3, #250	; 0xfa
 80033f6:	33ff      	adds	r3, #255	; 0xff
 80033f8:	5ce3      	ldrb	r3, [r4, r3]
 80033fa:	2b02      	cmp	r3, #2
 80033fc:	d043      	beq.n	8003486 <USBD_StdEPReq+0xc6>
 80033fe:	2b03      	cmp	r3, #3
 8003400:	d003      	beq.n	800340a <USBD_StdEPReq+0x4a>
      USBD_CtlError(pdev , req);
 8003402:	0020      	movs	r0, r4
 8003404:	f7ff fea3 	bl	800314e <USBD_CtlError.constprop.0>
      break;
 8003408:	e7eb      	b.n	80033e2 <USBD_StdEPReq+0x22>
      if (req->wValue == USB_FEATURE_EP_HALT)
 800340a:	886b      	ldrh	r3, [r5, #2]
 800340c:	2b00      	cmp	r3, #0
 800340e:	d104      	bne.n	800341a <USBD_StdEPReq+0x5a>
        if ((ep_addr != 0x00) && (ep_addr != 0x80)) 
 8003410:	064b      	lsls	r3, r1, #25
 8003412:	d002      	beq.n	800341a <USBD_StdEPReq+0x5a>
          USBD_LL_StallEP(pdev , ep_addr);
 8003414:	0020      	movs	r0, r4
 8003416:	f000 ff31 	bl	800427c <USBD_LL_StallEP>
          pdev->pClass->Setup (pdev, req);
 800341a:	2385      	movs	r3, #133	; 0x85
 800341c:	009b      	lsls	r3, r3, #2
 800341e:	58e3      	ldr	r3, [r4, r3]
 8003420:	0029      	movs	r1, r5
 8003422:	689b      	ldr	r3, [r3, #8]
 8003424:	0020      	movs	r0, r4
 8003426:	4798      	blx	r3
        USBD_CtlSendStatus(pdev);
 8003428:	0020      	movs	r0, r4
 800342a:	f000 f896 	bl	800355a <USBD_CtlSendStatus>
 800342e:	e7d8      	b.n	80033e2 <USBD_StdEPReq+0x22>
    switch (pdev->dev_state) 
 8003430:	23fe      	movs	r3, #254	; 0xfe
 8003432:	005b      	lsls	r3, r3, #1
 8003434:	5ce3      	ldrb	r3, [r4, r3]
 8003436:	2b02      	cmp	r3, #2
 8003438:	d025      	beq.n	8003486 <USBD_StdEPReq+0xc6>
 800343a:	2b03      	cmp	r3, #3
 800343c:	d1e1      	bne.n	8003402 <USBD_StdEPReq+0x42>
      if (req->wValue == USB_FEATURE_EP_HALT)
 800343e:	886b      	ldrh	r3, [r5, #2]
 8003440:	2b00      	cmp	r3, #0
 8003442:	d1ce      	bne.n	80033e2 <USBD_StdEPReq+0x22>
        if ((ep_addr & 0x7F) != 0x00) 
 8003444:	064b      	lsls	r3, r1, #25
 8003446:	d0ef      	beq.n	8003428 <USBD_StdEPReq+0x68>
          USBD_LL_ClearStallEP(pdev , ep_addr);
 8003448:	0020      	movs	r0, r4
 800344a:	f000 ff27 	bl	800429c <USBD_LL_ClearStallEP>
 800344e:	e7e4      	b.n	800341a <USBD_StdEPReq+0x5a>
    switch (pdev->dev_state) 
 8003450:	23fe      	movs	r3, #254	; 0xfe
 8003452:	005b      	lsls	r3, r3, #1
 8003454:	5ce3      	ldrb	r3, [r4, r3]
 8003456:	2b02      	cmp	r3, #2
 8003458:	d015      	beq.n	8003486 <USBD_StdEPReq+0xc6>
 800345a:	2b03      	cmp	r3, #3
 800345c:	d1d1      	bne.n	8003402 <USBD_StdEPReq+0x42>
 800345e:	257f      	movs	r5, #127	; 0x7f
      pep = ((ep_addr & 0x80) == 0x80) ? &pdev->ep_in[ep_addr & 0x7F]:\
 8003460:	400d      	ands	r5, r1
 8003462:	012d      	lsls	r5, r5, #4
 8003464:	0613      	lsls	r3, r2, #24
 8003466:	d514      	bpl.n	8003492 <USBD_StdEPReq+0xd2>
 8003468:	3514      	adds	r5, #20
      if(USBD_LL_IsStallEP(pdev, ep_addr))
 800346a:	0020      	movs	r0, r4
      pep = ((ep_addr & 0x80) == 0x80) ? &pdev->ep_in[ep_addr & 0x7F]:\
 800346c:	1965      	adds	r5, r4, r5
      if(USBD_LL_IsStallEP(pdev, ep_addr))
 800346e:	f000 ff25 	bl	80042bc <USBD_LL_IsStallEP>
 8003472:	2800      	cmp	r0, #0
 8003474:	d010      	beq.n	8003498 <USBD_StdEPReq+0xd8>
        pep->status = 0x0001;     
 8003476:	2301      	movs	r3, #1
 8003478:	602b      	str	r3, [r5, #0]
      USBD_CtlSendData (pdev,
 800347a:	2202      	movs	r2, #2
 800347c:	0029      	movs	r1, r5
 800347e:	0020      	movs	r0, r4
 8003480:	f000 f83d 	bl	80034fe <USBD_CtlSendData>
      break;
 8003484:	e7ad      	b.n	80033e2 <USBD_StdEPReq+0x22>
      if ((ep_addr & 0x7F) != 0x00) 
 8003486:	064b      	lsls	r3, r1, #25
 8003488:	d0ab      	beq.n	80033e2 <USBD_StdEPReq+0x22>
        USBD_LL_StallEP(pdev , ep_addr);
 800348a:	0020      	movs	r0, r4
 800348c:	f000 fef6 	bl	800427c <USBD_LL_StallEP>
 8003490:	e7a7      	b.n	80033e2 <USBD_StdEPReq+0x22>
      pep = ((ep_addr & 0x80) == 0x80) ? &pdev->ep_in[ep_addr & 0x7F]:\
 8003492:	3505      	adds	r5, #5
 8003494:	35ff      	adds	r5, #255	; 0xff
 8003496:	e7e8      	b.n	800346a <USBD_StdEPReq+0xaa>
        pep->status = 0x0000;  
 8003498:	6028      	str	r0, [r5, #0]
 800349a:	e7ee      	b.n	800347a <USBD_StdEPReq+0xba>

0800349c <USBD_ParseSetupRequest>:
  req->bmRequest     = *(uint8_t *)  (pdata);
 800349c:	780b      	ldrb	r3, [r1, #0]
 800349e:	7003      	strb	r3, [r0, #0]
  req->bRequest      = *(uint8_t *)  (pdata +  1);
 80034a0:	784b      	ldrb	r3, [r1, #1]
 80034a2:	7043      	strb	r3, [r0, #1]
  req->wValue        = SWAPBYTE      (pdata +  2);
 80034a4:	78ca      	ldrb	r2, [r1, #3]
 80034a6:	788b      	ldrb	r3, [r1, #2]
 80034a8:	0212      	lsls	r2, r2, #8
 80034aa:	189b      	adds	r3, r3, r2
 80034ac:	8043      	strh	r3, [r0, #2]
  req->wIndex        = SWAPBYTE      (pdata +  4);
 80034ae:	794a      	ldrb	r2, [r1, #5]
 80034b0:	790b      	ldrb	r3, [r1, #4]
 80034b2:	0212      	lsls	r2, r2, #8
 80034b4:	189b      	adds	r3, r3, r2
 80034b6:	8083      	strh	r3, [r0, #4]
  req->wLength       = SWAPBYTE      (pdata +  6);
 80034b8:	79ca      	ldrb	r2, [r1, #7]
 80034ba:	798b      	ldrb	r3, [r1, #6]
 80034bc:	0212      	lsls	r2, r2, #8
 80034be:	189b      	adds	r3, r3, r2
 80034c0:	80c3      	strh	r3, [r0, #6]
}
 80034c2:	4770      	bx	lr

080034c4 <USBD_GetString>:
  * @param  unicode : Formatted string buffer (unicode)
  * @param  len : descriptor length
  * @retval None
  */
void USBD_GetString(uint8_t *desc, uint8_t *unicode, uint16_t *len)
{
 80034c4:	2300      	movs	r3, #0
 80034c6:	b530      	push	{r4, r5, lr}
  uint8_t idx = 0;
  
  if (desc != NULL) 
 80034c8:	4298      	cmp	r0, r3
 80034ca:	d101      	bne.n	80034d0 <USBD_GetString+0xc>
    {
      unicode[idx++] = *desc++;
      unicode[idx++] =  0x00;
    }
  } 
}
 80034cc:	bd30      	pop	{r4, r5, pc}
  */
static uint8_t USBD_GetLen(uint8_t *buf)
{
    uint8_t  len = 0;

    while (*buf != '\0') 
 80034ce:	002b      	movs	r3, r5
 80034d0:	5cc4      	ldrb	r4, [r0, r3]
 80034d2:	1c5d      	adds	r5, r3, #1
 80034d4:	2c00      	cmp	r4, #0
 80034d6:	d1fa      	bne.n	80034ce <USBD_GetString+0xa>
    *len =  USBD_GetLen(desc) * 2 + 2;    
 80034d8:	b2db      	uxtb	r3, r3
 80034da:	005b      	lsls	r3, r3, #1
 80034dc:	3302      	adds	r3, #2
 80034de:	8013      	strh	r3, [r2, #0]
    unicode[idx++] = *len;
 80034e0:	700b      	strb	r3, [r1, #0]
    unicode[idx++] =  USB_DESC_TYPE_STRING;
 80034e2:	2303      	movs	r3, #3
 80034e4:	704b      	strb	r3, [r1, #1]
 80034e6:	3b01      	subs	r3, #1
    while (*desc != '\0') 
 80034e8:	7805      	ldrb	r5, [r0, #0]
 80034ea:	2d00      	cmp	r5, #0
 80034ec:	d0ee      	beq.n	80034cc <USBD_GetString+0x8>
      unicode[idx++] = *desc++;
 80034ee:	1c5a      	adds	r2, r3, #1
 80034f0:	54cd      	strb	r5, [r1, r3]
 80034f2:	b2d2      	uxtb	r2, r2
      unicode[idx++] =  0x00;
 80034f4:	3302      	adds	r3, #2
      unicode[idx++] = *desc++;
 80034f6:	3001      	adds	r0, #1
      unicode[idx++] =  0x00;
 80034f8:	b2db      	uxtb	r3, r3
 80034fa:	548c      	strb	r4, [r1, r2]
 80034fc:	e7f4      	b.n	80034e8 <USBD_GetString+0x24>

080034fe <USBD_CtlSendData>:
* @retval status
*/
USBD_StatusTypeDef  USBD_CtlSendData (USBD_HandleTypeDef  *pdev, 
                               uint8_t *pbuf,
                               uint16_t len)
{
 80034fe:	0013      	movs	r3, r2
  /* Set EP0 State */
  pdev->ep0_state          = USBD_EP0_DATA_IN;                                      
 8003500:	22fa      	movs	r2, #250	; 0xfa
{
 8003502:	b510      	push	{r4, lr}
  pdev->ep0_state          = USBD_EP0_DATA_IN;                                      
 8003504:	2402      	movs	r4, #2
 8003506:	0052      	lsls	r2, r2, #1
 8003508:	5084      	str	r4, [r0, r2]
  pdev->ep_in[0].total_length = len;
  pdev->ep_in[0].rem_length   = len;
 /* Start the transfer */
  USBD_LL_Transmit (pdev, 0x00, pbuf, len);  
 800350a:	000a      	movs	r2, r1
  pdev->ep_in[0].total_length = len;
 800350c:	6183      	str	r3, [r0, #24]
  pdev->ep_in[0].rem_length   = len;
 800350e:	61c3      	str	r3, [r0, #28]
  USBD_LL_Transmit (pdev, 0x00, pbuf, len);  
 8003510:	2100      	movs	r1, #0
 8003512:	f000 fef7 	bl	8004304 <USBD_LL_Transmit>
  
  return USBD_OK;
}
 8003516:	2000      	movs	r0, #0
 8003518:	bd10      	pop	{r4, pc}

0800351a <USBD_CtlContinueSendData>:
* @retval status
*/
USBD_StatusTypeDef  USBD_CtlContinueSendData (USBD_HandleTypeDef  *pdev, 
                                       uint8_t *pbuf,
                                       uint16_t len)
{
 800351a:	b510      	push	{r4, lr}
 800351c:	0013      	movs	r3, r2
 /* Start the next transfer */
  USBD_LL_Transmit (pdev, 0x00, pbuf, len);   
 800351e:	000a      	movs	r2, r1
 8003520:	2100      	movs	r1, #0
 8003522:	f000 feef 	bl	8004304 <USBD_LL_Transmit>
  
  return USBD_OK;
}
 8003526:	2000      	movs	r0, #0
 8003528:	bd10      	pop	{r4, pc}

0800352a <USBD_CtlPrepareRx>:
* @retval status
*/
USBD_StatusTypeDef  USBD_CtlPrepareRx (USBD_HandleTypeDef  *pdev,
                                  uint8_t *pbuf,                                  
                                  uint16_t len)
{
 800352a:	0013      	movs	r3, r2
  /* Set EP0 State */
  pdev->ep0_state = USBD_EP0_DATA_OUT; 
 800352c:	22fa      	movs	r2, #250	; 0xfa
{
 800352e:	b510      	push	{r4, lr}
  pdev->ep0_state = USBD_EP0_DATA_OUT; 
 8003530:	2403      	movs	r4, #3
 8003532:	0052      	lsls	r2, r2, #1
 8003534:	5084      	str	r4, [r0, r2]
  pdev->ep_out[0].total_length = len;
 8003536:	0002      	movs	r2, r0
 8003538:	32fc      	adds	r2, #252	; 0xfc
 800353a:	60d3      	str	r3, [r2, #12]
  pdev->ep_out[0].rem_length   = len;
 800353c:	6113      	str	r3, [r2, #16]
  /* Start the transfer */
  USBD_LL_PrepareReceive (pdev,
 800353e:	000a      	movs	r2, r1
 8003540:	2100      	movs	r1, #0
 8003542:	f000 feef 	bl	8004324 <USBD_LL_PrepareReceive>
                          0,
                          pbuf,
                         len);
  
  return USBD_OK;
}
 8003546:	2000      	movs	r0, #0
 8003548:	bd10      	pop	{r4, pc}

0800354a <USBD_CtlContinueRx>:
* @retval status
*/
USBD_StatusTypeDef  USBD_CtlContinueRx (USBD_HandleTypeDef  *pdev, 
                                          uint8_t *pbuf,                                          
                                          uint16_t len)
{
 800354a:	b510      	push	{r4, lr}
 800354c:	0013      	movs	r3, r2

  USBD_LL_PrepareReceive (pdev,
 800354e:	000a      	movs	r2, r1
 8003550:	2100      	movs	r1, #0
 8003552:	f000 fee7 	bl	8004324 <USBD_LL_PrepareReceive>
                          0,                     
                          pbuf,                         
                          len);
  return USBD_OK;
}
 8003556:	2000      	movs	r0, #0
 8003558:	bd10      	pop	{r4, pc}

0800355a <USBD_CtlSendStatus>:
*/
USBD_StatusTypeDef  USBD_CtlSendStatus (USBD_HandleTypeDef  *pdev)
{

  /* Set EP0 State */
  pdev->ep0_state = USBD_EP0_STATUS_IN;
 800355a:	23fa      	movs	r3, #250	; 0xfa
 800355c:	2204      	movs	r2, #4
 800355e:	005b      	lsls	r3, r3, #1
{
 8003560:	b510      	push	{r4, lr}
  pdev->ep0_state = USBD_EP0_STATUS_IN;
 8003562:	50c2      	str	r2, [r0, r3]
  
 /* Start the transfer */
  USBD_LL_Transmit (pdev, 0x00, NULL, 0);   
 8003564:	2300      	movs	r3, #0
 8003566:	001a      	movs	r2, r3
 8003568:	0019      	movs	r1, r3
 800356a:	f000 fecb 	bl	8004304 <USBD_LL_Transmit>
  
  return USBD_OK;
}
 800356e:	2000      	movs	r0, #0
 8003570:	bd10      	pop	{r4, pc}

08003572 <USBD_CtlReceiveStatus>:
* @retval status
*/
USBD_StatusTypeDef  USBD_CtlReceiveStatus (USBD_HandleTypeDef  *pdev)
{
  /* Set EP0 State */
  pdev->ep0_state = USBD_EP0_STATUS_OUT; 
 8003572:	23fa      	movs	r3, #250	; 0xfa
 8003574:	2205      	movs	r2, #5
 8003576:	005b      	lsls	r3, r3, #1
{
 8003578:	b510      	push	{r4, lr}
  pdev->ep0_state = USBD_EP0_STATUS_OUT; 
 800357a:	50c2      	str	r2, [r0, r3]
  
 /* Start the transfer */  
  USBD_LL_PrepareReceive ( pdev,
 800357c:	2300      	movs	r3, #0
 800357e:	001a      	movs	r2, r3
 8003580:	0019      	movs	r1, r3
 8003582:	f000 fecf 	bl	8004324 <USBD_LL_PrepareReceive>
                    0,
                    NULL,
                    0);  

  return USBD_OK;
}
 8003586:	2000      	movs	r0, #0
 8003588:	bd10      	pop	{r4, pc}

0800358a <osKernelStart>:
* @param  argument      pointer that is passed to the thread function as start argument.
* @retval status code that indicates the execution status of the function
* @note   MUST REMAIN UNCHANGED: \b osKernelStart shall be consistent in every CMSIS-RTOS.
*/
osStatus osKernelStart (void)
{
 800358a:	b510      	push	{r4, lr}
  vTaskStartScheduler();
 800358c:	f000 fb0c 	bl	8003ba8 <vTaskStartScheduler>
  
  return osOK;
}
 8003590:	2000      	movs	r0, #0
 8003592:	bd10      	pop	{r4, pc}

08003594 <osThreadCreate>:
* @param  argument      pointer that is passed to the thread function as start argument.
* @retval thread ID for reference by other functions or NULL in case of error.
* @note   MUST REMAIN UNCHANGED: \b osThreadCreate shall be consistent in every CMSIS-RTOS.
*/
osThreadId osThreadCreate (const osThreadDef_t *thread_def, void *argument)
{
 8003594:	b57f      	push	{r0, r1, r2, r3, r4, r5, r6, lr}
 8003596:	000b      	movs	r3, r1

    handle = xTaskCreateStatic((TaskFunction_t)thread_def->pthread,(const portCHAR *)thread_def->name,
              thread_def->stacksize, argument, makeFreeRtosPriority(thread_def->tpriority),
              thread_def->buffer, thread_def->controlblock);
#else
  if (xTaskCreate((TaskFunction_t)thread_def->pthread,(const portCHAR *)thread_def->name,
 8003598:	6846      	ldr	r6, [r0, #4]
 800359a:	6801      	ldr	r1, [r0, #0]
 800359c:	8a02      	ldrh	r2, [r0, #16]
 800359e:	2508      	movs	r5, #8
 80035a0:	5f45      	ldrsh	r5, [r0, r5]
  unsigned portBASE_TYPE fpriority = tskIDLE_PRIORITY;
 80035a2:	2400      	movs	r4, #0
  if (priority != osPriorityError) {
 80035a4:	2d84      	cmp	r5, #132	; 0x84
 80035a6:	d000      	beq.n	80035aa <osThreadCreate+0x16>
    fpriority += (priority - osPriorityIdle);
 80035a8:	1cec      	adds	r4, r5, #3
  if (xTaskCreate((TaskFunction_t)thread_def->pthread,(const portCHAR *)thread_def->name,
 80035aa:	a803      	add	r0, sp, #12
 80035ac:	9001      	str	r0, [sp, #4]
 80035ae:	9400      	str	r4, [sp, #0]
 80035b0:	0030      	movs	r0, r6
 80035b2:	f000 fa35 	bl	8003a20 <xTaskCreate>
                   thread_def->stacksize, argument, makeFreeRtosPriority(thread_def->tpriority),
                   &handle) != pdPASS)  {
    return NULL;
 80035b6:	2300      	movs	r3, #0
  if (xTaskCreate((TaskFunction_t)thread_def->pthread,(const portCHAR *)thread_def->name,
 80035b8:	2801      	cmp	r0, #1
 80035ba:	d100      	bne.n	80035be <osThreadCreate+0x2a>
  }     
#endif
  
  return handle;
 80035bc:	9b03      	ldr	r3, [sp, #12]
}
 80035be:	0018      	movs	r0, r3
 80035c0:	b004      	add	sp, #16
 80035c2:	bd70      	pop	{r4, r5, r6, pc}

080035c4 <osDelay>:
* @brief   Wait for Timeout (Time Delay)
* @param   millisec      time delay value
* @retval  status code that indicates the execution status of the function.
*/
osStatus osDelay (uint32_t millisec)
{
 80035c4:	b510      	push	{r4, lr}
#if INCLUDE_vTaskDelay
  TickType_t ticks = millisec / portTICK_PERIOD_MS;
  
  vTaskDelay(ticks ? ticks : 1);          /* Minimum delay = 1 tick */
 80035c6:	2800      	cmp	r0, #0
 80035c8:	d100      	bne.n	80035cc <osDelay+0x8>
 80035ca:	3001      	adds	r0, #1
 80035cc:	f000 fc04 	bl	8003dd8 <vTaskDelay>
#else
  (void) millisec;
  
  return osErrorResource;
#endif
}
 80035d0:	2000      	movs	r0, #0
 80035d2:	bd10      	pop	{r4, pc}

080035d4 <vListInitialise>:
void vListInitialise( List_t * const pxList )
{
	/* The list structure contains a list item which is used to mark the
	end of the list.  To initialise the list the list end is inserted
	as the only list entry. */
	pxList->pxIndex = ( ListItem_t * ) &( pxList->xListEnd );			/*lint !e826 !e740 The mini list structure is used as the list end to save RAM.  This is checked and valid. */
 80035d4:	0003      	movs	r3, r0

	/* The list end value is the highest possible value in the list to
	ensure it remains at the end of the list. */
	pxList->xListEnd.xItemValue = portMAX_DELAY;
 80035d6:	2201      	movs	r2, #1
	pxList->pxIndex = ( ListItem_t * ) &( pxList->xListEnd );			/*lint !e826 !e740 The mini list structure is used as the list end to save RAM.  This is checked and valid. */
 80035d8:	3308      	adds	r3, #8
 80035da:	6043      	str	r3, [r0, #4]

	/* The list end next and previous pointers point to itself so we know
	when the list is empty. */
	pxList->xListEnd.pxNext = ( ListItem_t * ) &( pxList->xListEnd );	/*lint !e826 !e740 The mini list structure is used as the list end to save RAM.  This is checked and valid. */
 80035dc:	60c3      	str	r3, [r0, #12]
	pxList->xListEnd.pxPrevious = ( ListItem_t * ) &( pxList->xListEnd );/*lint !e826 !e740 The mini list structure is used as the list end to save RAM.  This is checked and valid. */
 80035de:	6103      	str	r3, [r0, #16]

	pxList->uxNumberOfItems = ( UBaseType_t ) 0U;
 80035e0:	2300      	movs	r3, #0
	pxList->xListEnd.xItemValue = portMAX_DELAY;
 80035e2:	4252      	negs	r2, r2
 80035e4:	6082      	str	r2, [r0, #8]
	pxList->uxNumberOfItems = ( UBaseType_t ) 0U;
 80035e6:	6003      	str	r3, [r0, #0]

	/* Write known values into the list if
	configUSE_LIST_DATA_INTEGRITY_CHECK_BYTES is set to 1. */
	listSET_LIST_INTEGRITY_CHECK_1_VALUE( pxList );
	listSET_LIST_INTEGRITY_CHECK_2_VALUE( pxList );
}
 80035e8:	4770      	bx	lr

080035ea <vListInitialiseItem>:
/*-----------------------------------------------------------*/

void vListInitialiseItem( ListItem_t * const pxItem )
{
	/* Make sure the list item is not recorded as being on a list. */
	pxItem->pvContainer = NULL;
 80035ea:	2300      	movs	r3, #0
 80035ec:	6103      	str	r3, [r0, #16]

	/* Write known values into the list item if
	configUSE_LIST_DATA_INTEGRITY_CHECK_BYTES is set to 1. */
	listSET_FIRST_LIST_ITEM_INTEGRITY_CHECK_VALUE( pxItem );
	listSET_SECOND_LIST_ITEM_INTEGRITY_CHECK_VALUE( pxItem );
}
 80035ee:	4770      	bx	lr

080035f0 <vListInsertEnd>:
/*-----------------------------------------------------------*/

void vListInsertEnd( List_t * const pxList, ListItem_t * const pxNewListItem )
{
ListItem_t * const pxIndex = pxList->pxIndex;
 80035f0:	6843      	ldr	r3, [r0, #4]

	/* Insert a new list item into pxList, but rather than sort the list,
	makes the new list item the last item to be removed by a call to
	listGET_OWNER_OF_NEXT_ENTRY(). */
	pxNewListItem->pxNext = pxIndex;
	pxNewListItem->pxPrevious = pxIndex->pxPrevious;
 80035f2:	689a      	ldr	r2, [r3, #8]
	pxNewListItem->pxNext = pxIndex;
 80035f4:	604b      	str	r3, [r1, #4]
	pxNewListItem->pxPrevious = pxIndex->pxPrevious;
 80035f6:	608a      	str	r2, [r1, #8]

	/* Only used during decision coverage testing. */
	mtCOVERAGE_TEST_DELAY();

	pxIndex->pxPrevious->pxNext = pxNewListItem;
 80035f8:	689a      	ldr	r2, [r3, #8]
 80035fa:	6051      	str	r1, [r2, #4]
	pxIndex->pxPrevious = pxNewListItem;
 80035fc:	6099      	str	r1, [r3, #8]

	/* Remember which list the item is in. */
	pxNewListItem->pvContainer = ( void * ) pxList;

	( pxList->uxNumberOfItems )++;
 80035fe:	6803      	ldr	r3, [r0, #0]
	pxNewListItem->pvContainer = ( void * ) pxList;
 8003600:	6108      	str	r0, [r1, #16]
	( pxList->uxNumberOfItems )++;
 8003602:	3301      	adds	r3, #1
 8003604:	6003      	str	r3, [r0, #0]
}
 8003606:	4770      	bx	lr

08003608 <vListInsert>:
			4) Using a queue or semaphore before it has been initialised or
			   before the scheduler has been started (are interrupts firing
			   before vTaskStartScheduler() has been called?).
		**********************************************************************/

		for( pxIterator = ( ListItem_t * ) &( pxList->xListEnd ); pxIterator->pxNext->xItemValue <= xValueOfInsertion; pxIterator = pxIterator->pxNext ) /*lint !e826 !e740 The mini list structure is used as the list end to save RAM.  This is checked and valid. */
 8003608:	0003      	movs	r3, r0
const TickType_t xValueOfInsertion = pxNewListItem->xItemValue;
 800360a:	680a      	ldr	r2, [r1, #0]
{
 800360c:	b530      	push	{r4, r5, lr}
		for( pxIterator = ( ListItem_t * ) &( pxList->xListEnd ); pxIterator->pxNext->xItemValue <= xValueOfInsertion; pxIterator = pxIterator->pxNext ) /*lint !e826 !e740 The mini list structure is used as the list end to save RAM.  This is checked and valid. */
 800360e:	3308      	adds	r3, #8
	if( xValueOfInsertion == portMAX_DELAY )
 8003610:	1c54      	adds	r4, r2, #1
 8003612:	d10b      	bne.n	800362c <vListInsert+0x24>
		pxIterator = pxList->xListEnd.pxPrevious;
 8003614:	6903      	ldr	r3, [r0, #16]
			/* There is nothing to do here, just iterating to the wanted
			insertion position. */
		}
	}

	pxNewListItem->pxNext = pxIterator->pxNext;
 8003616:	685a      	ldr	r2, [r3, #4]
 8003618:	604a      	str	r2, [r1, #4]
	pxNewListItem->pxNext->pxPrevious = pxNewListItem;
 800361a:	6091      	str	r1, [r2, #8]
	pxNewListItem->pxPrevious = pxIterator;
 800361c:	608b      	str	r3, [r1, #8]
	pxIterator->pxNext = pxNewListItem;
 800361e:	6059      	str	r1, [r3, #4]

	/* Remember which list the item is in.  This allows fast removal of the
	item later. */
	pxNewListItem->pvContainer = ( void * ) pxList;

	( pxList->uxNumberOfItems )++;
 8003620:	6803      	ldr	r3, [r0, #0]
	pxNewListItem->pvContainer = ( void * ) pxList;
 8003622:	6108      	str	r0, [r1, #16]
	( pxList->uxNumberOfItems )++;
 8003624:	3301      	adds	r3, #1
 8003626:	6003      	str	r3, [r0, #0]
}
 8003628:	bd30      	pop	{r4, r5, pc}
 800362a:	0023      	movs	r3, r4
		for( pxIterator = ( ListItem_t * ) &( pxList->xListEnd ); pxIterator->pxNext->xItemValue <= xValueOfInsertion; pxIterator = pxIterator->pxNext ) /*lint !e826 !e740 The mini list structure is used as the list end to save RAM.  This is checked and valid. */
 800362c:	685c      	ldr	r4, [r3, #4]
 800362e:	6825      	ldr	r5, [r4, #0]
 8003630:	42aa      	cmp	r2, r5
 8003632:	d2fa      	bcs.n	800362a <vListInsert+0x22>
 8003634:	e7ef      	b.n	8003616 <vListInsert+0xe>

08003636 <uxListRemove>:
{
/* The list item knows which list it is in.  Obtain the list from the list
item. */
List_t * const pxList = ( List_t * ) pxItemToRemove->pvContainer;

	pxItemToRemove->pxNext->pxPrevious = pxItemToRemove->pxPrevious;
 8003636:	6841      	ldr	r1, [r0, #4]
 8003638:	6882      	ldr	r2, [r0, #8]
List_t * const pxList = ( List_t * ) pxItemToRemove->pvContainer;
 800363a:	6903      	ldr	r3, [r0, #16]
	pxItemToRemove->pxNext->pxPrevious = pxItemToRemove->pxPrevious;
 800363c:	608a      	str	r2, [r1, #8]
	pxItemToRemove->pxPrevious->pxNext = pxItemToRemove->pxNext;
 800363e:	6882      	ldr	r2, [r0, #8]
 8003640:	6051      	str	r1, [r2, #4]

	/* Only used during decision coverage testing. */
	mtCOVERAGE_TEST_DELAY();

	/* Make sure the index is left pointing to a valid item. */
	if( pxList->pxIndex == pxItemToRemove )
 8003642:	6859      	ldr	r1, [r3, #4]
 8003644:	4288      	cmp	r0, r1
 8003646:	d100      	bne.n	800364a <uxListRemove+0x14>
	{
		pxList->pxIndex = pxItemToRemove->pxPrevious;
 8003648:	605a      	str	r2, [r3, #4]
	else
	{
		mtCOVERAGE_TEST_MARKER();
	}

	pxItemToRemove->pvContainer = NULL;
 800364a:	2200      	movs	r2, #0
 800364c:	6102      	str	r2, [r0, #16]
	( pxList->uxNumberOfItems )--;
 800364e:	681a      	ldr	r2, [r3, #0]
 8003650:	1e50      	subs	r0, r2, #1
 8003652:	6018      	str	r0, [r3, #0]

	return pxList->uxNumberOfItems;
}
 8003654:	4770      	bx	lr
	...

08003658 <prvTaskExitError>:
	its caller as there is nothing to return to.  If a task wants to exit it
	should instead call vTaskDelete( NULL ).

	Artificially force an assert() to be triggered if configASSERT() is
	defined, then stop here so application writers can catch the error. */
	configASSERT( uxCriticalNesting == ~0UL );
 8003658:	4b03      	ldr	r3, [pc, #12]	; (8003668 <prvTaskExitError+0x10>)
 800365a:	681b      	ldr	r3, [r3, #0]
 800365c:	3301      	adds	r3, #1
 800365e:	d001      	beq.n	8003664 <prvTaskExitError+0xc>
 8003660:	b672      	cpsid	i
 8003662:	e7fe      	b.n	8003662 <prvTaskExitError+0xa>
	portDISABLE_INTERRUPTS();
 8003664:	b672      	cpsid	i
 8003666:	e7fe      	b.n	8003666 <prvTaskExitError+0xe>
 8003668:	20000120 	.word	0x20000120
 800366c:	00000000 	.word	0x00000000

08003670 <vPortStartFirstTask>:
void vPortStartFirstTask( void )
{
	/* The MSP stack is not reset as, unlike on M3/4 parts, there is no vector
	table offset register that can be used to locate the initial stack value.
	Not all M0 parts have the application vector table at address 0. */
	__asm volatile(
 8003670:	4a0b      	ldr	r2, [pc, #44]	; (80036a0 <pxCurrentTCBConst2>)
 8003672:	6813      	ldr	r3, [r2, #0]
 8003674:	6818      	ldr	r0, [r3, #0]
 8003676:	3020      	adds	r0, #32
 8003678:	f380 8809 	msr	PSP, r0
 800367c:	2002      	movs	r0, #2
 800367e:	f380 8814 	msr	CONTROL, r0
 8003682:	f3bf 8f6f 	isb	sy
 8003686:	bc3f      	pop	{r0, r1, r2, r3, r4, r5}
 8003688:	46ae      	mov	lr, r5
 800368a:	bc08      	pop	{r3}
 800368c:	bc04      	pop	{r2}
 800368e:	b662      	cpsie	i
 8003690:	4718      	bx	r3
 8003692:	46c0      	nop			; (mov r8, r8)
 8003694:	46c0      	nop			; (mov r8, r8)
 8003696:	46c0      	nop			; (mov r8, r8)
 8003698:	46c0      	nop			; (mov r8, r8)
 800369a:	46c0      	nop			; (mov r8, r8)
 800369c:	46c0      	nop			; (mov r8, r8)
 800369e:	46c0      	nop			; (mov r8, r8)

080036a0 <pxCurrentTCBConst2>:
 80036a0:	20000e24 	.word	0x20000e24

080036a4 <pxPortInitialiseStack>:
{
 80036a4:	b510      	push	{r4, lr}
	*pxTopOfStack = portINITIAL_XPSR;	/* xPSR */
 80036a6:	2480      	movs	r4, #128	; 0x80
 80036a8:	1f03      	subs	r3, r0, #4
 80036aa:	0464      	lsls	r4, r4, #17
 80036ac:	601c      	str	r4, [r3, #0]
	*pxTopOfStack = ( StackType_t ) pxCode;	/* PC */
 80036ae:	3b04      	subs	r3, #4
 80036b0:	6019      	str	r1, [r3, #0]
	*pxTopOfStack = ( StackType_t ) portTASK_RETURN_ADDRESS;	/* LR */
 80036b2:	4903      	ldr	r1, [pc, #12]	; (80036c0 <pxPortInitialiseStack+0x1c>)
 80036b4:	3b04      	subs	r3, #4
 80036b6:	6019      	str	r1, [r3, #0]
	*pxTopOfStack = ( StackType_t ) pvParameters;	/* R0 */
 80036b8:	3b14      	subs	r3, #20
	pxTopOfStack -= 8; /* R11..R4. */
 80036ba:	3840      	subs	r0, #64	; 0x40
	*pxTopOfStack = ( StackType_t ) pvParameters;	/* R0 */
 80036bc:	601a      	str	r2, [r3, #0]
}
 80036be:	bd10      	pop	{r4, pc}
 80036c0:	08003659 	.word	0x08003659

080036c4 <SVC_Handler>:
}
 80036c4:	4770      	bx	lr
	...

080036c8 <vPortYield>:
/*-----------------------------------------------------------*/

void vPortYield( void )
{
	/* Set a PendSV to request a context switch. */
	*( portNVIC_INT_CTRL ) = portNVIC_PENDSVSET;
 80036c8:	2280      	movs	r2, #128	; 0x80
 80036ca:	4b04      	ldr	r3, [pc, #16]	; (80036dc <vPortYield+0x14>)
 80036cc:	0552      	lsls	r2, r2, #21
 80036ce:	601a      	str	r2, [r3, #0]

	/* Barriers are normally not required but do ensure the code is completely
	within the specified behaviour for the architecture. */
	__asm volatile( "dsb" );
 80036d0:	f3bf 8f4f 	dsb	sy
	__asm volatile( "isb" );
 80036d4:	f3bf 8f6f 	isb	sy
}
 80036d8:	4770      	bx	lr
 80036da:	46c0      	nop			; (mov r8, r8)
 80036dc:	e000ed04 	.word	0xe000ed04

080036e0 <vPortEnterCritical>:
/*-----------------------------------------------------------*/

void vPortEnterCritical( void )
{
    portDISABLE_INTERRUPTS();
 80036e0:	b672      	cpsid	i
    uxCriticalNesting++;
 80036e2:	4a04      	ldr	r2, [pc, #16]	; (80036f4 <vPortEnterCritical+0x14>)
 80036e4:	6813      	ldr	r3, [r2, #0]
 80036e6:	3301      	adds	r3, #1
 80036e8:	6013      	str	r3, [r2, #0]
	__asm volatile( "dsb" );
 80036ea:	f3bf 8f4f 	dsb	sy
	__asm volatile( "isb" );
 80036ee:	f3bf 8f6f 	isb	sy
}
 80036f2:	4770      	bx	lr
 80036f4:	20000120 	.word	0x20000120

080036f8 <vPortExitCritical>:
/*-----------------------------------------------------------*/

void vPortExitCritical( void )
{
	configASSERT( uxCriticalNesting );
 80036f8:	4a05      	ldr	r2, [pc, #20]	; (8003710 <vPortExitCritical+0x18>)
 80036fa:	6813      	ldr	r3, [r2, #0]
 80036fc:	2b00      	cmp	r3, #0
 80036fe:	d101      	bne.n	8003704 <vPortExitCritical+0xc>
 8003700:	b672      	cpsid	i
 8003702:	e7fe      	b.n	8003702 <vPortExitCritical+0xa>
    uxCriticalNesting--;
 8003704:	3b01      	subs	r3, #1
 8003706:	6013      	str	r3, [r2, #0]
    if( uxCriticalNesting == 0 )
 8003708:	2b00      	cmp	r3, #0
 800370a:	d100      	bne.n	800370e <vPortExitCritical+0x16>
    {
        portENABLE_INTERRUPTS();
 800370c:	b662      	cpsie	i
    }
}
 800370e:	4770      	bx	lr
 8003710:	20000120 	.word	0x20000120

08003714 <ulSetInterruptMaskFromISR>:
/*-----------------------------------------------------------*/

uint32_t ulSetInterruptMaskFromISR( void )
{
	__asm volatile(
 8003714:	f3ef 8010 	mrs	r0, PRIMASK
 8003718:	b672      	cpsid	i
 800371a:	4770      	bx	lr
					" bx lr				  "
				  );

	/* To avoid compiler warnings.  This line will never be reached. */
	return 0;
}
 800371c:	2000      	movs	r0, #0

0800371e <vClearInterruptMaskFromISR>:
/*-----------------------------------------------------------*/

void vClearInterruptMaskFromISR( uint32_t ulMask )
{
	__asm volatile(
 800371e:	f380 8810 	msr	PRIMASK, r0
 8003722:	4770      	bx	lr
	...

08003730 <PendSV_Handler>:

void xPortPendSVHandler( void )
{
	/* This is a naked function. */

	__asm volatile
 8003730:	f3ef 8009 	mrs	r0, PSP
 8003734:	4b0e      	ldr	r3, [pc, #56]	; (8003770 <pxCurrentTCBConst>)
 8003736:	681a      	ldr	r2, [r3, #0]
 8003738:	3820      	subs	r0, #32
 800373a:	6010      	str	r0, [r2, #0]
 800373c:	c0f0      	stmia	r0!, {r4, r5, r6, r7}
 800373e:	4644      	mov	r4, r8
 8003740:	464d      	mov	r5, r9
 8003742:	4656      	mov	r6, sl
 8003744:	465f      	mov	r7, fp
 8003746:	c0f0      	stmia	r0!, {r4, r5, r6, r7}
 8003748:	b508      	push	{r3, lr}
 800374a:	b672      	cpsid	i
 800374c:	f000 fb92 	bl	8003e74 <vTaskSwitchContext>
 8003750:	b662      	cpsie	i
 8003752:	bc0c      	pop	{r2, r3}
 8003754:	6811      	ldr	r1, [r2, #0]
 8003756:	6808      	ldr	r0, [r1, #0]
 8003758:	3010      	adds	r0, #16
 800375a:	c8f0      	ldmia	r0!, {r4, r5, r6, r7}
 800375c:	46a0      	mov	r8, r4
 800375e:	46a9      	mov	r9, r5
 8003760:	46b2      	mov	sl, r6
 8003762:	46bb      	mov	fp, r7
 8003764:	f380 8809 	msr	PSP, r0
 8003768:	3820      	subs	r0, #32
 800376a:	c8f0      	ldmia	r0!, {r4, r5, r6, r7}
 800376c:	4718      	bx	r3
 800376e:	46c0      	nop			; (mov r8, r8)

08003770 <pxCurrentTCBConst>:
 8003770:	20000e24 	.word	0x20000e24

08003774 <SysTick_Handler>:
	);
}
/*-----------------------------------------------------------*/

void xPortSysTickHandler( void )
{
 8003774:	b510      	push	{r4, lr}
uint32_t ulPreviousMask;

	ulPreviousMask = portSET_INTERRUPT_MASK_FROM_ISR();
 8003776:	f7ff ffcd 	bl	8003714 <ulSetInterruptMaskFromISR>
 800377a:	0004      	movs	r4, r0
	{
		/* Increment the RTOS tick. */
		if( xTaskIncrementTick() != pdFALSE )
 800377c:	f000 fa46 	bl	8003c0c <xTaskIncrementTick>
 8003780:	2800      	cmp	r0, #0
 8003782:	d003      	beq.n	800378c <SysTick_Handler+0x18>
		{
			/* Pend a context switch. */
			*(portNVIC_INT_CTRL) = portNVIC_PENDSVSET;
 8003784:	2280      	movs	r2, #128	; 0x80
 8003786:	4b03      	ldr	r3, [pc, #12]	; (8003794 <SysTick_Handler+0x20>)
 8003788:	0552      	lsls	r2, r2, #21
 800378a:	601a      	str	r2, [r3, #0]
		}
	}
	portCLEAR_INTERRUPT_MASK_FROM_ISR( ulPreviousMask );
 800378c:	0020      	movs	r0, r4
 800378e:	f7ff ffc6 	bl	800371e <vClearInterruptMaskFromISR>
}
 8003792:	bd10      	pop	{r4, pc}
 8003794:	e000ed04 	.word	0xe000ed04

08003798 <vPortSetupTimerInterrupt>:
		ulStoppedTimerCompensation = portMISSED_COUNTS_FACTOR / ( configCPU_CLOCK_HZ / configSYSTICK_CLOCK_HZ );
	}
	#endif /* configUSE_TICKLESS_IDLE */
	/* Configure SysTick to interrupt at the requested rate. */

	portNVIC_SYSTICK_LOAD = ( configCPU_CLOCK_HZ / configTICK_RATE_HZ ) - 1UL;
 8003798:	21fa      	movs	r1, #250	; 0xfa
 800379a:	4b06      	ldr	r3, [pc, #24]	; (80037b4 <vPortSetupTimerInterrupt+0x1c>)
{
 800379c:	b510      	push	{r4, lr}
	portNVIC_SYSTICK_LOAD = ( configCPU_CLOCK_HZ / configTICK_RATE_HZ ) - 1UL;
 800379e:	6818      	ldr	r0, [r3, #0]
 80037a0:	0089      	lsls	r1, r1, #2
 80037a2:	f7fc fcc5 	bl	8000130 <__udivsi3>
	portNVIC_SYSTICK_CTRL = portNVIC_SYSTICK_CLK | portNVIC_SYSTICK_INT | portNVIC_SYSTICK_ENABLE;
 80037a6:	2207      	movs	r2, #7
	portNVIC_SYSTICK_LOAD = ( configCPU_CLOCK_HZ / configTICK_RATE_HZ ) - 1UL;
 80037a8:	4b03      	ldr	r3, [pc, #12]	; (80037b8 <vPortSetupTimerInterrupt+0x20>)
 80037aa:	3801      	subs	r0, #1
 80037ac:	6018      	str	r0, [r3, #0]
	portNVIC_SYSTICK_CTRL = portNVIC_SYSTICK_CLK | portNVIC_SYSTICK_INT | portNVIC_SYSTICK_ENABLE;
 80037ae:	4b03      	ldr	r3, [pc, #12]	; (80037bc <vPortSetupTimerInterrupt+0x24>)
 80037b0:	601a      	str	r2, [r3, #0]
}
 80037b2:	bd10      	pop	{r4, pc}
 80037b4:	2000000c 	.word	0x2000000c
 80037b8:	e000e014 	.word	0xe000e014
 80037bc:	e000e010 	.word	0xe000e010

080037c0 <xPortStartScheduler>:
	*(portNVIC_SYSPRI2) |= portNVIC_PENDSV_PRI;
 80037c0:	22ff      	movs	r2, #255	; 0xff
 80037c2:	4b0a      	ldr	r3, [pc, #40]	; (80037ec <xPortStartScheduler+0x2c>)
 80037c4:	0412      	lsls	r2, r2, #16
 80037c6:	6819      	ldr	r1, [r3, #0]
{
 80037c8:	b510      	push	{r4, lr}
	*(portNVIC_SYSPRI2) |= portNVIC_PENDSV_PRI;
 80037ca:	430a      	orrs	r2, r1
 80037cc:	601a      	str	r2, [r3, #0]
	*(portNVIC_SYSPRI2) |= portNVIC_SYSTICK_PRI;
 80037ce:	22ff      	movs	r2, #255	; 0xff
 80037d0:	6819      	ldr	r1, [r3, #0]
 80037d2:	0612      	lsls	r2, r2, #24
 80037d4:	430a      	orrs	r2, r1
 80037d6:	601a      	str	r2, [r3, #0]
	vPortSetupTimerInterrupt();
 80037d8:	f7ff ffde 	bl	8003798 <vPortSetupTimerInterrupt>
	uxCriticalNesting = 0;
 80037dc:	2200      	movs	r2, #0
 80037de:	4b04      	ldr	r3, [pc, #16]	; (80037f0 <xPortStartScheduler+0x30>)
 80037e0:	601a      	str	r2, [r3, #0]
	vPortStartFirstTask();
 80037e2:	f7ff ff45 	bl	8003670 <vPortStartFirstTask>
	prvTaskExitError();
 80037e6:	f7ff ff37 	bl	8003658 <prvTaskExitError>
 80037ea:	46c0      	nop			; (mov r8, r8)
 80037ec:	e000ed20 	.word	0xe000ed20
 80037f0:	20000120 	.word	0x20000120

080037f4 <prvInsertBlockIntoFreeList>:
	xBlockAllocatedBit = ( ( size_t ) 1 ) << ( ( sizeof( size_t ) * heapBITS_PER_BYTE ) - 1 );
}
/*-----------------------------------------------------------*/

static void prvInsertBlockIntoFreeList( BlockLink_t *pxBlockToInsert )
{
 80037f4:	b510      	push	{r4, lr}
BlockLink_t *pxIterator;
uint8_t *puc;

	/* Iterate through the list until a block is found that has a higher address
	than the block being inserted. */
	for( pxIterator = &xStart; pxIterator->pxNextFreeBlock < pxBlockToInsert; pxIterator = pxIterator->pxNextFreeBlock )
 80037f6:	4b0f      	ldr	r3, [pc, #60]	; (8003834 <prvInsertBlockIntoFreeList+0x40>)
 80037f8:	681a      	ldr	r2, [r3, #0]
 80037fa:	4282      	cmp	r2, r0
 80037fc:	d318      	bcc.n	8003830 <prvInsertBlockIntoFreeList+0x3c>
	}

	/* Do the block being inserted, and the block it is being inserted after
	make a contiguous block of memory? */
	puc = ( uint8_t * ) pxIterator;
	if( ( puc + pxIterator->xBlockSize ) == ( uint8_t * ) pxBlockToInsert )
 80037fe:	685c      	ldr	r4, [r3, #4]
 8003800:	1919      	adds	r1, r3, r4
 8003802:	4288      	cmp	r0, r1
 8003804:	d103      	bne.n	800380e <prvInsertBlockIntoFreeList+0x1a>
	{
		pxIterator->xBlockSize += pxBlockToInsert->xBlockSize;
 8003806:	6841      	ldr	r1, [r0, #4]
 8003808:	0018      	movs	r0, r3
 800380a:	1909      	adds	r1, r1, r4
 800380c:	6059      	str	r1, [r3, #4]
	}

	/* Do the block being inserted, and the block it is being inserted before
	make a contiguous block of memory? */
	puc = ( uint8_t * ) pxBlockToInsert;
	if( ( puc + pxBlockToInsert->xBlockSize ) == ( uint8_t * ) pxIterator->pxNextFreeBlock )
 800380e:	6841      	ldr	r1, [r0, #4]
 8003810:	1844      	adds	r4, r0, r1
 8003812:	42a2      	cmp	r2, r4
 8003814:	d107      	bne.n	8003826 <prvInsertBlockIntoFreeList+0x32>
	{
		if( pxIterator->pxNextFreeBlock != pxEnd )
 8003816:	4c08      	ldr	r4, [pc, #32]	; (8003838 <prvInsertBlockIntoFreeList+0x44>)
 8003818:	6824      	ldr	r4, [r4, #0]
 800381a:	42a2      	cmp	r2, r4
 800381c:	d003      	beq.n	8003826 <prvInsertBlockIntoFreeList+0x32>
		{
			/* Form one big block from the two blocks. */
			pxBlockToInsert->xBlockSize += pxIterator->pxNextFreeBlock->xBlockSize;
 800381e:	6854      	ldr	r4, [r2, #4]
			pxBlockToInsert->pxNextFreeBlock = pxIterator->pxNextFreeBlock->pxNextFreeBlock;
 8003820:	6812      	ldr	r2, [r2, #0]
			pxBlockToInsert->xBlockSize += pxIterator->pxNextFreeBlock->xBlockSize;
 8003822:	1861      	adds	r1, r4, r1
 8003824:	6041      	str	r1, [r0, #4]
			pxBlockToInsert->pxNextFreeBlock = pxEnd;
		}
	}
	else
	{
		pxBlockToInsert->pxNextFreeBlock = pxIterator->pxNextFreeBlock;
 8003826:	6002      	str	r2, [r0, #0]

	/* If the block being inserted plugged a gab, so was merged with the block
	before and the block after, then it's pxNextFreeBlock pointer will have
	already been set, and should not be set here as that would make it point
	to itself. */
	if( pxIterator != pxBlockToInsert )
 8003828:	4298      	cmp	r0, r3
 800382a:	d000      	beq.n	800382e <prvInsertBlockIntoFreeList+0x3a>
	{
		pxIterator->pxNextFreeBlock = pxBlockToInsert;
 800382c:	6018      	str	r0, [r3, #0]
	}
	else
	{
		mtCOVERAGE_TEST_MARKER();
	}
}
 800382e:	bd10      	pop	{r4, pc}
 8003830:	0013      	movs	r3, r2
 8003832:	e7e1      	b.n	80037f8 <prvInsertBlockIntoFreeList+0x4>
 8003834:	20000e1c 	.word	0x20000e1c
 8003838:	2000020c 	.word	0x2000020c

0800383c <pvPortMalloc>:
{
 800383c:	b5f8      	push	{r3, r4, r5, r6, r7, lr}
 800383e:	0004      	movs	r4, r0
	vTaskSuspendAll();
 8003840:	f000 f9dc 	bl	8003bfc <vTaskSuspendAll>
		if( pxEnd == NULL )
 8003844:	4a38      	ldr	r2, [pc, #224]	; (8003928 <pvPortMalloc+0xec>)
 8003846:	4839      	ldr	r0, [pc, #228]	; (800392c <pvPortMalloc+0xf0>)
 8003848:	6813      	ldr	r3, [r2, #0]
 800384a:	2b00      	cmp	r3, #0
 800384c:	d11e      	bne.n	800388c <pvPortMalloc+0x50>
	uxAddress = ( size_t ) ucHeap;
 800384e:	4938      	ldr	r1, [pc, #224]	; (8003930 <pvPortMalloc+0xf4>)
	if( ( uxAddress & portBYTE_ALIGNMENT_MASK ) != 0 )
 8003850:	3307      	adds	r3, #7
 8003852:	4219      	tst	r1, r3
 8003854:	d036      	beq.n	80038c4 <pvPortMalloc+0x88>
		uxAddress += ( portBYTE_ALIGNMENT - 1 );
 8003856:	18cd      	adds	r5, r1, r3
		uxAddress &= ~( ( size_t ) portBYTE_ALIGNMENT_MASK );
 8003858:	439d      	bics	r5, r3
		xTotalHeapSize -= uxAddress - ( size_t ) ucHeap;
 800385a:	23c0      	movs	r3, #192	; 0xc0
 800385c:	011b      	lsls	r3, r3, #4
 800385e:	18c9      	adds	r1, r1, r3
 8003860:	1b4b      	subs	r3, r1, r5
		uxAddress &= ~( ( size_t ) portBYTE_ALIGNMENT_MASK );
 8003862:	0029      	movs	r1, r5
	xStart.xBlockSize = ( size_t ) 0;
 8003864:	2500      	movs	r5, #0
	xStart.pxNextFreeBlock = ( void * ) pucAlignedHeap;
 8003866:	4e33      	ldr	r6, [pc, #204]	; (8003934 <pvPortMalloc+0xf8>)
	uxAddress = ( ( size_t ) pucAlignedHeap ) + xTotalHeapSize;
 8003868:	18cb      	adds	r3, r1, r3
	xStart.xBlockSize = ( size_t ) 0;
 800386a:	6075      	str	r5, [r6, #4]
	xStart.pxNextFreeBlock = ( void * ) pucAlignedHeap;
 800386c:	6031      	str	r1, [r6, #0]
	uxAddress &= ~( ( size_t ) portBYTE_ALIGNMENT_MASK );
 800386e:	2607      	movs	r6, #7
	uxAddress -= xHeapStructSize;
 8003870:	3b08      	subs	r3, #8
	uxAddress &= ~( ( size_t ) portBYTE_ALIGNMENT_MASK );
 8003872:	43b3      	bics	r3, r6
	pxEnd->pxNextFreeBlock = NULL;
 8003874:	601d      	str	r5, [r3, #0]
	pxEnd->xBlockSize = 0;
 8003876:	605d      	str	r5, [r3, #4]
	pxFirstFreeBlock->xBlockSize = uxAddress - ( size_t ) pxFirstFreeBlock;
 8003878:	1a5d      	subs	r5, r3, r1
	pxEnd = ( void * ) uxAddress;
 800387a:	6013      	str	r3, [r2, #0]
	pxFirstFreeBlock->pxNextFreeBlock = pxEnd;
 800387c:	c128      	stmia	r1!, {r3, r5}
	xMinimumEverFreeBytesRemaining = pxFirstFreeBlock->xBlockSize;
 800387e:	4b2e      	ldr	r3, [pc, #184]	; (8003938 <pvPortMalloc+0xfc>)
 8003880:	601d      	str	r5, [r3, #0]
	xFreeBytesRemaining = pxFirstFreeBlock->xBlockSize;
 8003882:	4b2e      	ldr	r3, [pc, #184]	; (800393c <pvPortMalloc+0x100>)
 8003884:	601d      	str	r5, [r3, #0]
	xBlockAllocatedBit = ( ( size_t ) 1 ) << ( ( sizeof( size_t ) * heapBITS_PER_BYTE ) - 1 );
 8003886:	2380      	movs	r3, #128	; 0x80
 8003888:	061b      	lsls	r3, r3, #24
 800388a:	6003      	str	r3, [r0, #0]
		if( ( xWantedSize & xBlockAllocatedBit ) == 0 )
 800388c:	6806      	ldr	r6, [r0, #0]
 800388e:	4234      	tst	r4, r6
 8003890:	d116      	bne.n	80038c0 <pvPortMalloc+0x84>
			if( xWantedSize > 0 )
 8003892:	2c00      	cmp	r4, #0
 8003894:	d014      	beq.n	80038c0 <pvPortMalloc+0x84>
				xWantedSize += xHeapStructSize;
 8003896:	0023      	movs	r3, r4
				if( ( xWantedSize & portBYTE_ALIGNMENT_MASK ) != 0x00 )
 8003898:	2107      	movs	r1, #7
				xWantedSize += xHeapStructSize;
 800389a:	3308      	adds	r3, #8
				if( ( xWantedSize & portBYTE_ALIGNMENT_MASK ) != 0x00 )
 800389c:	420b      	tst	r3, r1
 800389e:	d001      	beq.n	80038a4 <pvPortMalloc+0x68>
					xWantedSize += ( portBYTE_ALIGNMENT - ( xWantedSize & portBYTE_ALIGNMENT_MASK ) );
 80038a0:	438b      	bics	r3, r1
 80038a2:	3308      	adds	r3, #8
			if( ( xWantedSize > 0 ) && ( xWantedSize <= xFreeBytesRemaining ) )
 80038a4:	2b00      	cmp	r3, #0
 80038a6:	d00b      	beq.n	80038c0 <pvPortMalloc+0x84>
 80038a8:	4924      	ldr	r1, [pc, #144]	; (800393c <pvPortMalloc+0x100>)
 80038aa:	680d      	ldr	r5, [r1, #0]
 80038ac:	42ab      	cmp	r3, r5
 80038ae:	d807      	bhi.n	80038c0 <pvPortMalloc+0x84>
				pxBlock = xStart.pxNextFreeBlock;
 80038b0:	4920      	ldr	r1, [pc, #128]	; (8003934 <pvPortMalloc+0xf8>)
 80038b2:	680c      	ldr	r4, [r1, #0]
				while( ( pxBlock->xBlockSize < xWantedSize ) && ( pxBlock->pxNextFreeBlock != NULL ) )
 80038b4:	6860      	ldr	r0, [r4, #4]
 80038b6:	4283      	cmp	r3, r0
 80038b8:	d807      	bhi.n	80038ca <pvPortMalloc+0x8e>
				if( pxBlock != pxEnd )
 80038ba:	6812      	ldr	r2, [r2, #0]
 80038bc:	4294      	cmp	r4, r2
 80038be:	d10b      	bne.n	80038d8 <pvPortMalloc+0x9c>
void *pvReturn = NULL;
 80038c0:	2500      	movs	r5, #0
 80038c2:	e028      	b.n	8003916 <pvPortMalloc+0xda>
size_t xTotalHeapSize = configTOTAL_HEAP_SIZE;
 80038c4:	23c0      	movs	r3, #192	; 0xc0
 80038c6:	011b      	lsls	r3, r3, #4
 80038c8:	e7cc      	b.n	8003864 <pvPortMalloc+0x28>
				while( ( pxBlock->xBlockSize < xWantedSize ) && ( pxBlock->pxNextFreeBlock != NULL ) )
 80038ca:	6827      	ldr	r7, [r4, #0]
 80038cc:	46bc      	mov	ip, r7
 80038ce:	2f00      	cmp	r7, #0
 80038d0:	d0f3      	beq.n	80038ba <pvPortMalloc+0x7e>
 80038d2:	0021      	movs	r1, r4
 80038d4:	4664      	mov	r4, ip
 80038d6:	e7ed      	b.n	80038b4 <pvPortMalloc+0x78>
					pvReturn = ( void * ) ( ( ( uint8_t * ) pxPreviousBlock->pxNextFreeBlock ) + xHeapStructSize );
 80038d8:	680a      	ldr	r2, [r1, #0]
 80038da:	0017      	movs	r7, r2
					pxPreviousBlock->pxNextFreeBlock = pxBlock->pxNextFreeBlock;
 80038dc:	6822      	ldr	r2, [r4, #0]
 80038de:	600a      	str	r2, [r1, #0]
					if( ( pxBlock->xBlockSize - xWantedSize ) > heapMINIMUM_BLOCK_SIZE )
 80038e0:	1ac2      	subs	r2, r0, r3
 80038e2:	2a10      	cmp	r2, #16
 80038e4:	d908      	bls.n	80038f8 <pvPortMalloc+0xbc>
						pxNewBlockLink = ( void * ) ( ( ( uint8_t * ) pxBlock ) + xWantedSize );
 80038e6:	18e0      	adds	r0, r4, r3
						configASSERT( ( ( ( size_t ) pxNewBlockLink ) & portBYTE_ALIGNMENT_MASK ) == 0 );
 80038e8:	0741      	lsls	r1, r0, #29
 80038ea:	d001      	beq.n	80038f0 <pvPortMalloc+0xb4>
 80038ec:	b672      	cpsid	i
 80038ee:	e7fe      	b.n	80038ee <pvPortMalloc+0xb2>
						pxNewBlockLink->xBlockSize = pxBlock->xBlockSize - xWantedSize;
 80038f0:	6042      	str	r2, [r0, #4]
						pxBlock->xBlockSize = xWantedSize;
 80038f2:	6063      	str	r3, [r4, #4]
						prvInsertBlockIntoFreeList( pxNewBlockLink );
 80038f4:	f7ff ff7e 	bl	80037f4 <prvInsertBlockIntoFreeList>
					xFreeBytesRemaining -= pxBlock->xBlockSize;
 80038f8:	6863      	ldr	r3, [r4, #4]
 80038fa:	4a10      	ldr	r2, [pc, #64]	; (800393c <pvPortMalloc+0x100>)
 80038fc:	1aed      	subs	r5, r5, r3
 80038fe:	6015      	str	r5, [r2, #0]
					if( xFreeBytesRemaining < xMinimumEverFreeBytesRemaining )
 8003900:	4a0d      	ldr	r2, [pc, #52]	; (8003938 <pvPortMalloc+0xfc>)
 8003902:	6811      	ldr	r1, [r2, #0]
 8003904:	428d      	cmp	r5, r1
 8003906:	d200      	bcs.n	800390a <pvPortMalloc+0xce>
						xMinimumEverFreeBytesRemaining = xFreeBytesRemaining;
 8003908:	6015      	str	r5, [r2, #0]
					pxBlock->xBlockSize |= xBlockAllocatedBit;
 800390a:	431e      	orrs	r6, r3
					pvReturn = ( void * ) ( ( ( uint8_t * ) pxPreviousBlock->pxNextFreeBlock ) + xHeapStructSize );
 800390c:	003d      	movs	r5, r7
					pxBlock->pxNextFreeBlock = NULL;
 800390e:	2300      	movs	r3, #0
					pvReturn = ( void * ) ( ( ( uint8_t * ) pxPreviousBlock->pxNextFreeBlock ) + xHeapStructSize );
 8003910:	3508      	adds	r5, #8
					pxBlock->xBlockSize |= xBlockAllocatedBit;
 8003912:	6066      	str	r6, [r4, #4]
					pxBlock->pxNextFreeBlock = NULL;
 8003914:	6023      	str	r3, [r4, #0]
	( void ) xTaskResumeAll();
 8003916:	f000 f9f7 	bl	8003d08 <xTaskResumeAll>
	configASSERT( ( ( ( size_t ) pvReturn ) & ( size_t ) portBYTE_ALIGNMENT_MASK ) == 0 );
 800391a:	076b      	lsls	r3, r5, #29
 800391c:	d001      	beq.n	8003922 <pvPortMalloc+0xe6>
 800391e:	b672      	cpsid	i
 8003920:	e7fe      	b.n	8003920 <pvPortMalloc+0xe4>
}
 8003922:	0028      	movs	r0, r5
 8003924:	bdf8      	pop	{r3, r4, r5, r6, r7, pc}
 8003926:	46c0      	nop			; (mov r8, r8)
 8003928:	2000020c 	.word	0x2000020c
 800392c:	20000e10 	.word	0x20000e10
 8003930:	20000210 	.word	0x20000210
 8003934:	20000e1c 	.word	0x20000e1c
 8003938:	20000e18 	.word	0x20000e18
 800393c:	20000e14 	.word	0x20000e14

08003940 <vPortFree>:
{
 8003940:	b510      	push	{r4, lr}
	if( pv != NULL )
 8003942:	2800      	cmp	r0, #0
 8003944:	d01b      	beq.n	800397e <vPortFree+0x3e>
		configASSERT( ( pxLink->xBlockSize & xBlockAllocatedBit ) != 0 );
 8003946:	4a0e      	ldr	r2, [pc, #56]	; (8003980 <vPortFree+0x40>)
 8003948:	3808      	subs	r0, #8
 800394a:	6843      	ldr	r3, [r0, #4]
 800394c:	6812      	ldr	r2, [r2, #0]
 800394e:	0004      	movs	r4, r0
 8003950:	421a      	tst	r2, r3
 8003952:	d101      	bne.n	8003958 <vPortFree+0x18>
 8003954:	b672      	cpsid	i
 8003956:	e7fe      	b.n	8003956 <vPortFree+0x16>
		configASSERT( pxLink->pxNextFreeBlock == NULL );
 8003958:	6801      	ldr	r1, [r0, #0]
 800395a:	2900      	cmp	r1, #0
 800395c:	d001      	beq.n	8003962 <vPortFree+0x22>
 800395e:	b672      	cpsid	i
 8003960:	e7fe      	b.n	8003960 <vPortFree+0x20>
				pxLink->xBlockSize &= ~xBlockAllocatedBit;
 8003962:	4393      	bics	r3, r2
 8003964:	6043      	str	r3, [r0, #4]
				vTaskSuspendAll();
 8003966:	f000 f949 	bl	8003bfc <vTaskSuspendAll>
					xFreeBytesRemaining += pxLink->xBlockSize;
 800396a:	4a06      	ldr	r2, [pc, #24]	; (8003984 <vPortFree+0x44>)
 800396c:	6863      	ldr	r3, [r4, #4]
 800396e:	6811      	ldr	r1, [r2, #0]
					prvInsertBlockIntoFreeList( ( ( BlockLink_t * ) pxLink ) );
 8003970:	0020      	movs	r0, r4
					xFreeBytesRemaining += pxLink->xBlockSize;
 8003972:	185b      	adds	r3, r3, r1
 8003974:	6013      	str	r3, [r2, #0]
					prvInsertBlockIntoFreeList( ( ( BlockLink_t * ) pxLink ) );
 8003976:	f7ff ff3d 	bl	80037f4 <prvInsertBlockIntoFreeList>
				( void ) xTaskResumeAll();
 800397a:	f000 f9c5 	bl	8003d08 <xTaskResumeAll>
}
 800397e:	bd10      	pop	{r4, pc}
 8003980:	20000e10 	.word	0x20000e10
 8003984:	20000e14 	.word	0x20000e14

08003988 <prvResetNextTaskUnblockTime>:

static void prvResetNextTaskUnblockTime( void )
{
TCB_t *pxTCB;

	if( listLIST_IS_EMPTY( pxDelayedTaskList ) != pdFALSE )
 8003988:	4a07      	ldr	r2, [pc, #28]	; (80039a8 <prvResetNextTaskUnblockTime+0x20>)
 800398a:	6813      	ldr	r3, [r2, #0]
 800398c:	6819      	ldr	r1, [r3, #0]
 800398e:	4b07      	ldr	r3, [pc, #28]	; (80039ac <prvResetNextTaskUnblockTime+0x24>)
 8003990:	2900      	cmp	r1, #0
 8003992:	d103      	bne.n	800399c <prvResetNextTaskUnblockTime+0x14>
	{
		/* The new current delayed list is empty.  Set xNextTaskUnblockTime to
		the maximum possible value so it is	extremely unlikely that the
		if( xTickCount >= xNextTaskUnblockTime ) test will pass until
		there is an item in the delayed list. */
		xNextTaskUnblockTime = portMAX_DELAY;
 8003994:	2201      	movs	r2, #1
 8003996:	4252      	negs	r2, r2
		/* The new current delayed list is not empty, get the value of
		the item at the head of the delayed list.  This is the time at
		which the task at the head of the delayed list should be removed
		from the Blocked state. */
		( pxTCB ) = ( TCB_t * ) listGET_OWNER_OF_HEAD_ENTRY( pxDelayedTaskList );
		xNextTaskUnblockTime = listGET_LIST_ITEM_VALUE( &( ( pxTCB )->xStateListItem ) );
 8003998:	601a      	str	r2, [r3, #0]
	}
}
 800399a:	4770      	bx	lr
		( pxTCB ) = ( TCB_t * ) listGET_OWNER_OF_HEAD_ENTRY( pxDelayedTaskList );
 800399c:	6812      	ldr	r2, [r2, #0]
 800399e:	68d2      	ldr	r2, [r2, #12]
		xNextTaskUnblockTime = listGET_LIST_ITEM_VALUE( &( ( pxTCB )->xStateListItem ) );
 80039a0:	68d2      	ldr	r2, [r2, #12]
 80039a2:	6852      	ldr	r2, [r2, #4]
 80039a4:	e7f8      	b.n	8003998 <prvResetNextTaskUnblockTime+0x10>
 80039a6:	46c0      	nop			; (mov r8, r8)
 80039a8:	20000e28 	.word	0x20000e28
 80039ac:	20000f00 	.word	0x20000f00

080039b0 <prvAddCurrentTaskToDelayedList>:
#endif /* configUSE_TASK_NOTIFICATIONS */
/*-----------------------------------------------------------*/


static void prvAddCurrentTaskToDelayedList( TickType_t xTicksToWait, const BaseType_t xCanBlockIndefinitely )
{
 80039b0:	b5f8      	push	{r3, r4, r5, r6, r7, lr}
 80039b2:	0004      	movs	r4, r0
TickType_t xTimeToWake;
const TickType_t xConstTickCount = xTickCount;
 80039b4:	4b14      	ldr	r3, [pc, #80]	; (8003a08 <prvAddCurrentTaskToDelayedList+0x58>)
	}
	#endif

	/* Remove the task from the ready list before adding it to the blocked list
	as the same list item is used for both lists. */
	if( uxListRemove( &( pxCurrentTCB->xStateListItem ) ) == ( UBaseType_t ) 0 )
 80039b6:	4d15      	ldr	r5, [pc, #84]	; (8003a0c <prvAddCurrentTaskToDelayedList+0x5c>)
const TickType_t xConstTickCount = xTickCount;
 80039b8:	681e      	ldr	r6, [r3, #0]
	if( uxListRemove( &( pxCurrentTCB->xStateListItem ) ) == ( UBaseType_t ) 0 )
 80039ba:	6828      	ldr	r0, [r5, #0]
{
 80039bc:	000f      	movs	r7, r1
	if( uxListRemove( &( pxCurrentTCB->xStateListItem ) ) == ( UBaseType_t ) 0 )
 80039be:	3004      	adds	r0, #4
 80039c0:	f7ff fe39 	bl	8003636 <uxListRemove>
		mtCOVERAGE_TEST_MARKER();
	}

	#if ( INCLUDE_vTaskSuspend == 1 )
	{
		if( ( xTicksToWait == portMAX_DELAY ) && ( xCanBlockIndefinitely != pdFALSE ) )
 80039c4:	1c63      	adds	r3, r4, #1
 80039c6:	d107      	bne.n	80039d8 <prvAddCurrentTaskToDelayedList+0x28>
 80039c8:	2f00      	cmp	r7, #0
 80039ca:	d005      	beq.n	80039d8 <prvAddCurrentTaskToDelayedList+0x28>
		{
			/* Add the task to the suspended task list instead of a delayed task
			list to ensure it is not woken by a timing event.  It will block
			indefinitely. */
			vListInsertEnd( &xSuspendedTaskList, &( pxCurrentTCB->xStateListItem ) );
 80039cc:	6829      	ldr	r1, [r5, #0]
 80039ce:	4810      	ldr	r0, [pc, #64]	; (8003a10 <prvAddCurrentTaskToDelayedList+0x60>)
 80039d0:	3104      	adds	r1, #4
 80039d2:	f7ff fe0d 	bl	80035f0 <vListInsertEnd>

		/* Avoid compiler warning when INCLUDE_vTaskSuspend is not 1. */
		( void ) xCanBlockIndefinitely;
	}
	#endif /* INCLUDE_vTaskSuspend */
}
 80039d6:	bdf8      	pop	{r3, r4, r5, r6, r7, pc}
			listSET_LIST_ITEM_VALUE( &( pxCurrentTCB->xStateListItem ), xTimeToWake );
 80039d8:	682b      	ldr	r3, [r5, #0]
			xTimeToWake = xConstTickCount + xTicksToWait;
 80039da:	1934      	adds	r4, r6, r4
			listSET_LIST_ITEM_VALUE( &( pxCurrentTCB->xStateListItem ), xTimeToWake );
 80039dc:	605c      	str	r4, [r3, #4]
			if( xTimeToWake < xConstTickCount )
 80039de:	42a6      	cmp	r6, r4
 80039e0:	d906      	bls.n	80039f0 <prvAddCurrentTaskToDelayedList+0x40>
				vListInsert( pxOverflowDelayedTaskList, &( pxCurrentTCB->xStateListItem ) );
 80039e2:	4b0c      	ldr	r3, [pc, #48]	; (8003a14 <prvAddCurrentTaskToDelayedList+0x64>)
 80039e4:	6818      	ldr	r0, [r3, #0]
 80039e6:	6829      	ldr	r1, [r5, #0]
 80039e8:	3104      	adds	r1, #4
 80039ea:	f7ff fe0d 	bl	8003608 <vListInsert>
 80039ee:	e7f2      	b.n	80039d6 <prvAddCurrentTaskToDelayedList+0x26>
				vListInsert( pxDelayedTaskList, &( pxCurrentTCB->xStateListItem ) );
 80039f0:	4b09      	ldr	r3, [pc, #36]	; (8003a18 <prvAddCurrentTaskToDelayedList+0x68>)
 80039f2:	6818      	ldr	r0, [r3, #0]
 80039f4:	6829      	ldr	r1, [r5, #0]
 80039f6:	3104      	adds	r1, #4
 80039f8:	f7ff fe06 	bl	8003608 <vListInsert>
				if( xTimeToWake < xNextTaskUnblockTime )
 80039fc:	4b07      	ldr	r3, [pc, #28]	; (8003a1c <prvAddCurrentTaskToDelayedList+0x6c>)
 80039fe:	681a      	ldr	r2, [r3, #0]
 8003a00:	4294      	cmp	r4, r2
 8003a02:	d2e8      	bcs.n	80039d6 <prvAddCurrentTaskToDelayedList+0x26>
					xNextTaskUnblockTime = xTimeToWake;
 8003a04:	601c      	str	r4, [r3, #0]
}
 8003a06:	e7e6      	b.n	80039d6 <prvAddCurrentTaskToDelayedList+0x26>
 8003a08:	20000f48 	.word	0x20000f48
 8003a0c:	20000e24 	.word	0x20000e24
 8003a10:	20000f20 	.word	0x20000f20
 8003a14:	20000e2c 	.word	0x20000e2c
 8003a18:	20000e28 	.word	0x20000e28
 8003a1c:	20000f00 	.word	0x20000f00

08003a20 <xTaskCreate>:
	{
 8003a20:	b5f0      	push	{r4, r5, r6, r7, lr}
			pxStack = ( StackType_t * ) pvPortMalloc( ( ( ( size_t ) usStackDepth ) * sizeof( StackType_t ) ) ); /*lint !e961 MISRA exception as the casts are only redundant for some ports. */
 8003a22:	0095      	lsls	r5, r2, #2
	{
 8003a24:	b085      	sub	sp, #20
 8003a26:	9002      	str	r0, [sp, #8]
			pxStack = ( StackType_t * ) pvPortMalloc( ( ( ( size_t ) usStackDepth ) * sizeof( StackType_t ) ) ); /*lint !e961 MISRA exception as the casts are only redundant for some ports. */
 8003a28:	0028      	movs	r0, r5
	{
 8003a2a:	000f      	movs	r7, r1
 8003a2c:	9303      	str	r3, [sp, #12]
			pxStack = ( StackType_t * ) pvPortMalloc( ( ( ( size_t ) usStackDepth ) * sizeof( StackType_t ) ) ); /*lint !e961 MISRA exception as the casts are only redundant for some ports. */
 8003a2e:	f7ff ff05 	bl	800383c <pvPortMalloc>
 8003a32:	1e06      	subs	r6, r0, #0
			if( pxStack != NULL )
 8003a34:	d100      	bne.n	8003a38 <xTaskCreate+0x18>
 8003a36:	e08e      	b.n	8003b56 <xTaskCreate+0x136>
				pxNewTCB = ( TCB_t * ) pvPortMalloc( sizeof( TCB_t ) ); /*lint !e961 MISRA exception as the casts are only redundant for some paths. */
 8003a38:	2054      	movs	r0, #84	; 0x54
 8003a3a:	f7ff feff 	bl	800383c <pvPortMalloc>
 8003a3e:	1e04      	subs	r4, r0, #0
				if( pxNewTCB != NULL )
 8003a40:	d100      	bne.n	8003a44 <xTaskCreate+0x24>
 8003a42:	e085      	b.n	8003b50 <xTaskCreate+0x130>
		pxTopOfStack = ( StackType_t * ) ( ( ( portPOINTER_SIZE_TYPE ) pxTopOfStack ) & ( ~( ( portPOINTER_SIZE_TYPE ) portBYTE_ALIGNMENT_MASK ) ) ); /*lint !e923 MISRA exception.  Avoiding casts between pointers and integers is not practical.  Size differences accounted for using portPOINTER_SIZE_TYPE type. */
 8003a44:	2307      	movs	r3, #7
		pxTopOfStack = pxNewTCB->pxStack + ( ulStackDepth - ( uint32_t ) 1 );
 8003a46:	3d04      	subs	r5, #4
					pxNewTCB->pxStack = pxStack;
 8003a48:	6306      	str	r6, [r0, #48]	; 0x30
		pxTopOfStack = pxNewTCB->pxStack + ( ulStackDepth - ( uint32_t ) 1 );
 8003a4a:	1976      	adds	r6, r6, r5
		pxTopOfStack = ( StackType_t * ) ( ( ( portPOINTER_SIZE_TYPE ) pxTopOfStack ) & ( ~( ( portPOINTER_SIZE_TYPE ) portBYTE_ALIGNMENT_MASK ) ) ); /*lint !e923 MISRA exception.  Avoiding casts between pointers and integers is not practical.  Size differences accounted for using portPOINTER_SIZE_TYPE type. */
 8003a4c:	439e      	bics	r6, r3
	for( x = ( UBaseType_t ) 0; x < ( UBaseType_t ) configMAX_TASK_NAME_LEN; x++ )
 8003a4e:	2300      	movs	r3, #0
		pxTopOfStack = ( StackType_t * ) ( ( ( portPOINTER_SIZE_TYPE ) pxTopOfStack ) & ( ~( ( portPOINTER_SIZE_TYPE ) portBYTE_ALIGNMENT_MASK ) ) ); /*lint !e923 MISRA exception.  Avoiding casts between pointers and integers is not practical.  Size differences accounted for using portPOINTER_SIZE_TYPE type. */
 8003a50:	9600      	str	r6, [sp, #0]
		pxNewTCB->pcTaskName[ x ] = pcName[ x ];
 8003a52:	001a      	movs	r2, r3
 8003a54:	5cf9      	ldrb	r1, [r7, r3]
 8003a56:	3234      	adds	r2, #52	; 0x34
 8003a58:	54a1      	strb	r1, [r4, r2]
		if( pcName[ x ] == 0x00 )
 8003a5a:	5cfa      	ldrb	r2, [r7, r3]
 8003a5c:	2a00      	cmp	r2, #0
 8003a5e:	d002      	beq.n	8003a66 <xTaskCreate+0x46>
	for( x = ( UBaseType_t ) 0; x < ( UBaseType_t ) configMAX_TASK_NAME_LEN; x++ )
 8003a60:	3301      	adds	r3, #1
 8003a62:	2b10      	cmp	r3, #16
 8003a64:	d1f5      	bne.n	8003a52 <xTaskCreate+0x32>
	pxNewTCB->pcTaskName[ configMAX_TASK_NAME_LEN - 1 ] = '\0';
 8003a66:	0023      	movs	r3, r4
 8003a68:	2500      	movs	r5, #0
 8003a6a:	9e0a      	ldr	r6, [sp, #40]	; 0x28
 8003a6c:	3343      	adds	r3, #67	; 0x43
 8003a6e:	701d      	strb	r5, [r3, #0]
 8003a70:	2e06      	cmp	r6, #6
 8003a72:	d900      	bls.n	8003a76 <xTaskCreate+0x56>
 8003a74:	2606      	movs	r6, #6
	vListInitialiseItem( &( pxNewTCB->xStateListItem ) );
 8003a76:	1d23      	adds	r3, r4, #4
 8003a78:	0018      	movs	r0, r3
	pxNewTCB->uxPriority = uxPriority;
 8003a7a:	62e6      	str	r6, [r4, #44]	; 0x2c
		pxNewTCB->uxBasePriority = uxPriority;
 8003a7c:	6466      	str	r6, [r4, #68]	; 0x44
		pxNewTCB->uxMutexesHeld = 0;
 8003a7e:	64a5      	str	r5, [r4, #72]	; 0x48
	vListInitialiseItem( &( pxNewTCB->xStateListItem ) );
 8003a80:	9301      	str	r3, [sp, #4]
 8003a82:	f7ff fdb2 	bl	80035ea <vListInitialiseItem>
	vListInitialiseItem( &( pxNewTCB->xEventListItem ) );
 8003a86:	0020      	movs	r0, r4
 8003a88:	3018      	adds	r0, #24
 8003a8a:	f7ff fdae 	bl	80035ea <vListInitialiseItem>
	listSET_LIST_ITEM_VALUE( &( pxNewTCB->xEventListItem ), ( TickType_t ) configMAX_PRIORITIES - ( TickType_t ) uxPriority ); /*lint !e961 MISRA exception as the casts are only redundant for some ports. */
 8003a8e:	2307      	movs	r3, #7
 8003a90:	1b9e      	subs	r6, r3, r6
		pxNewTCB->ucNotifyState = taskNOT_WAITING_NOTIFICATION;
 8003a92:	0023      	movs	r3, r4
 8003a94:	3350      	adds	r3, #80	; 0x50
	listSET_LIST_ITEM_OWNER( &( pxNewTCB->xStateListItem ), pxNewTCB );
 8003a96:	6124      	str	r4, [r4, #16]
	listSET_LIST_ITEM_VALUE( &( pxNewTCB->xEventListItem ), ( TickType_t ) configMAX_PRIORITIES - ( TickType_t ) uxPriority ); /*lint !e961 MISRA exception as the casts are only redundant for some ports. */
 8003a98:	61a6      	str	r6, [r4, #24]
	listSET_LIST_ITEM_OWNER( &( pxNewTCB->xEventListItem ), pxNewTCB );
 8003a9a:	6264      	str	r4, [r4, #36]	; 0x24
		pxNewTCB->ulNotifiedValue = 0;
 8003a9c:	64e5      	str	r5, [r4, #76]	; 0x4c
		pxNewTCB->pxTopOfStack = pxPortInitialiseStack( pxTopOfStack, pxTaskCode, pvParameters );
 8003a9e:	9a03      	ldr	r2, [sp, #12]
		pxNewTCB->ucNotifyState = taskNOT_WAITING_NOTIFICATION;
 8003aa0:	701d      	strb	r5, [r3, #0]
		pxNewTCB->pxTopOfStack = pxPortInitialiseStack( pxTopOfStack, pxTaskCode, pvParameters );
 8003aa2:	9902      	ldr	r1, [sp, #8]
 8003aa4:	9800      	ldr	r0, [sp, #0]
 8003aa6:	f7ff fdfd 	bl	80036a4 <pxPortInitialiseStack>
	if( ( void * ) pxCreatedTask != NULL )
 8003aaa:	9b0b      	ldr	r3, [sp, #44]	; 0x2c
		pxNewTCB->pxTopOfStack = pxPortInitialiseStack( pxTopOfStack, pxTaskCode, pvParameters );
 8003aac:	6020      	str	r0, [r4, #0]
	if( ( void * ) pxCreatedTask != NULL )
 8003aae:	2b00      	cmp	r3, #0
 8003ab0:	d000      	beq.n	8003ab4 <xTaskCreate+0x94>
		*pxCreatedTask = ( TaskHandle_t ) pxNewTCB;
 8003ab2:	601c      	str	r4, [r3, #0]
	taskENTER_CRITICAL();
 8003ab4:	f7ff fe14 	bl	80036e0 <vPortEnterCritical>
		uxCurrentNumberOfTasks++;
 8003ab8:	4b2e      	ldr	r3, [pc, #184]	; (8003b74 <xTaskCreate+0x154>)
		if( pxCurrentTCB == NULL )
 8003aba:	4d2f      	ldr	r5, [pc, #188]	; (8003b78 <xTaskCreate+0x158>)
		uxCurrentNumberOfTasks++;
 8003abc:	681a      	ldr	r2, [r3, #0]
 8003abe:	3201      	adds	r2, #1
 8003ac0:	601a      	str	r2, [r3, #0]
		if( pxCurrentTCB == NULL )
 8003ac2:	682a      	ldr	r2, [r5, #0]
 8003ac4:	2a00      	cmp	r2, #0
 8003ac6:	d149      	bne.n	8003b5c <xTaskCreate+0x13c>
			pxCurrentTCB = pxNewTCB;
 8003ac8:	602c      	str	r4, [r5, #0]
			if( uxCurrentNumberOfTasks == ( UBaseType_t ) 1 )
 8003aca:	681b      	ldr	r3, [r3, #0]
 8003acc:	2b01      	cmp	r3, #1
 8003ace:	d11d      	bne.n	8003b0c <xTaskCreate+0xec>
 8003ad0:	4e2a      	ldr	r6, [pc, #168]	; (8003b7c <xTaskCreate+0x15c>)
 8003ad2:	0037      	movs	r7, r6
 8003ad4:	378c      	adds	r7, #140	; 0x8c
		vListInitialise( &( pxReadyTasksLists[ uxPriority ] ) );
 8003ad6:	0030      	movs	r0, r6
 8003ad8:	3614      	adds	r6, #20
 8003ada:	f7ff fd7b 	bl	80035d4 <vListInitialise>
	for( uxPriority = ( UBaseType_t ) 0U; uxPriority < ( UBaseType_t ) configMAX_PRIORITIES; uxPriority++ )
 8003ade:	42b7      	cmp	r7, r6
 8003ae0:	d1f9      	bne.n	8003ad6 <xTaskCreate+0xb6>
	vListInitialise( &xDelayedTaskList1 );
 8003ae2:	4e27      	ldr	r6, [pc, #156]	; (8003b80 <xTaskCreate+0x160>)
 8003ae4:	0030      	movs	r0, r6
 8003ae6:	f7ff fd75 	bl	80035d4 <vListInitialise>
	vListInitialise( &xDelayedTaskList2 );
 8003aea:	4f26      	ldr	r7, [pc, #152]	; (8003b84 <xTaskCreate+0x164>)
 8003aec:	0038      	movs	r0, r7
 8003aee:	f7ff fd71 	bl	80035d4 <vListInitialise>
	vListInitialise( &xPendingReadyList );
 8003af2:	4825      	ldr	r0, [pc, #148]	; (8003b88 <xTaskCreate+0x168>)
 8003af4:	f7ff fd6e 	bl	80035d4 <vListInitialise>
		vListInitialise( &xTasksWaitingTermination );
 8003af8:	4824      	ldr	r0, [pc, #144]	; (8003b8c <xTaskCreate+0x16c>)
 8003afa:	f7ff fd6b 	bl	80035d4 <vListInitialise>
		vListInitialise( &xSuspendedTaskList );
 8003afe:	4824      	ldr	r0, [pc, #144]	; (8003b90 <xTaskCreate+0x170>)
 8003b00:	f7ff fd68 	bl	80035d4 <vListInitialise>
	pxDelayedTaskList = &xDelayedTaskList1;
 8003b04:	4b23      	ldr	r3, [pc, #140]	; (8003b94 <xTaskCreate+0x174>)
 8003b06:	601e      	str	r6, [r3, #0]
	pxOverflowDelayedTaskList = &xDelayedTaskList2;
 8003b08:	4b23      	ldr	r3, [pc, #140]	; (8003b98 <xTaskCreate+0x178>)
 8003b0a:	601f      	str	r7, [r3, #0]
		uxTaskNumber++;
 8003b0c:	4a23      	ldr	r2, [pc, #140]	; (8003b9c <xTaskCreate+0x17c>)
 8003b0e:	6813      	ldr	r3, [r2, #0]
 8003b10:	3301      	adds	r3, #1
 8003b12:	6013      	str	r3, [r2, #0]
		prvAddTaskToReadyList( pxNewTCB );
 8003b14:	4a22      	ldr	r2, [pc, #136]	; (8003ba0 <xTaskCreate+0x180>)
 8003b16:	6ae3      	ldr	r3, [r4, #44]	; 0x2c
 8003b18:	6811      	ldr	r1, [r2, #0]
 8003b1a:	428b      	cmp	r3, r1
 8003b1c:	d900      	bls.n	8003b20 <xTaskCreate+0x100>
 8003b1e:	6013      	str	r3, [r2, #0]
 8003b20:	2014      	movs	r0, #20
 8003b22:	4358      	muls	r0, r3
 8003b24:	4b15      	ldr	r3, [pc, #84]	; (8003b7c <xTaskCreate+0x15c>)
 8003b26:	9901      	ldr	r1, [sp, #4]
 8003b28:	1818      	adds	r0, r3, r0
 8003b2a:	f7ff fd61 	bl	80035f0 <vListInsertEnd>
	taskEXIT_CRITICAL();
 8003b2e:	f7ff fde3 	bl	80036f8 <vPortExitCritical>
	if( xSchedulerRunning != pdFALSE )
 8003b32:	4b1c      	ldr	r3, [pc, #112]	; (8003ba4 <xTaskCreate+0x184>)
			xReturn = pdPASS;
 8003b34:	2601      	movs	r6, #1
	if( xSchedulerRunning != pdFALSE )
 8003b36:	681b      	ldr	r3, [r3, #0]
 8003b38:	2b00      	cmp	r3, #0
 8003b3a:	d006      	beq.n	8003b4a <xTaskCreate+0x12a>
		if( pxCurrentTCB->uxPriority < pxNewTCB->uxPriority )
 8003b3c:	682b      	ldr	r3, [r5, #0]
 8003b3e:	6ada      	ldr	r2, [r3, #44]	; 0x2c
 8003b40:	6ae3      	ldr	r3, [r4, #44]	; 0x2c
 8003b42:	429a      	cmp	r2, r3
 8003b44:	d201      	bcs.n	8003b4a <xTaskCreate+0x12a>
			taskYIELD_IF_USING_PREEMPTION();
 8003b46:	f7ff fdbf 	bl	80036c8 <vPortYield>
	}
 8003b4a:	0030      	movs	r0, r6
 8003b4c:	b005      	add	sp, #20
 8003b4e:	bdf0      	pop	{r4, r5, r6, r7, pc}
					vPortFree( pxStack );
 8003b50:	0030      	movs	r0, r6
 8003b52:	f7ff fef5 	bl	8003940 <vPortFree>
			xReturn = errCOULD_NOT_ALLOCATE_REQUIRED_MEMORY;
 8003b56:	2601      	movs	r6, #1
 8003b58:	4276      	negs	r6, r6
 8003b5a:	e7f6      	b.n	8003b4a <xTaskCreate+0x12a>
			if( xSchedulerRunning == pdFALSE )
 8003b5c:	4b11      	ldr	r3, [pc, #68]	; (8003ba4 <xTaskCreate+0x184>)
 8003b5e:	681b      	ldr	r3, [r3, #0]
 8003b60:	2b00      	cmp	r3, #0
 8003b62:	d1d3      	bne.n	8003b0c <xTaskCreate+0xec>
				if( pxCurrentTCB->uxPriority <= pxNewTCB->uxPriority )
 8003b64:	682b      	ldr	r3, [r5, #0]
 8003b66:	6ae2      	ldr	r2, [r4, #44]	; 0x2c
 8003b68:	6adb      	ldr	r3, [r3, #44]	; 0x2c
 8003b6a:	4293      	cmp	r3, r2
 8003b6c:	d8ce      	bhi.n	8003b0c <xTaskCreate+0xec>
					pxCurrentTCB = pxNewTCB;
 8003b6e:	602c      	str	r4, [r5, #0]
 8003b70:	e7cc      	b.n	8003b0c <xTaskCreate+0xec>
 8003b72:	46c0      	nop			; (mov r8, r8)
 8003b74:	20000ebc 	.word	0x20000ebc
 8003b78:	20000e24 	.word	0x20000e24
 8003b7c:	20000e30 	.word	0x20000e30
 8003b80:	20000ed4 	.word	0x20000ed4
 8003b84:	20000ee8 	.word	0x20000ee8
 8003b88:	20000f08 	.word	0x20000f08
 8003b8c:	20000f34 	.word	0x20000f34
 8003b90:	20000f20 	.word	0x20000f20
 8003b94:	20000e28 	.word	0x20000e28
 8003b98:	20000e2c 	.word	0x20000e2c
 8003b9c:	20000ecc 	.word	0x20000ecc
 8003ba0:	20000ed0 	.word	0x20000ed0
 8003ba4:	20000f1c 	.word	0x20000f1c

08003ba8 <vTaskStartScheduler>:
{
 8003ba8:	b513      	push	{r0, r1, r4, lr}
		xReturn = xTaskCreate(	prvIdleTask,
 8003baa:	2400      	movs	r4, #0
 8003bac:	4b0d      	ldr	r3, [pc, #52]	; (8003be4 <vTaskStartScheduler+0x3c>)
 8003bae:	9400      	str	r4, [sp, #0]
 8003bb0:	9301      	str	r3, [sp, #4]
 8003bb2:	2280      	movs	r2, #128	; 0x80
 8003bb4:	0023      	movs	r3, r4
 8003bb6:	490c      	ldr	r1, [pc, #48]	; (8003be8 <vTaskStartScheduler+0x40>)
 8003bb8:	480c      	ldr	r0, [pc, #48]	; (8003bec <vTaskStartScheduler+0x44>)
 8003bba:	f7ff ff31 	bl	8003a20 <xTaskCreate>
	if( xReturn == pdPASS )
 8003bbe:	2801      	cmp	r0, #1
 8003bc0:	d10b      	bne.n	8003bda <vTaskStartScheduler+0x32>
		portDISABLE_INTERRUPTS();
 8003bc2:	b672      	cpsid	i
		xNextTaskUnblockTime = portMAX_DELAY;
 8003bc4:	2201      	movs	r2, #1
 8003bc6:	4b0a      	ldr	r3, [pc, #40]	; (8003bf0 <vTaskStartScheduler+0x48>)
 8003bc8:	4252      	negs	r2, r2
 8003bca:	601a      	str	r2, [r3, #0]
		xSchedulerRunning = pdTRUE;
 8003bcc:	4b09      	ldr	r3, [pc, #36]	; (8003bf4 <vTaskStartScheduler+0x4c>)
 8003bce:	6018      	str	r0, [r3, #0]
		xTickCount = ( TickType_t ) 0U;
 8003bd0:	4b09      	ldr	r3, [pc, #36]	; (8003bf8 <vTaskStartScheduler+0x50>)
 8003bd2:	601c      	str	r4, [r3, #0]
		if( xPortStartScheduler() != pdFALSE )
 8003bd4:	f7ff fdf4 	bl	80037c0 <xPortStartScheduler>
}
 8003bd8:	bd13      	pop	{r0, r1, r4, pc}
		configASSERT( xReturn != errCOULD_NOT_ALLOCATE_REQUIRED_MEMORY );
 8003bda:	1c43      	adds	r3, r0, #1
 8003bdc:	d1fc      	bne.n	8003bd8 <vTaskStartScheduler+0x30>
 8003bde:	b672      	cpsid	i
 8003be0:	e7fe      	b.n	8003be0 <vTaskStartScheduler+0x38>
 8003be2:	46c0      	nop			; (mov r8, r8)
 8003be4:	20000efc 	.word	0x20000efc
 8003be8:	08004e1f 	.word	0x08004e1f
 8003bec:	08003e0d 	.word	0x08003e0d
 8003bf0:	20000f00 	.word	0x20000f00
 8003bf4:	20000f1c 	.word	0x20000f1c
 8003bf8:	20000f48 	.word	0x20000f48

08003bfc <vTaskSuspendAll>:
	++uxSchedulerSuspended;
 8003bfc:	4a02      	ldr	r2, [pc, #8]	; (8003c08 <vTaskSuspendAll+0xc>)
 8003bfe:	6813      	ldr	r3, [r2, #0]
 8003c00:	3301      	adds	r3, #1
 8003c02:	6013      	str	r3, [r2, #0]
}
 8003c04:	4770      	bx	lr
 8003c06:	46c0      	nop			; (mov r8, r8)
 8003c08:	20000ec8 	.word	0x20000ec8

08003c0c <xTaskIncrementTick>:
	if( uxSchedulerSuspended == ( UBaseType_t ) pdFALSE )
 8003c0c:	4b33      	ldr	r3, [pc, #204]	; (8003cdc <xTaskIncrementTick+0xd0>)
{
 8003c0e:	b5f7      	push	{r0, r1, r2, r4, r5, r6, r7, lr}
	if( uxSchedulerSuspended == ( UBaseType_t ) pdFALSE )
 8003c10:	681b      	ldr	r3, [r3, #0]
 8003c12:	2b00      	cmp	r3, #0
 8003c14:	d135      	bne.n	8003c82 <xTaskIncrementTick+0x76>
		const TickType_t xConstTickCount = xTickCount + 1;
 8003c16:	4b32      	ldr	r3, [pc, #200]	; (8003ce0 <xTaskIncrementTick+0xd4>)
 8003c18:	681c      	ldr	r4, [r3, #0]
 8003c1a:	3401      	adds	r4, #1
		xTickCount = xConstTickCount;
 8003c1c:	601c      	str	r4, [r3, #0]
		if( xConstTickCount == ( TickType_t ) 0U )
 8003c1e:	2c00      	cmp	r4, #0
 8003c20:	d111      	bne.n	8003c46 <xTaskIncrementTick+0x3a>
			taskSWITCH_DELAYED_LISTS();
 8003c22:	4b30      	ldr	r3, [pc, #192]	; (8003ce4 <xTaskIncrementTick+0xd8>)
 8003c24:	681a      	ldr	r2, [r3, #0]
 8003c26:	6812      	ldr	r2, [r2, #0]
 8003c28:	2a00      	cmp	r2, #0
 8003c2a:	d001      	beq.n	8003c30 <xTaskIncrementTick+0x24>
 8003c2c:	b672      	cpsid	i
 8003c2e:	e7fe      	b.n	8003c2e <xTaskIncrementTick+0x22>
 8003c30:	4a2d      	ldr	r2, [pc, #180]	; (8003ce8 <xTaskIncrementTick+0xdc>)
 8003c32:	6819      	ldr	r1, [r3, #0]
 8003c34:	6810      	ldr	r0, [r2, #0]
 8003c36:	6018      	str	r0, [r3, #0]
 8003c38:	6011      	str	r1, [r2, #0]
 8003c3a:	4a2c      	ldr	r2, [pc, #176]	; (8003cec <xTaskIncrementTick+0xe0>)
 8003c3c:	6813      	ldr	r3, [r2, #0]
 8003c3e:	3301      	adds	r3, #1
 8003c40:	6013      	str	r3, [r2, #0]
 8003c42:	f7ff fea1 	bl	8003988 <prvResetNextTaskUnblockTime>
		if( xConstTickCount >= xNextTaskUnblockTime )
 8003c46:	4f2a      	ldr	r7, [pc, #168]	; (8003cf0 <xTaskIncrementTick+0xe4>)
BaseType_t xSwitchRequired = pdFALSE;
 8003c48:	2600      	movs	r6, #0
		if( xConstTickCount >= xNextTaskUnblockTime )
 8003c4a:	683b      	ldr	r3, [r7, #0]
 8003c4c:	429c      	cmp	r4, r3
 8003c4e:	d307      	bcc.n	8003c60 <xTaskIncrementTick+0x54>
				if( listLIST_IS_EMPTY( pxDelayedTaskList ) != pdFALSE )
 8003c50:	4b24      	ldr	r3, [pc, #144]	; (8003ce4 <xTaskIncrementTick+0xd8>)
 8003c52:	681a      	ldr	r2, [r3, #0]
 8003c54:	6812      	ldr	r2, [r2, #0]
 8003c56:	2a00      	cmp	r2, #0
 8003c58:	d119      	bne.n	8003c8e <xTaskIncrementTick+0x82>
					xNextTaskUnblockTime = portMAX_DELAY; /*lint !e961 MISRA exception as the casts are only redundant for some ports. */
 8003c5a:	2301      	movs	r3, #1
 8003c5c:	425b      	negs	r3, r3
 8003c5e:	603b      	str	r3, [r7, #0]
			if( listCURRENT_LIST_LENGTH( &( pxReadyTasksLists[ pxCurrentTCB->uxPriority ] ) ) > ( UBaseType_t ) 1 )
 8003c60:	4b24      	ldr	r3, [pc, #144]	; (8003cf4 <xTaskIncrementTick+0xe8>)
 8003c62:	681b      	ldr	r3, [r3, #0]
 8003c64:	6ada      	ldr	r2, [r3, #44]	; 0x2c
 8003c66:	2314      	movs	r3, #20
 8003c68:	4353      	muls	r3, r2
 8003c6a:	4a23      	ldr	r2, [pc, #140]	; (8003cf8 <xTaskIncrementTick+0xec>)
 8003c6c:	58d3      	ldr	r3, [r2, r3]
 8003c6e:	2b01      	cmp	r3, #1
 8003c70:	d900      	bls.n	8003c74 <xTaskIncrementTick+0x68>
				xSwitchRequired = pdTRUE;
 8003c72:	2601      	movs	r6, #1
		if( xYieldPending != pdFALSE )
 8003c74:	4b21      	ldr	r3, [pc, #132]	; (8003cfc <xTaskIncrementTick+0xf0>)
 8003c76:	681b      	ldr	r3, [r3, #0]
 8003c78:	2b00      	cmp	r3, #0
 8003c7a:	d000      	beq.n	8003c7e <xTaskIncrementTick+0x72>
			xSwitchRequired = pdTRUE;
 8003c7c:	2601      	movs	r6, #1
}
 8003c7e:	0030      	movs	r0, r6
 8003c80:	bdfe      	pop	{r1, r2, r3, r4, r5, r6, r7, pc}
		++uxPendedTicks;
 8003c82:	4a1f      	ldr	r2, [pc, #124]	; (8003d00 <xTaskIncrementTick+0xf4>)
BaseType_t xSwitchRequired = pdFALSE;
 8003c84:	2600      	movs	r6, #0
		++uxPendedTicks;
 8003c86:	6813      	ldr	r3, [r2, #0]
 8003c88:	3301      	adds	r3, #1
 8003c8a:	6013      	str	r3, [r2, #0]
 8003c8c:	e7f2      	b.n	8003c74 <xTaskIncrementTick+0x68>
					pxTCB = ( TCB_t * ) listGET_OWNER_OF_HEAD_ENTRY( pxDelayedTaskList );
 8003c8e:	681b      	ldr	r3, [r3, #0]
 8003c90:	68db      	ldr	r3, [r3, #12]
 8003c92:	68dd      	ldr	r5, [r3, #12]
					xItemValue = listGET_LIST_ITEM_VALUE( &( pxTCB->xStateListItem ) );
 8003c94:	686b      	ldr	r3, [r5, #4]
					if( xConstTickCount < xItemValue )
 8003c96:	429c      	cmp	r4, r3
 8003c98:	d3e1      	bcc.n	8003c5e <xTaskIncrementTick+0x52>
					( void ) uxListRemove( &( pxTCB->xStateListItem ) );
 8003c9a:	1d2b      	adds	r3, r5, #4
 8003c9c:	0018      	movs	r0, r3
 8003c9e:	9301      	str	r3, [sp, #4]
 8003ca0:	f7ff fcc9 	bl	8003636 <uxListRemove>
					if( listLIST_ITEM_CONTAINER( &( pxTCB->xEventListItem ) ) != NULL )
 8003ca4:	6aab      	ldr	r3, [r5, #40]	; 0x28
 8003ca6:	2b00      	cmp	r3, #0
 8003ca8:	d003      	beq.n	8003cb2 <xTaskIncrementTick+0xa6>
						( void ) uxListRemove( &( pxTCB->xEventListItem ) );
 8003caa:	0028      	movs	r0, r5
 8003cac:	3018      	adds	r0, #24
 8003cae:	f7ff fcc2 	bl	8003636 <uxListRemove>
					prvAddTaskToReadyList( pxTCB );
 8003cb2:	4b14      	ldr	r3, [pc, #80]	; (8003d04 <xTaskIncrementTick+0xf8>)
 8003cb4:	6ae8      	ldr	r0, [r5, #44]	; 0x2c
 8003cb6:	681a      	ldr	r2, [r3, #0]
 8003cb8:	4290      	cmp	r0, r2
 8003cba:	d900      	bls.n	8003cbe <xTaskIncrementTick+0xb2>
 8003cbc:	6018      	str	r0, [r3, #0]
 8003cbe:	2314      	movs	r3, #20
 8003cc0:	4358      	muls	r0, r3
 8003cc2:	4b0d      	ldr	r3, [pc, #52]	; (8003cf8 <xTaskIncrementTick+0xec>)
 8003cc4:	1d29      	adds	r1, r5, #4
 8003cc6:	1818      	adds	r0, r3, r0
 8003cc8:	f7ff fc92 	bl	80035f0 <vListInsertEnd>
						if( pxTCB->uxPriority >= pxCurrentTCB->uxPriority )
 8003ccc:	4b09      	ldr	r3, [pc, #36]	; (8003cf4 <xTaskIncrementTick+0xe8>)
 8003cce:	6aea      	ldr	r2, [r5, #44]	; 0x2c
 8003cd0:	681b      	ldr	r3, [r3, #0]
 8003cd2:	6adb      	ldr	r3, [r3, #44]	; 0x2c
 8003cd4:	429a      	cmp	r2, r3
 8003cd6:	d3bb      	bcc.n	8003c50 <xTaskIncrementTick+0x44>
							xSwitchRequired = pdTRUE;
 8003cd8:	2601      	movs	r6, #1
 8003cda:	e7b9      	b.n	8003c50 <xTaskIncrementTick+0x44>
 8003cdc:	20000ec8 	.word	0x20000ec8
 8003ce0:	20000f48 	.word	0x20000f48
 8003ce4:	20000e28 	.word	0x20000e28
 8003ce8:	20000e2c 	.word	0x20000e2c
 8003cec:	20000f04 	.word	0x20000f04
 8003cf0:	20000f00 	.word	0x20000f00
 8003cf4:	20000e24 	.word	0x20000e24
 8003cf8:	20000e30 	.word	0x20000e30
 8003cfc:	20000f4c 	.word	0x20000f4c
 8003d00:	20000ec4 	.word	0x20000ec4
 8003d04:	20000ed0 	.word	0x20000ed0

08003d08 <xTaskResumeAll>:
{
 8003d08:	b5f8      	push	{r3, r4, r5, r6, r7, lr}
	configASSERT( uxSchedulerSuspended );
 8003d0a:	4c2b      	ldr	r4, [pc, #172]	; (8003db8 <xTaskResumeAll+0xb0>)
 8003d0c:	6823      	ldr	r3, [r4, #0]
 8003d0e:	2b00      	cmp	r3, #0
 8003d10:	d101      	bne.n	8003d16 <xTaskResumeAll+0xe>
 8003d12:	b672      	cpsid	i
 8003d14:	e7fe      	b.n	8003d14 <xTaskResumeAll+0xc>
	taskENTER_CRITICAL();
 8003d16:	f7ff fce3 	bl	80036e0 <vPortEnterCritical>
		--uxSchedulerSuspended;
 8003d1a:	6823      	ldr	r3, [r4, #0]
 8003d1c:	3b01      	subs	r3, #1
 8003d1e:	6023      	str	r3, [r4, #0]
		if( uxSchedulerSuspended == ( UBaseType_t ) pdFALSE )
 8003d20:	6824      	ldr	r4, [r4, #0]
 8003d22:	2c00      	cmp	r4, #0
 8003d24:	d004      	beq.n	8003d30 <xTaskResumeAll+0x28>
BaseType_t xAlreadyYielded = pdFALSE;
 8003d26:	2400      	movs	r4, #0
	taskEXIT_CRITICAL();
 8003d28:	f7ff fce6 	bl	80036f8 <vPortExitCritical>
}
 8003d2c:	0020      	movs	r0, r4
 8003d2e:	bdf8      	pop	{r3, r4, r5, r6, r7, pc}
			if( uxCurrentNumberOfTasks > ( UBaseType_t ) 0U )
 8003d30:	4b22      	ldr	r3, [pc, #136]	; (8003dbc <xTaskResumeAll+0xb4>)
 8003d32:	681b      	ldr	r3, [r3, #0]
 8003d34:	2b00      	cmp	r3, #0
 8003d36:	d0f6      	beq.n	8003d26 <xTaskResumeAll+0x1e>
					prvAddTaskToReadyList( pxTCB );
 8003d38:	2614      	movs	r6, #20
						xYieldPending = pdTRUE;
 8003d3a:	2701      	movs	r7, #1
				while( listLIST_IS_EMPTY( &xPendingReadyList ) == pdFALSE )
 8003d3c:	4b20      	ldr	r3, [pc, #128]	; (8003dc0 <xTaskResumeAll+0xb8>)
 8003d3e:	681a      	ldr	r2, [r3, #0]
 8003d40:	2a00      	cmp	r2, #0
 8003d42:	d11a      	bne.n	8003d7a <xTaskResumeAll+0x72>
				if( pxTCB != NULL )
 8003d44:	2c00      	cmp	r4, #0
 8003d46:	d001      	beq.n	8003d4c <xTaskResumeAll+0x44>
					prvResetNextTaskUnblockTime();
 8003d48:	f7ff fe1e 	bl	8003988 <prvResetNextTaskUnblockTime>
					UBaseType_t uxPendedCounts = uxPendedTicks; /* Non-volatile copy. */
 8003d4c:	4d1d      	ldr	r5, [pc, #116]	; (8003dc4 <xTaskResumeAll+0xbc>)
 8003d4e:	682c      	ldr	r4, [r5, #0]
					if( uxPendedCounts > ( UBaseType_t ) 0U )
 8003d50:	2c00      	cmp	r4, #0
 8003d52:	d00a      	beq.n	8003d6a <xTaskResumeAll+0x62>
								xYieldPending = pdTRUE;
 8003d54:	2601      	movs	r6, #1
							if( xTaskIncrementTick() != pdFALSE )
 8003d56:	f7ff ff59 	bl	8003c0c <xTaskIncrementTick>
 8003d5a:	2800      	cmp	r0, #0
 8003d5c:	d001      	beq.n	8003d62 <xTaskResumeAll+0x5a>
								xYieldPending = pdTRUE;
 8003d5e:	4b1a      	ldr	r3, [pc, #104]	; (8003dc8 <xTaskResumeAll+0xc0>)
 8003d60:	601e      	str	r6, [r3, #0]
							--uxPendedCounts;
 8003d62:	3c01      	subs	r4, #1
						} while( uxPendedCounts > ( UBaseType_t ) 0U );
 8003d64:	2c00      	cmp	r4, #0
 8003d66:	d1f6      	bne.n	8003d56 <xTaskResumeAll+0x4e>
						uxPendedTicks = 0;
 8003d68:	602c      	str	r4, [r5, #0]
				if( xYieldPending != pdFALSE )
 8003d6a:	4b17      	ldr	r3, [pc, #92]	; (8003dc8 <xTaskResumeAll+0xc0>)
 8003d6c:	681b      	ldr	r3, [r3, #0]
 8003d6e:	2b00      	cmp	r3, #0
 8003d70:	d0d9      	beq.n	8003d26 <xTaskResumeAll+0x1e>
					taskYIELD_IF_USING_PREEMPTION();
 8003d72:	f7ff fca9 	bl	80036c8 <vPortYield>
						xAlreadyYielded = pdTRUE;
 8003d76:	2401      	movs	r4, #1
 8003d78:	e7d6      	b.n	8003d28 <xTaskResumeAll+0x20>
					pxTCB = ( TCB_t * ) listGET_OWNER_OF_HEAD_ENTRY( ( &xPendingReadyList ) );
 8003d7a:	68db      	ldr	r3, [r3, #12]
 8003d7c:	68dc      	ldr	r4, [r3, #12]
					( void ) uxListRemove( &( pxTCB->xEventListItem ) );
 8003d7e:	0020      	movs	r0, r4
					( void ) uxListRemove( &( pxTCB->xStateListItem ) );
 8003d80:	1d25      	adds	r5, r4, #4
					( void ) uxListRemove( &( pxTCB->xEventListItem ) );
 8003d82:	3018      	adds	r0, #24
 8003d84:	f7ff fc57 	bl	8003636 <uxListRemove>
					( void ) uxListRemove( &( pxTCB->xStateListItem ) );
 8003d88:	0028      	movs	r0, r5
 8003d8a:	f7ff fc54 	bl	8003636 <uxListRemove>
					prvAddTaskToReadyList( pxTCB );
 8003d8e:	4b0f      	ldr	r3, [pc, #60]	; (8003dcc <xTaskResumeAll+0xc4>)
 8003d90:	6ae0      	ldr	r0, [r4, #44]	; 0x2c
 8003d92:	681a      	ldr	r2, [r3, #0]
 8003d94:	4290      	cmp	r0, r2
 8003d96:	d900      	bls.n	8003d9a <xTaskResumeAll+0x92>
 8003d98:	6018      	str	r0, [r3, #0]
 8003d9a:	4370      	muls	r0, r6
 8003d9c:	4b0c      	ldr	r3, [pc, #48]	; (8003dd0 <xTaskResumeAll+0xc8>)
 8003d9e:	0029      	movs	r1, r5
 8003da0:	1818      	adds	r0, r3, r0
 8003da2:	f7ff fc25 	bl	80035f0 <vListInsertEnd>
					if( pxTCB->uxPriority >= pxCurrentTCB->uxPriority )
 8003da6:	4b0b      	ldr	r3, [pc, #44]	; (8003dd4 <xTaskResumeAll+0xcc>)
 8003da8:	6ae2      	ldr	r2, [r4, #44]	; 0x2c
 8003daa:	681b      	ldr	r3, [r3, #0]
 8003dac:	6adb      	ldr	r3, [r3, #44]	; 0x2c
 8003dae:	429a      	cmp	r2, r3
 8003db0:	d3c4      	bcc.n	8003d3c <xTaskResumeAll+0x34>
						xYieldPending = pdTRUE;
 8003db2:	4b05      	ldr	r3, [pc, #20]	; (8003dc8 <xTaskResumeAll+0xc0>)
 8003db4:	601f      	str	r7, [r3, #0]
 8003db6:	e7c1      	b.n	8003d3c <xTaskResumeAll+0x34>
 8003db8:	20000ec8 	.word	0x20000ec8
 8003dbc:	20000ebc 	.word	0x20000ebc
 8003dc0:	20000f08 	.word	0x20000f08
 8003dc4:	20000ec4 	.word	0x20000ec4
 8003dc8:	20000f4c 	.word	0x20000f4c
 8003dcc:	20000ed0 	.word	0x20000ed0
 8003dd0:	20000e30 	.word	0x20000e30
 8003dd4:	20000e24 	.word	0x20000e24

08003dd8 <vTaskDelay>:
	{
 8003dd8:	b570      	push	{r4, r5, r6, lr}
 8003dda:	1e04      	subs	r4, r0, #0
		if( xTicksToDelay > ( TickType_t ) 0U )
 8003ddc:	d102      	bne.n	8003de4 <vTaskDelay+0xc>
			portYIELD_WITHIN_API();
 8003dde:	f7ff fc73 	bl	80036c8 <vPortYield>
	}
 8003de2:	bd70      	pop	{r4, r5, r6, pc}
			configASSERT( uxSchedulerSuspended == 0 );
 8003de4:	4b08      	ldr	r3, [pc, #32]	; (8003e08 <vTaskDelay+0x30>)
 8003de6:	681d      	ldr	r5, [r3, #0]
 8003de8:	2d00      	cmp	r5, #0
 8003dea:	d001      	beq.n	8003df0 <vTaskDelay+0x18>
 8003dec:	b672      	cpsid	i
 8003dee:	e7fe      	b.n	8003dee <vTaskDelay+0x16>
			vTaskSuspendAll();
 8003df0:	f7ff ff04 	bl	8003bfc <vTaskSuspendAll>
				prvAddCurrentTaskToDelayedList( xTicksToDelay, pdFALSE );
 8003df4:	0029      	movs	r1, r5
 8003df6:	0020      	movs	r0, r4
 8003df8:	f7ff fdda 	bl	80039b0 <prvAddCurrentTaskToDelayedList>
			xAlreadyYielded = xTaskResumeAll();
 8003dfc:	f7ff ff84 	bl	8003d08 <xTaskResumeAll>
		if( xAlreadyYielded == pdFALSE )
 8003e00:	2800      	cmp	r0, #0
 8003e02:	d1ee      	bne.n	8003de2 <vTaskDelay+0xa>
 8003e04:	e7eb      	b.n	8003dde <vTaskDelay+0x6>
 8003e06:	46c0      	nop			; (mov r8, r8)
 8003e08:	20000ec8 	.word	0x20000ec8

08003e0c <prvIdleTask>:
{
 8003e0c:	b570      	push	{r4, r5, r6, lr}
		while( uxDeletedTasksWaitingCleanUp > ( UBaseType_t ) 0U )
 8003e0e:	4c15      	ldr	r4, [pc, #84]	; (8003e64 <prvIdleTask+0x58>)
 8003e10:	6823      	ldr	r3, [r4, #0]
 8003e12:	2b00      	cmp	r3, #0
 8003e14:	d106      	bne.n	8003e24 <prvIdleTask+0x18>
			if( listCURRENT_LIST_LENGTH( &( pxReadyTasksLists[ tskIDLE_PRIORITY ] ) ) > ( UBaseType_t ) 1 )
 8003e16:	4b14      	ldr	r3, [pc, #80]	; (8003e68 <prvIdleTask+0x5c>)
 8003e18:	681b      	ldr	r3, [r3, #0]
 8003e1a:	2b01      	cmp	r3, #1
 8003e1c:	d9f7      	bls.n	8003e0e <prvIdleTask+0x2>
				taskYIELD();
 8003e1e:	f7ff fc53 	bl	80036c8 <vPortYield>
 8003e22:	e7f4      	b.n	8003e0e <prvIdleTask+0x2>
			vTaskSuspendAll();
 8003e24:	f7ff feea 	bl	8003bfc <vTaskSuspendAll>
				xListIsEmpty = listLIST_IS_EMPTY( &xTasksWaitingTermination );
 8003e28:	4d10      	ldr	r5, [pc, #64]	; (8003e6c <prvIdleTask+0x60>)
 8003e2a:	682e      	ldr	r6, [r5, #0]
			( void ) xTaskResumeAll();
 8003e2c:	f7ff ff6c 	bl	8003d08 <xTaskResumeAll>
			if( xListIsEmpty == pdFALSE )
 8003e30:	2e00      	cmp	r6, #0
 8003e32:	d0ec      	beq.n	8003e0e <prvIdleTask+0x2>
				taskENTER_CRITICAL();
 8003e34:	f7ff fc54 	bl	80036e0 <vPortEnterCritical>
					pxTCB = ( TCB_t * ) listGET_OWNER_OF_HEAD_ENTRY( ( &xTasksWaitingTermination ) );
 8003e38:	68eb      	ldr	r3, [r5, #12]
 8003e3a:	68dd      	ldr	r5, [r3, #12]
					( void ) uxListRemove( &( pxTCB->xStateListItem ) );
 8003e3c:	1d28      	adds	r0, r5, #4
 8003e3e:	f7ff fbfa 	bl	8003636 <uxListRemove>
					--uxCurrentNumberOfTasks;
 8003e42:	4a0b      	ldr	r2, [pc, #44]	; (8003e70 <prvIdleTask+0x64>)
 8003e44:	6813      	ldr	r3, [r2, #0]
 8003e46:	3b01      	subs	r3, #1
 8003e48:	6013      	str	r3, [r2, #0]
					--uxDeletedTasksWaitingCleanUp;
 8003e4a:	6823      	ldr	r3, [r4, #0]
 8003e4c:	3b01      	subs	r3, #1
 8003e4e:	6023      	str	r3, [r4, #0]
				taskEXIT_CRITICAL();
 8003e50:	f7ff fc52 	bl	80036f8 <vPortExitCritical>
			vPortFree( pxTCB->pxStack );
 8003e54:	6b28      	ldr	r0, [r5, #48]	; 0x30
 8003e56:	f7ff fd73 	bl	8003940 <vPortFree>
			vPortFree( pxTCB );
 8003e5a:	0028      	movs	r0, r5
 8003e5c:	f7ff fd70 	bl	8003940 <vPortFree>
 8003e60:	e7d5      	b.n	8003e0e <prvIdleTask+0x2>
 8003e62:	46c0      	nop			; (mov r8, r8)
 8003e64:	20000ec0 	.word	0x20000ec0
 8003e68:	20000e30 	.word	0x20000e30
 8003e6c:	20000f34 	.word	0x20000f34
 8003e70:	20000ebc 	.word	0x20000ebc

08003e74 <vTaskSwitchContext>:
	if( uxSchedulerSuspended != ( UBaseType_t ) pdFALSE )
 8003e74:	4b15      	ldr	r3, [pc, #84]	; (8003ecc <vTaskSwitchContext+0x58>)
{
 8003e76:	b530      	push	{r4, r5, lr}
	if( uxSchedulerSuspended != ( UBaseType_t ) pdFALSE )
 8003e78:	681a      	ldr	r2, [r3, #0]
 8003e7a:	4b15      	ldr	r3, [pc, #84]	; (8003ed0 <vTaskSwitchContext+0x5c>)
 8003e7c:	2a00      	cmp	r2, #0
 8003e7e:	d002      	beq.n	8003e86 <vTaskSwitchContext+0x12>
		xYieldPending = pdTRUE;
 8003e80:	2201      	movs	r2, #1
 8003e82:	601a      	str	r2, [r3, #0]
}
 8003e84:	bd30      	pop	{r4, r5, pc}
 8003e86:	2414      	movs	r4, #20
		taskSELECT_HIGHEST_PRIORITY_TASK();
 8003e88:	4812      	ldr	r0, [pc, #72]	; (8003ed4 <vTaskSwitchContext+0x60>)
		xYieldPending = pdFALSE;
 8003e8a:	601a      	str	r2, [r3, #0]
		taskSELECT_HIGHEST_PRIORITY_TASK();
 8003e8c:	6802      	ldr	r2, [r0, #0]
 8003e8e:	4912      	ldr	r1, [pc, #72]	; (8003ed8 <vTaskSwitchContext+0x64>)
 8003e90:	0023      	movs	r3, r4
 8003e92:	4353      	muls	r3, r2
 8003e94:	585d      	ldr	r5, [r3, r1]
 8003e96:	2d00      	cmp	r5, #0
 8003e98:	d012      	beq.n	8003ec0 <vTaskSwitchContext+0x4c>
 8003e9a:	18cc      	adds	r4, r1, r3
 8003e9c:	6865      	ldr	r5, [r4, #4]
 8003e9e:	3308      	adds	r3, #8
 8003ea0:	686d      	ldr	r5, [r5, #4]
 8003ea2:	18cb      	adds	r3, r1, r3
 8003ea4:	6065      	str	r5, [r4, #4]
 8003ea6:	429d      	cmp	r5, r3
 8003ea8:	d101      	bne.n	8003eae <vTaskSwitchContext+0x3a>
 8003eaa:	686b      	ldr	r3, [r5, #4]
 8003eac:	6063      	str	r3, [r4, #4]
 8003eae:	2314      	movs	r3, #20
 8003eb0:	4353      	muls	r3, r2
 8003eb2:	18c9      	adds	r1, r1, r3
 8003eb4:	684b      	ldr	r3, [r1, #4]
 8003eb6:	68d9      	ldr	r1, [r3, #12]
 8003eb8:	4b08      	ldr	r3, [pc, #32]	; (8003edc <vTaskSwitchContext+0x68>)
 8003eba:	6019      	str	r1, [r3, #0]
 8003ebc:	6002      	str	r2, [r0, #0]
}
 8003ebe:	e7e1      	b.n	8003e84 <vTaskSwitchContext+0x10>
		taskSELECT_HIGHEST_PRIORITY_TASK();
 8003ec0:	2a00      	cmp	r2, #0
 8003ec2:	d101      	bne.n	8003ec8 <vTaskSwitchContext+0x54>
 8003ec4:	b672      	cpsid	i
 8003ec6:	e7fe      	b.n	8003ec6 <vTaskSwitchContext+0x52>
 8003ec8:	3a01      	subs	r2, #1
 8003eca:	e7e1      	b.n	8003e90 <vTaskSwitchContext+0x1c>
 8003ecc:	20000ec8 	.word	0x20000ec8
 8003ed0:	20000f4c 	.word	0x20000f4c
 8003ed4:	20000ed0 	.word	0x20000ed0
 8003ed8:	20000e30 	.word	0x20000e30
 8003edc:	20000e24 	.word	0x20000e24

08003ee0 <MX_USB_DEVICE_Init>:
/**
  * Init USB device Library, add supported class and start the library
  * @retval None
  */
void MX_USB_DEVICE_Init(void)
{
 8003ee0:	b510      	push	{r4, lr}
  /* USER CODE BEGIN USB_DEVICE_Init_PreTreatment */
  
  /* USER CODE END USB_DEVICE_Init_PreTreatment */
  
  /* Init Device Library, add supported class and start the library. */
  if (USBD_Init(&hUsbDeviceFS, &FS_Desc, DEVICE_FS) != USBD_OK)
 8003ee2:	4c11      	ldr	r4, [pc, #68]	; (8003f28 <MX_USB_DEVICE_Init+0x48>)
 8003ee4:	2200      	movs	r2, #0
 8003ee6:	4911      	ldr	r1, [pc, #68]	; (8003f2c <MX_USB_DEVICE_Init+0x4c>)
 8003ee8:	0020      	movs	r0, r4
 8003eea:	f7fe ffe7 	bl	8002ebc <USBD_Init>
 8003eee:	2800      	cmp	r0, #0
 8003ef0:	d001      	beq.n	8003ef6 <MX_USB_DEVICE_Init+0x16>
  {
    Error_Handler();
 8003ef2:	f7fc fc51 	bl	8000798 <Error_Handler>
  }
  if (USBD_RegisterClass(&hUsbDeviceFS, &USBD_CDC) != USBD_OK)
 8003ef6:	490e      	ldr	r1, [pc, #56]	; (8003f30 <MX_USB_DEVICE_Init+0x50>)
 8003ef8:	0020      	movs	r0, r4
 8003efa:	f7fe fff9 	bl	8002ef0 <USBD_RegisterClass>
 8003efe:	2800      	cmp	r0, #0
 8003f00:	d001      	beq.n	8003f06 <MX_USB_DEVICE_Init+0x26>
  {
    Error_Handler();
 8003f02:	f7fc fc49 	bl	8000798 <Error_Handler>
  }
  if (USBD_CDC_RegisterInterface(&hUsbDeviceFS, &USBD_Interface_fops_FS) != USBD_OK)
 8003f06:	490b      	ldr	r1, [pc, #44]	; (8003f34 <MX_USB_DEVICE_Init+0x54>)
 8003f08:	0020      	movs	r0, r4
 8003f0a:	f7fe ff87 	bl	8002e1c <USBD_CDC_RegisterInterface>
 8003f0e:	2800      	cmp	r0, #0
 8003f10:	d001      	beq.n	8003f16 <MX_USB_DEVICE_Init+0x36>
  {
    Error_Handler();
 8003f12:	f7fc fc41 	bl	8000798 <Error_Handler>
  }
  if (USBD_Start(&hUsbDeviceFS) != USBD_OK)
 8003f16:	0020      	movs	r0, r4
 8003f18:	f7fe fff3 	bl	8002f02 <USBD_Start>
 8003f1c:	2800      	cmp	r0, #0
 8003f1e:	d001      	beq.n	8003f24 <MX_USB_DEVICE_Init+0x44>
  {
    Error_Handler();
 8003f20:	f7fc fc3a 	bl	8000798 <Error_Handler>
  }
  /* USER CODE BEGIN USB_DEVICE_Init_PostTreatment */
  
  /* USER CODE END USB_DEVICE_Init_PostTreatment */
}
 8003f24:	bd10      	pop	{r4, pc}
 8003f26:	46c0      	nop			; (mov r8, r8)
 8003f28:	200012f4 	.word	0x200012f4
 8003f2c:	20000134 	.word	0x20000134
 8003f30:	20000010 	.word	0x20000010
 8003f34:	20000124 	.word	0x20000124

08003f38 <CDC_DeInit_FS>:
static int8_t CDC_DeInit_FS(void)
{
  /* USER CODE BEGIN 4 */
  return (USBD_OK);
  /* USER CODE END 4 */
}
 8003f38:	2000      	movs	r0, #0
 8003f3a:	4770      	bx	lr

08003f3c <CDC_Control_FS>:
    break;
  }

  return (USBD_OK);
  /* USER CODE END 5 */
}
 8003f3c:	2000      	movs	r0, #0
 8003f3e:	4770      	bx	lr

08003f40 <CDC_Receive_FS>:
  * @param  Buf: Buffer of data to be received
  * @param  Len: Number of data received (in bytes)
  * @retval Result of the operation: USBD_OK if all operations are OK else USBD_FAIL
  */
static int8_t CDC_Receive_FS(uint8_t* Buf, uint32_t *Len)
{
 8003f40:	b510      	push	{r4, lr}
  /* USER CODE BEGIN 6 */
  USBD_CDC_SetRxBuffer(&hUsbDeviceFS, &Buf[0]);
 8003f42:	4c05      	ldr	r4, [pc, #20]	; (8003f58 <CDC_Receive_FS+0x18>)
{
 8003f44:	0001      	movs	r1, r0
  USBD_CDC_SetRxBuffer(&hUsbDeviceFS, &Buf[0]);
 8003f46:	0020      	movs	r0, r4
 8003f48:	f7fe ff7c 	bl	8002e44 <USBD_CDC_SetRxBuffer>
  USBD_CDC_ReceivePacket(&hUsbDeviceFS);
 8003f4c:	0020      	movs	r0, r4
 8003f4e:	f7fe ff9b 	bl	8002e88 <USBD_CDC_ReceivePacket>
  return (USBD_OK);
  /* USER CODE END 6 */
}
 8003f52:	2000      	movs	r0, #0
 8003f54:	bd10      	pop	{r4, pc}
 8003f56:	46c0      	nop			; (mov r8, r8)
 8003f58:	200012f4 	.word	0x200012f4

08003f5c <CDC_Init_FS>:
{
 8003f5c:	b510      	push	{r4, lr}
  USBD_CDC_SetTxBuffer(&hUsbDeviceFS, UserTxBufferFS, 0);
 8003f5e:	4c06      	ldr	r4, [pc, #24]	; (8003f78 <CDC_Init_FS+0x1c>)
 8003f60:	2200      	movs	r2, #0
 8003f62:	4906      	ldr	r1, [pc, #24]	; (8003f7c <CDC_Init_FS+0x20>)
 8003f64:	0020      	movs	r0, r4
 8003f66:	f7fe ff62 	bl	8002e2e <USBD_CDC_SetTxBuffer>
  USBD_CDC_SetRxBuffer(&hUsbDeviceFS, UserRxBufferFS);
 8003f6a:	4905      	ldr	r1, [pc, #20]	; (8003f80 <CDC_Init_FS+0x24>)
 8003f6c:	0020      	movs	r0, r4
 8003f6e:	f7fe ff69 	bl	8002e44 <USBD_CDC_SetRxBuffer>
}
 8003f72:	2000      	movs	r0, #0
 8003f74:	bd10      	pop	{r4, pc}
 8003f76:	46c0      	nop			; (mov r8, r8)
 8003f78:	200012f4 	.word	0x200012f4
 8003f7c:	20001900 	.word	0x20001900
 8003f80:	20001518 	.word	0x20001518

08003f84 <CDC_Transmit_FS>:
  * @param  Buf: Buffer of data to be sent
  * @param  Len: Number of data to be sent (in bytes)
  * @retval USBD_OK if all operations are OK else USBD_FAIL or USBD_BUSY
  */
uint8_t CDC_Transmit_FS(uint8_t* Buf, uint16_t Len)
{
 8003f84:	000a      	movs	r2, r1
  uint8_t result = USBD_OK;
  /* USER CODE BEGIN 7 */
  USBD_CDC_HandleTypeDef *hcdc = (USBD_CDC_HandleTypeDef*)hUsbDeviceFS.pClassData;
 8003f86:	2186      	movs	r1, #134	; 0x86
{
 8003f88:	b510      	push	{r4, lr}
  USBD_CDC_HandleTypeDef *hcdc = (USBD_CDC_HandleTypeDef*)hUsbDeviceFS.pClassData;
 8003f8a:	4c08      	ldr	r4, [pc, #32]	; (8003fac <CDC_Transmit_FS+0x28>)
 8003f8c:	0089      	lsls	r1, r1, #2
{
 8003f8e:	0003      	movs	r3, r0
  USBD_CDC_HandleTypeDef *hcdc = (USBD_CDC_HandleTypeDef*)hUsbDeviceFS.pClassData;
 8003f90:	5860      	ldr	r0, [r4, r1]
  if (hcdc->TxState != 0){
 8003f92:	3904      	subs	r1, #4
 8003f94:	5841      	ldr	r1, [r0, r1]
    return USBD_BUSY;
 8003f96:	2001      	movs	r0, #1
  if (hcdc->TxState != 0){
 8003f98:	2900      	cmp	r1, #0
 8003f9a:	d106      	bne.n	8003faa <CDC_Transmit_FS+0x26>
  }
  USBD_CDC_SetTxBuffer(&hUsbDeviceFS, Buf, Len);
 8003f9c:	0019      	movs	r1, r3
 8003f9e:	0020      	movs	r0, r4
 8003fa0:	f7fe ff45 	bl	8002e2e <USBD_CDC_SetTxBuffer>
  result = USBD_CDC_TransmitPacket(&hUsbDeviceFS);
 8003fa4:	0020      	movs	r0, r4
 8003fa6:	f7fe ff54 	bl	8002e52 <USBD_CDC_TransmitPacket>
  /* USER CODE END 7 */
  return result;
}
 8003faa:	bd10      	pop	{r4, pc}
 8003fac:	200012f4 	.word	0x200012f4

08003fb0 <USBD_FS_DeviceDescriptor>:
  * @param  length : Pointer to data length variable
  * @retval Pointer to descriptor buffer
  */
uint8_t * USBD_FS_DeviceDescriptor(USBD_SpeedTypeDef speed, uint16_t *length)
{
  *length = sizeof(USBD_FS_DeviceDesc);
 8003fb0:	2312      	movs	r3, #18
  return USBD_FS_DeviceDesc;
}
 8003fb2:	4801      	ldr	r0, [pc, #4]	; (8003fb8 <USBD_FS_DeviceDescriptor+0x8>)
  *length = sizeof(USBD_FS_DeviceDesc);
 8003fb4:	800b      	strh	r3, [r1, #0]
}
 8003fb6:	4770      	bx	lr
 8003fb8:	20000150 	.word	0x20000150

08003fbc <USBD_FS_LangIDStrDescriptor>:
  * @param  length : Pointer to data length variable
  * @retval Pointer to descriptor buffer
  */
uint8_t * USBD_FS_LangIDStrDescriptor(USBD_SpeedTypeDef speed, uint16_t *length)
{
  *length = sizeof(USBD_LangIDDesc);
 8003fbc:	2304      	movs	r3, #4
  return USBD_LangIDDesc;
}
 8003fbe:	4801      	ldr	r0, [pc, #4]	; (8003fc4 <USBD_FS_LangIDStrDescriptor+0x8>)
  *length = sizeof(USBD_LangIDDesc);
 8003fc0:	800b      	strh	r3, [r1, #0]
}
 8003fc2:	4770      	bx	lr
 8003fc4:	20000164 	.word	0x20000164

08003fc8 <IntToUnicode>:
  * @param  pbuf: pointer to the buffer 
  * @param  len: buffer length
  * @retval None
  */
static void IntToUnicode(uint32_t value, uint8_t * pbuf, uint8_t len)
{
 8003fc8:	b510      	push	{r4, lr}
      pbuf[2 * idx] = (value >> 28) + 'A' - 10;
    }

    value = value << 4;

    pbuf[2 * idx + 1] = 0;
 8003fca:	2400      	movs	r4, #0
 8003fcc:	0052      	lsls	r2, r2, #1
 8003fce:	188a      	adds	r2, r1, r2
  for (idx = 0; idx < len; idx++)
 8003fd0:	4291      	cmp	r1, r2
 8003fd2:	d100      	bne.n	8003fd6 <IntToUnicode+0xe>
  }
}
 8003fd4:	bd10      	pop	{r4, pc}
    if (((value >> 28)) < 0xA)
 8003fd6:	0f03      	lsrs	r3, r0, #28
 8003fd8:	2b09      	cmp	r3, #9
 8003fda:	d805      	bhi.n	8003fe8 <IntToUnicode+0x20>
      pbuf[2 * idx] = (value >> 28) + '0';
 8003fdc:	3330      	adds	r3, #48	; 0x30
      pbuf[2 * idx] = (value >> 28) + 'A' - 10;
 8003fde:	700b      	strb	r3, [r1, #0]
    pbuf[2 * idx + 1] = 0;
 8003fe0:	704c      	strb	r4, [r1, #1]
    value = value << 4;
 8003fe2:	0100      	lsls	r0, r0, #4
 8003fe4:	3102      	adds	r1, #2
 8003fe6:	e7f3      	b.n	8003fd0 <IntToUnicode+0x8>
      pbuf[2 * idx] = (value >> 28) + 'A' - 10;
 8003fe8:	3337      	adds	r3, #55	; 0x37
 8003fea:	e7f8      	b.n	8003fde <IntToUnicode+0x16>

08003fec <USBD_FS_SerialStrDescriptor>:
  *length = USB_SIZ_STRING_SERIAL;
 8003fec:	231a      	movs	r3, #26
{
 8003fee:	b570      	push	{r4, r5, r6, lr}
  *length = USB_SIZ_STRING_SERIAL;
 8003ff0:	800b      	strh	r3, [r1, #0]
  deviceserial0 = *(uint32_t *) DEVICE_ID1;
 8003ff2:	4b0b      	ldr	r3, [pc, #44]	; (8004020 <USBD_FS_SerialStrDescriptor+0x34>)
 8003ff4:	4c0b      	ldr	r4, [pc, #44]	; (8004024 <USBD_FS_SerialStrDescriptor+0x38>)
 8003ff6:	6818      	ldr	r0, [r3, #0]
  deviceserial2 = *(uint32_t *) DEVICE_ID3;
 8003ff8:	4b0b      	ldr	r3, [pc, #44]	; (8004028 <USBD_FS_SerialStrDescriptor+0x3c>)
  deviceserial0 += deviceserial2;
 8003ffa:	681b      	ldr	r3, [r3, #0]
 8003ffc:	18c0      	adds	r0, r0, r3
  if (deviceserial0 != 0)
 8003ffe:	2800      	cmp	r0, #0
 8004000:	d00b      	beq.n	800401a <USBD_FS_SerialStrDescriptor+0x2e>
  deviceserial1 = *(uint32_t *) DEVICE_ID2;
 8004002:	4b0a      	ldr	r3, [pc, #40]	; (800402c <USBD_FS_SerialStrDescriptor+0x40>)
    IntToUnicode(deviceserial0, &USBD_StringSerial[2], 8);
 8004004:	1ca1      	adds	r1, r4, #2
 8004006:	2208      	movs	r2, #8
  deviceserial1 = *(uint32_t *) DEVICE_ID2;
 8004008:	681d      	ldr	r5, [r3, #0]
    IntToUnicode(deviceserial0, &USBD_StringSerial[2], 8);
 800400a:	f7ff ffdd 	bl	8003fc8 <IntToUnicode>
    IntToUnicode(deviceserial1, &USBD_StringSerial[18], 4);
 800400e:	0021      	movs	r1, r4
 8004010:	2204      	movs	r2, #4
 8004012:	3112      	adds	r1, #18
 8004014:	0028      	movs	r0, r5
 8004016:	f7ff ffd7 	bl	8003fc8 <IntToUnicode>
}
 800401a:	0020      	movs	r0, r4
 800401c:	bd70      	pop	{r4, r5, r6, pc}
 800401e:	46c0      	nop			; (mov r8, r8)
 8004020:	1ffff7ac 	.word	0x1ffff7ac
 8004024:	20000168 	.word	0x20000168
 8004028:	1ffff7b4 	.word	0x1ffff7b4
 800402c:	1ffff7b0 	.word	0x1ffff7b0

08004030 <USBD_FS_ManufacturerStrDescriptor>:
{
 8004030:	b510      	push	{r4, lr}
  USBD_GetString((uint8_t *)USBD_MANUFACTURER_STRING, USBD_StrDesc, length);
 8004032:	4c04      	ldr	r4, [pc, #16]	; (8004044 <USBD_FS_ManufacturerStrDescriptor+0x14>)
{
 8004034:	000a      	movs	r2, r1
  USBD_GetString((uint8_t *)USBD_MANUFACTURER_STRING, USBD_StrDesc, length);
 8004036:	4804      	ldr	r0, [pc, #16]	; (8004048 <USBD_FS_ManufacturerStrDescriptor+0x18>)
 8004038:	0021      	movs	r1, r4
 800403a:	f7ff fa43 	bl	80034c4 <USBD_GetString>
}
 800403e:	0020      	movs	r0, r4
 8004040:	bd10      	pop	{r4, pc}
 8004042:	46c0      	nop			; (mov r8, r8)
 8004044:	20001ce8 	.word	0x20001ce8
 8004048:	08004e3d 	.word	0x08004e3d

0800404c <USBD_FS_ProductStrDescriptor>:
{
 800404c:	b510      	push	{r4, lr}
    USBD_GetString((uint8_t *)USBD_PRODUCT_STRING_FS, USBD_StrDesc, length);
 800404e:	4c04      	ldr	r4, [pc, #16]	; (8004060 <USBD_FS_ProductStrDescriptor+0x14>)
{
 8004050:	000a      	movs	r2, r1
    USBD_GetString((uint8_t *)USBD_PRODUCT_STRING_FS, USBD_StrDesc, length);
 8004052:	4804      	ldr	r0, [pc, #16]	; (8004064 <USBD_FS_ProductStrDescriptor+0x18>)
 8004054:	0021      	movs	r1, r4
 8004056:	f7ff fa35 	bl	80034c4 <USBD_GetString>
}
 800405a:	0020      	movs	r0, r4
 800405c:	bd10      	pop	{r4, pc}
 800405e:	46c0      	nop			; (mov r8, r8)
 8004060:	20001ce8 	.word	0x20001ce8
 8004064:	08004e50 	.word	0x08004e50

08004068 <USBD_FS_ConfigStrDescriptor>:
{
 8004068:	b510      	push	{r4, lr}
    USBD_GetString((uint8_t *)USBD_CONFIGURATION_STRING_FS, USBD_StrDesc, length);
 800406a:	4c04      	ldr	r4, [pc, #16]	; (800407c <USBD_FS_ConfigStrDescriptor+0x14>)
{
 800406c:	000a      	movs	r2, r1
    USBD_GetString((uint8_t *)USBD_CONFIGURATION_STRING_FS, USBD_StrDesc, length);
 800406e:	4804      	ldr	r0, [pc, #16]	; (8004080 <USBD_FS_ConfigStrDescriptor+0x18>)
 8004070:	0021      	movs	r1, r4
 8004072:	f7ff fa27 	bl	80034c4 <USBD_GetString>
}
 8004076:	0020      	movs	r0, r4
 8004078:	bd10      	pop	{r4, pc}
 800407a:	46c0      	nop			; (mov r8, r8)
 800407c:	20001ce8 	.word	0x20001ce8
 8004080:	08004e24 	.word	0x08004e24

08004084 <USBD_FS_InterfaceStrDescriptor>:
{
 8004084:	b510      	push	{r4, lr}
    USBD_GetString((uint8_t *)USBD_INTERFACE_STRING_FS, USBD_StrDesc, length);
 8004086:	4c04      	ldr	r4, [pc, #16]	; (8004098 <USBD_FS_InterfaceStrDescriptor+0x14>)
{
 8004088:	000a      	movs	r2, r1
    USBD_GetString((uint8_t *)USBD_INTERFACE_STRING_FS, USBD_StrDesc, length);
 800408a:	4804      	ldr	r0, [pc, #16]	; (800409c <USBD_FS_InterfaceStrDescriptor+0x18>)
 800408c:	0021      	movs	r1, r4
 800408e:	f7ff fa19 	bl	80034c4 <USBD_GetString>
}
 8004092:	0020      	movs	r0, r4
 8004094:	bd10      	pop	{r4, pc}
 8004096:	46c0      	nop			; (mov r8, r8)
 8004098:	20001ce8 	.word	0x20001ce8
 800409c:	08004e2f 	.word	0x08004e2f

080040a0 <HAL_PCD_MspInit>:
                       LL Driver Callbacks (PCD -> USB Device Library)
*******************************************************************************/
/* MSP Init */

void HAL_PCD_MspInit(PCD_HandleTypeDef* pcdHandle)
{
 80040a0:	b507      	push	{r0, r1, r2, lr}
  if(pcdHandle->Instance==USB)
 80040a2:	4b0b      	ldr	r3, [pc, #44]	; (80040d0 <HAL_PCD_MspInit+0x30>)
 80040a4:	6802      	ldr	r2, [r0, #0]
 80040a6:	429a      	cmp	r2, r3
 80040a8:	d111      	bne.n	80040ce <HAL_PCD_MspInit+0x2e>
  {
  /* USER CODE BEGIN USB_MspInit 0 */

  /* USER CODE END USB_MspInit 0 */
    /* Peripheral clock enable */
    __HAL_RCC_USB_CLK_ENABLE();
 80040aa:	2080      	movs	r0, #128	; 0x80
 80040ac:	4a09      	ldr	r2, [pc, #36]	; (80040d4 <HAL_PCD_MspInit+0x34>)
 80040ae:	0400      	lsls	r0, r0, #16
 80040b0:	69d1      	ldr	r1, [r2, #28]
 80040b2:	4301      	orrs	r1, r0
 80040b4:	61d1      	str	r1, [r2, #28]
 80040b6:	69d3      	ldr	r3, [r2, #28]

    /* Peripheral interrupt init */
    HAL_NVIC_SetPriority(USB_IRQn, 3, 0);
 80040b8:	2103      	movs	r1, #3
    __HAL_RCC_USB_CLK_ENABLE();
 80040ba:	4003      	ands	r3, r0
 80040bc:	9301      	str	r3, [sp, #4]
    HAL_NVIC_SetPriority(USB_IRQn, 3, 0);
 80040be:	201f      	movs	r0, #31
 80040c0:	2200      	movs	r2, #0
    __HAL_RCC_USB_CLK_ENABLE();
 80040c2:	9b01      	ldr	r3, [sp, #4]
    HAL_NVIC_SetPriority(USB_IRQn, 3, 0);
 80040c4:	f7fc fcee 	bl	8000aa4 <HAL_NVIC_SetPriority>
    HAL_NVIC_EnableIRQ(USB_IRQn);
 80040c8:	201f      	movs	r0, #31
 80040ca:	f7fc fd1b 	bl	8000b04 <HAL_NVIC_EnableIRQ>
  /* USER CODE BEGIN USB_MspInit 1 */

  /* USER CODE END USB_MspInit 1 */
  }
}
 80040ce:	bd07      	pop	{r0, r1, r2, pc}
 80040d0:	40005c00 	.word	0x40005c00
 80040d4:	40021000 	.word	0x40021000

080040d8 <HAL_PCD_SetupStageCallback>:
static void PCD_SetupStageCallback(PCD_HandleTypeDef *hpcd)
#else
void HAL_PCD_SetupStageCallback(PCD_HandleTypeDef *hpcd)
#endif /* USE_HAL_PCD_REGISTER_CALLBACKS */
{
  USBD_LL_SetupStage((USBD_HandleTypeDef*)hpcd->pData, (uint8_t *)hpcd->Setup);
 80040d8:	0001      	movs	r1, r0
 80040da:	2387      	movs	r3, #135	; 0x87
{
 80040dc:	b510      	push	{r4, lr}
  USBD_LL_SetupStage((USBD_HandleTypeDef*)hpcd->pData, (uint8_t *)hpcd->Setup);
 80040de:	009b      	lsls	r3, r3, #2
 80040e0:	31ed      	adds	r1, #237	; 0xed
 80040e2:	31ff      	adds	r1, #255	; 0xff
 80040e4:	58c0      	ldr	r0, [r0, r3]
 80040e6:	f7fe ff27 	bl	8002f38 <USBD_LL_SetupStage>
}
 80040ea:	bd10      	pop	{r4, pc}

080040ec <HAL_PCD_DataOutStageCallback>:
static void PCD_DataOutStageCallback(PCD_HandleTypeDef *hpcd, uint8_t epnum)
#else
void HAL_PCD_DataOutStageCallback(PCD_HandleTypeDef *hpcd, uint8_t epnum)
#endif /* USE_HAL_PCD_REGISTER_CALLBACKS */
{
  USBD_LL_DataOutStage((USBD_HandleTypeDef*)hpcd->pData, epnum, hpcd->OUT_ep[epnum].xfer_buff);
 80040ec:	231c      	movs	r3, #28
 80040ee:	434b      	muls	r3, r1
 80040f0:	18c3      	adds	r3, r0, r3
 80040f2:	33fc      	adds	r3, #252	; 0xfc
 80040f4:	69da      	ldr	r2, [r3, #28]
 80040f6:	2387      	movs	r3, #135	; 0x87
{
 80040f8:	b510      	push	{r4, lr}
  USBD_LL_DataOutStage((USBD_HandleTypeDef*)hpcd->pData, epnum, hpcd->OUT_ep[epnum].xfer_buff);
 80040fa:	009b      	lsls	r3, r3, #2
 80040fc:	58c0      	ldr	r0, [r0, r3]
 80040fe:	f7fe ff4f 	bl	8002fa0 <USBD_LL_DataOutStage>
}
 8004102:	bd10      	pop	{r4, pc}

08004104 <HAL_PCD_DataInStageCallback>:
static void PCD_DataInStageCallback(PCD_HandleTypeDef *hpcd, uint8_t epnum)
#else
void HAL_PCD_DataInStageCallback(PCD_HandleTypeDef *hpcd, uint8_t epnum)
#endif /* USE_HAL_PCD_REGISTER_CALLBACKS */
{
  USBD_LL_DataInStage((USBD_HandleTypeDef*)hpcd->pData, epnum, hpcd->IN_ep[epnum].xfer_buff);
 8004104:	231c      	movs	r3, #28
 8004106:	434b      	muls	r3, r1
 8004108:	18c3      	adds	r3, r0, r3
 800410a:	6b9a      	ldr	r2, [r3, #56]	; 0x38
 800410c:	2387      	movs	r3, #135	; 0x87
{
 800410e:	b510      	push	{r4, lr}
  USBD_LL_DataInStage((USBD_HandleTypeDef*)hpcd->pData, epnum, hpcd->IN_ep[epnum].xfer_buff);
 8004110:	009b      	lsls	r3, r3, #2
 8004112:	58c0      	ldr	r0, [r0, r3]
 8004114:	f7fe ff7e 	bl	8003014 <USBD_LL_DataInStage>
}
 8004118:	bd10      	pop	{r4, pc}

0800411a <HAL_PCD_SOFCallback>:
static void PCD_SOFCallback(PCD_HandleTypeDef *hpcd)
#else
void HAL_PCD_SOFCallback(PCD_HandleTypeDef *hpcd)
#endif /* USE_HAL_PCD_REGISTER_CALLBACKS */
{
  USBD_LL_SOF((USBD_HandleTypeDef*)hpcd->pData);
 800411a:	2387      	movs	r3, #135	; 0x87
{
 800411c:	b510      	push	{r4, lr}
  USBD_LL_SOF((USBD_HandleTypeDef*)hpcd->pData);
 800411e:	009b      	lsls	r3, r3, #2
 8004120:	58c0      	ldr	r0, [r0, r3]
 8004122:	f7ff f805 	bl	8003130 <USBD_LL_SOF>
}
 8004126:	bd10      	pop	{r4, pc}

08004128 <HAL_PCD_ResetCallback>:
void HAL_PCD_ResetCallback(PCD_HandleTypeDef *hpcd)
#endif /* USE_HAL_PCD_REGISTER_CALLBACKS */
{ 
  USBD_SpeedTypeDef speed = USBD_SPEED_FULL;

  if ( hpcd->Init.speed != PCD_SPEED_FULL)
 8004128:	6883      	ldr	r3, [r0, #8]
{ 
 800412a:	b570      	push	{r4, r5, r6, lr}
 800412c:	0004      	movs	r4, r0
  if ( hpcd->Init.speed != PCD_SPEED_FULL)
 800412e:	2b02      	cmp	r3, #2
 8004130:	d001      	beq.n	8004136 <HAL_PCD_ResetCallback+0xe>
  {
    Error_Handler();
 8004132:	f7fc fb31 	bl	8000798 <Error_Handler>
  }
    /* Set Speed. */
  USBD_LL_SetSpeed((USBD_HandleTypeDef*)hpcd->pData, speed);
 8004136:	2587      	movs	r5, #135	; 0x87
 8004138:	00ad      	lsls	r5, r5, #2
 800413a:	2101      	movs	r1, #1
 800413c:	5960      	ldr	r0, [r4, r5]
 800413e:	f7fe ffe2 	bl	8003106 <USBD_LL_SetSpeed>

  /* Reset Device. */
  USBD_LL_Reset((USBD_HandleTypeDef*)hpcd->pData);
 8004142:	5960      	ldr	r0, [r4, r5]
 8004144:	f7fe ffbc 	bl	80030c0 <USBD_LL_Reset>
}
 8004148:	bd70      	pop	{r4, r5, r6, pc}
	...

0800414c <HAL_PCD_SuspendCallback>:
#else
void HAL_PCD_SuspendCallback(PCD_HandleTypeDef *hpcd)
#endif /* USE_HAL_PCD_REGISTER_CALLBACKS */
{
  /* Inform USB library that core enters in suspend Mode. */
  USBD_LL_Suspend((USBD_HandleTypeDef*)hpcd->pData);
 800414c:	2387      	movs	r3, #135	; 0x87
{
 800414e:	b510      	push	{r4, lr}
 8004150:	0004      	movs	r4, r0
  USBD_LL_Suspend((USBD_HandleTypeDef*)hpcd->pData);
 8004152:	009b      	lsls	r3, r3, #2
 8004154:	58c0      	ldr	r0, [r0, r3]
 8004156:	f7fe ffd9 	bl	800310c <USBD_LL_Suspend>
  /* Enter in STOP mode. */
  /* USER CODE BEGIN 2 */
  if (hpcd->Init.low_power_enable)
 800415a:	69a3      	ldr	r3, [r4, #24]
 800415c:	2b00      	cmp	r3, #0
 800415e:	d004      	beq.n	800416a <HAL_PCD_SuspendCallback+0x1e>
  {
    /* Set SLEEPDEEP bit and SleepOnExit of Cortex System Control Register. */
    SCB->SCR |= (uint32_t)((uint32_t)(SCB_SCR_SLEEPDEEP_Msk | SCB_SCR_SLEEPONEXIT_Msk));
 8004160:	2306      	movs	r3, #6
 8004162:	4a02      	ldr	r2, [pc, #8]	; (800416c <HAL_PCD_SuspendCallback+0x20>)
 8004164:	6911      	ldr	r1, [r2, #16]
 8004166:	430b      	orrs	r3, r1
 8004168:	6113      	str	r3, [r2, #16]
  }
  /* USER CODE END 2 */
}
 800416a:	bd10      	pop	{r4, pc}
 800416c:	e000ed00 	.word	0xe000ed00

08004170 <HAL_PCD_ResumeCallback>:
#else
void HAL_PCD_ResumeCallback(PCD_HandleTypeDef *hpcd)
#endif /* USE_HAL_PCD_REGISTER_CALLBACKS */
{
  /* USER CODE BEGIN 3 */
  if (hpcd->Init.low_power_enable)
 8004170:	6983      	ldr	r3, [r0, #24]
{
 8004172:	b510      	push	{r4, lr}
 8004174:	0004      	movs	r4, r0
  if (hpcd->Init.low_power_enable)
 8004176:	2b00      	cmp	r3, #0
 8004178:	d006      	beq.n	8004188 <HAL_PCD_ResumeCallback+0x18>
  {
    /* Reset SLEEPDEEP bit of Cortex System Control Register. */
    SCB->SCR &= (uint32_t)~((uint32_t)(SCB_SCR_SLEEPDEEP_Msk | SCB_SCR_SLEEPONEXIT_Msk));
 800417a:	2106      	movs	r1, #6
 800417c:	4a05      	ldr	r2, [pc, #20]	; (8004194 <HAL_PCD_ResumeCallback+0x24>)
 800417e:	6913      	ldr	r3, [r2, #16]
 8004180:	438b      	bics	r3, r1
 8004182:	6113      	str	r3, [r2, #16]
  *         enable HSI, PLL and select PLL as system clock source.
  * @retval None
  */
static void SystemClockConfig_Resume(void)
{
  SystemClock_Config();
 8004184:	f7fc faa6 	bl	80006d4 <SystemClock_Config>
  USBD_LL_Resume((USBD_HandleTypeDef*)hpcd->pData);
 8004188:	2387      	movs	r3, #135	; 0x87
 800418a:	009b      	lsls	r3, r3, #2
 800418c:	58e0      	ldr	r0, [r4, r3]
 800418e:	f7fe ffc8 	bl	8003122 <USBD_LL_Resume>
}
 8004192:	bd10      	pop	{r4, pc}
 8004194:	e000ed00 	.word	0xe000ed00

08004198 <USBD_LL_Init>:
  hpcd_USB_FS.pData = pdev;
 8004198:	2387      	movs	r3, #135	; 0x87
{
 800419a:	b570      	push	{r4, r5, r6, lr}
 800419c:	0005      	movs	r5, r0
  hpcd_USB_FS.pData = pdev;
 800419e:	481c      	ldr	r0, [pc, #112]	; (8004210 <USBD_LL_Init+0x78>)
 80041a0:	009b      	lsls	r3, r3, #2
 80041a2:	50c5      	str	r5, [r0, r3]
  hpcd_USB_FS.Instance = USB;
 80041a4:	4b1b      	ldr	r3, [pc, #108]	; (8004214 <USBD_LL_Init+0x7c>)
  pdev->pData = &hpcd_USB_FS;
 80041a6:	2488      	movs	r4, #136	; 0x88
  hpcd_USB_FS.Instance = USB;
 80041a8:	6003      	str	r3, [r0, #0]
  hpcd_USB_FS.Init.dev_endpoints = 8;
 80041aa:	2308      	movs	r3, #8
 80041ac:	6043      	str	r3, [r0, #4]
  hpcd_USB_FS.Init.speed = PCD_SPEED_FULL;
 80041ae:	3b06      	subs	r3, #6
 80041b0:	6083      	str	r3, [r0, #8]
  hpcd_USB_FS.Init.phy_itface = PCD_PHY_EMBEDDED;
 80041b2:	6103      	str	r3, [r0, #16]
  hpcd_USB_FS.Init.low_power_enable = DISABLE;
 80041b4:	2300      	movs	r3, #0
  pdev->pData = &hpcd_USB_FS;
 80041b6:	00a4      	lsls	r4, r4, #2
 80041b8:	5128      	str	r0, [r5, r4]
  hpcd_USB_FS.Init.low_power_enable = DISABLE;
 80041ba:	6183      	str	r3, [r0, #24]
  hpcd_USB_FS.Init.lpm_enable = DISABLE;
 80041bc:	61c3      	str	r3, [r0, #28]
  hpcd_USB_FS.Init.battery_charging_enable = DISABLE;
 80041be:	6203      	str	r3, [r0, #32]
  if (HAL_PCD_Init(&hpcd_USB_FS) != HAL_OK)
 80041c0:	f7fc fe24 	bl	8000e0c <HAL_PCD_Init>
 80041c4:	2800      	cmp	r0, #0
 80041c6:	d001      	beq.n	80041cc <USBD_LL_Init+0x34>
    Error_Handler( );
 80041c8:	f7fc fae6 	bl	8000798 <Error_Handler>
  HAL_PCDEx_PMAConfig((PCD_HandleTypeDef*)pdev->pData , 0x00 , PCD_SNG_BUF, 0x18);
 80041cc:	2200      	movs	r2, #0
 80041ce:	5928      	ldr	r0, [r5, r4]
 80041d0:	0011      	movs	r1, r2
 80041d2:	2318      	movs	r3, #24
 80041d4:	f7fd fd08 	bl	8001be8 <HAL_PCDEx_PMAConfig>
  HAL_PCDEx_PMAConfig((PCD_HandleTypeDef*)pdev->pData , 0x80 , PCD_SNG_BUF, 0x58);
 80041d8:	5928      	ldr	r0, [r5, r4]
 80041da:	2358      	movs	r3, #88	; 0x58
 80041dc:	2200      	movs	r2, #0
 80041de:	2180      	movs	r1, #128	; 0x80
 80041e0:	f7fd fd02 	bl	8001be8 <HAL_PCDEx_PMAConfig>
  HAL_PCDEx_PMAConfig((PCD_HandleTypeDef*)pdev->pData , 0x81 , PCD_SNG_BUF, 0xC0);
 80041e4:	5928      	ldr	r0, [r5, r4]
 80041e6:	23c0      	movs	r3, #192	; 0xc0
 80041e8:	2200      	movs	r2, #0
 80041ea:	2181      	movs	r1, #129	; 0x81
 80041ec:	f7fd fcfc 	bl	8001be8 <HAL_PCDEx_PMAConfig>
  HAL_PCDEx_PMAConfig((PCD_HandleTypeDef*)pdev->pData , 0x01 , PCD_SNG_BUF, 0x110);
 80041f0:	2388      	movs	r3, #136	; 0x88
 80041f2:	5928      	ldr	r0, [r5, r4]
 80041f4:	005b      	lsls	r3, r3, #1
 80041f6:	2200      	movs	r2, #0
 80041f8:	2101      	movs	r1, #1
 80041fa:	f7fd fcf5 	bl	8001be8 <HAL_PCDEx_PMAConfig>
  HAL_PCDEx_PMAConfig((PCD_HandleTypeDef*)pdev->pData , 0x82 , PCD_SNG_BUF, 0x100);
 80041fe:	2380      	movs	r3, #128	; 0x80
 8004200:	5928      	ldr	r0, [r5, r4]
 8004202:	005b      	lsls	r3, r3, #1
 8004204:	2200      	movs	r2, #0
 8004206:	2182      	movs	r1, #130	; 0x82
 8004208:	f7fd fcee 	bl	8001be8 <HAL_PCDEx_PMAConfig>
}
 800420c:	2000      	movs	r0, #0
 800420e:	bd70      	pop	{r4, r5, r6, pc}
 8004210:	20001ee8 	.word	0x20001ee8
 8004214:	40005c00 	.word	0x40005c00

08004218 <USBD_LL_Start>:
  hal_status = HAL_PCD_Start(pdev->pData);
 8004218:	2388      	movs	r3, #136	; 0x88
 800421a:	009b      	lsls	r3, r3, #2
 800421c:	58c0      	ldr	r0, [r0, r3]
{
 800421e:	b510      	push	{r4, lr}
  hal_status = HAL_PCD_Start(pdev->pData);
 8004220:	f7fc fe3a 	bl	8000e98 <HAL_PCD_Start>
 8004224:	2302      	movs	r3, #2
 8004226:	2803      	cmp	r0, #3
 8004228:	d801      	bhi.n	800422e <USBD_LL_Start+0x16>
 800422a:	4b02      	ldr	r3, [pc, #8]	; (8004234 <USBD_LL_Start+0x1c>)
 800422c:	5c1b      	ldrb	r3, [r3, r0]
}
 800422e:	0018      	movs	r0, r3
 8004230:	bd10      	pop	{r4, pc}
 8004232:	46c0      	nop			; (mov r8, r8)
 8004234:	08004e66 	.word	0x08004e66

08004238 <USBD_LL_OpenEP>:
{
 8004238:	b510      	push	{r4, lr}
 800423a:	0014      	movs	r4, r2
 800423c:	001a      	movs	r2, r3
  hal_status = HAL_PCD_EP_Open(pdev->pData, ep_addr, ep_mps, ep_type);
 800423e:	0023      	movs	r3, r4
 8004240:	2488      	movs	r4, #136	; 0x88
 8004242:	00a4      	lsls	r4, r4, #2
 8004244:	5900      	ldr	r0, [r0, r4]
 8004246:	f7fc fe47 	bl	8000ed8 <HAL_PCD_EP_Open>
 800424a:	2302      	movs	r3, #2
 800424c:	2803      	cmp	r0, #3
 800424e:	d801      	bhi.n	8004254 <USBD_LL_OpenEP+0x1c>
 8004250:	4b01      	ldr	r3, [pc, #4]	; (8004258 <USBD_LL_OpenEP+0x20>)
 8004252:	5c1b      	ldrb	r3, [r3, r0]
}
 8004254:	0018      	movs	r0, r3
 8004256:	bd10      	pop	{r4, pc}
 8004258:	08004e66 	.word	0x08004e66

0800425c <USBD_LL_CloseEP>:
  hal_status = HAL_PCD_EP_Close(pdev->pData, ep_addr);
 800425c:	2388      	movs	r3, #136	; 0x88
 800425e:	009b      	lsls	r3, r3, #2
 8004260:	58c0      	ldr	r0, [r0, r3]
{
 8004262:	b510      	push	{r4, lr}
  hal_status = HAL_PCD_EP_Close(pdev->pData, ep_addr);
 8004264:	f7fc ff8a 	bl	800117c <HAL_PCD_EP_Close>
 8004268:	2302      	movs	r3, #2
 800426a:	2803      	cmp	r0, #3
 800426c:	d801      	bhi.n	8004272 <USBD_LL_CloseEP+0x16>
 800426e:	4b02      	ldr	r3, [pc, #8]	; (8004278 <USBD_LL_CloseEP+0x1c>)
 8004270:	5c1b      	ldrb	r3, [r3, r0]
}
 8004272:	0018      	movs	r0, r3
 8004274:	bd10      	pop	{r4, pc}
 8004276:	46c0      	nop			; (mov r8, r8)
 8004278:	08004e66 	.word	0x08004e66

0800427c <USBD_LL_StallEP>:
  hal_status = HAL_PCD_EP_SetStall(pdev->pData, ep_addr);
 800427c:	2388      	movs	r3, #136	; 0x88
 800427e:	009b      	lsls	r3, r3, #2
 8004280:	58c0      	ldr	r0, [r0, r3]
{
 8004282:	b510      	push	{r4, lr}
  hal_status = HAL_PCD_EP_SetStall(pdev->pData, ep_addr);
 8004284:	f7fd f8c4 	bl	8001410 <HAL_PCD_EP_SetStall>
 8004288:	2302      	movs	r3, #2
 800428a:	2803      	cmp	r0, #3
 800428c:	d801      	bhi.n	8004292 <USBD_LL_StallEP+0x16>
 800428e:	4b02      	ldr	r3, [pc, #8]	; (8004298 <USBD_LL_StallEP+0x1c>)
 8004290:	5c1b      	ldrb	r3, [r3, r0]
}
 8004292:	0018      	movs	r0, r3
 8004294:	bd10      	pop	{r4, pc}
 8004296:	46c0      	nop			; (mov r8, r8)
 8004298:	08004e66 	.word	0x08004e66

0800429c <USBD_LL_ClearStallEP>:
  hal_status = HAL_PCD_EP_ClrStall(pdev->pData, ep_addr);  
 800429c:	2388      	movs	r3, #136	; 0x88
 800429e:	009b      	lsls	r3, r3, #2
 80042a0:	58c0      	ldr	r0, [r0, r3]
{
 80042a2:	b510      	push	{r4, lr}
  hal_status = HAL_PCD_EP_ClrStall(pdev->pData, ep_addr);  
 80042a4:	f7fd f8fe 	bl	80014a4 <HAL_PCD_EP_ClrStall>
 80042a8:	2302      	movs	r3, #2
 80042aa:	2803      	cmp	r0, #3
 80042ac:	d801      	bhi.n	80042b2 <USBD_LL_ClearStallEP+0x16>
 80042ae:	4b02      	ldr	r3, [pc, #8]	; (80042b8 <USBD_LL_ClearStallEP+0x1c>)
 80042b0:	5c1b      	ldrb	r3, [r3, r0]
}
 80042b2:	0018      	movs	r0, r3
 80042b4:	bd10      	pop	{r4, pc}
 80042b6:	46c0      	nop			; (mov r8, r8)
 80042b8:	08004e66 	.word	0x08004e66

080042bc <USBD_LL_IsStallEP>:
  PCD_HandleTypeDef *hpcd = (PCD_HandleTypeDef*) pdev->pData;
 80042bc:	2388      	movs	r3, #136	; 0x88
 80042be:	009b      	lsls	r3, r3, #2
 80042c0:	58c3      	ldr	r3, [r0, r3]
  if((ep_addr & 0x80) == 0x80)
 80042c2:	b248      	sxtb	r0, r1
 80042c4:	221c      	movs	r2, #28
 80042c6:	2800      	cmp	r0, #0
 80042c8:	da06      	bge.n	80042d8 <USBD_LL_IsStallEP+0x1c>
    return hpcd->IN_ep[ep_addr & 0x7F].is_stall; 
 80042ca:	207f      	movs	r0, #127	; 0x7f
 80042cc:	4001      	ands	r1, r0
 80042ce:	434a      	muls	r2, r1
 80042d0:	189b      	adds	r3, r3, r2
 80042d2:	332a      	adds	r3, #42	; 0x2a
 80042d4:	7818      	ldrb	r0, [r3, #0]
}
 80042d6:	4770      	bx	lr
    return hpcd->OUT_ep[ep_addr & 0x7F].is_stall; 
 80042d8:	434a      	muls	r2, r1
 80042da:	189b      	adds	r3, r3, r2
 80042dc:	33ff      	adds	r3, #255	; 0xff
 80042de:	7ad8      	ldrb	r0, [r3, #11]
 80042e0:	e7f9      	b.n	80042d6 <USBD_LL_IsStallEP+0x1a>
	...

080042e4 <USBD_LL_SetUSBAddress>:
  hal_status = HAL_PCD_SetAddress(pdev->pData, dev_addr);
 80042e4:	2388      	movs	r3, #136	; 0x88
 80042e6:	009b      	lsls	r3, r3, #2
 80042e8:	58c0      	ldr	r0, [r0, r3]
{
 80042ea:	b510      	push	{r4, lr}
  hal_status = HAL_PCD_SetAddress(pdev->pData, dev_addr);
 80042ec:	f7fc fddd 	bl	8000eaa <HAL_PCD_SetAddress>
 80042f0:	2302      	movs	r3, #2
 80042f2:	2803      	cmp	r0, #3
 80042f4:	d801      	bhi.n	80042fa <USBD_LL_SetUSBAddress+0x16>
 80042f6:	4b02      	ldr	r3, [pc, #8]	; (8004300 <USBD_LL_SetUSBAddress+0x1c>)
 80042f8:	5c1b      	ldrb	r3, [r3, r0]
}
 80042fa:	0018      	movs	r0, r3
 80042fc:	bd10      	pop	{r4, pc}
 80042fe:	46c0      	nop			; (mov r8, r8)
 8004300:	08004e66 	.word	0x08004e66

08004304 <USBD_LL_Transmit>:
{
 8004304:	b510      	push	{r4, lr}
  hal_status = HAL_PCD_EP_Transmit(pdev->pData, ep_addr, pbuf, size);
 8004306:	2488      	movs	r4, #136	; 0x88
 8004308:	00a4      	lsls	r4, r4, #2
 800430a:	5900      	ldr	r0, [r0, r4]
 800430c:	f7fd f938 	bl	8001580 <HAL_PCD_EP_Transmit>
 8004310:	2302      	movs	r3, #2
 8004312:	2803      	cmp	r0, #3
 8004314:	d801      	bhi.n	800431a <USBD_LL_Transmit+0x16>
 8004316:	4b02      	ldr	r3, [pc, #8]	; (8004320 <USBD_LL_Transmit+0x1c>)
 8004318:	5c1b      	ldrb	r3, [r3, r0]
}
 800431a:	0018      	movs	r0, r3
 800431c:	bd10      	pop	{r4, pc}
 800431e:	46c0      	nop			; (mov r8, r8)
 8004320:	08004e66 	.word	0x08004e66

08004324 <USBD_LL_PrepareReceive>:
{
 8004324:	b510      	push	{r4, lr}
  hal_status = HAL_PCD_EP_Receive(pdev->pData, ep_addr, pbuf, size);
 8004326:	2488      	movs	r4, #136	; 0x88
 8004328:	00a4      	lsls	r4, r4, #2
 800432a:	5900      	ldr	r0, [r0, r4]
 800432c:	f7fc ffc6 	bl	80012bc <HAL_PCD_EP_Receive>
 8004330:	2302      	movs	r3, #2
 8004332:	2803      	cmp	r0, #3
 8004334:	d801      	bhi.n	800433a <USBD_LL_PrepareReceive+0x16>
 8004336:	4b02      	ldr	r3, [pc, #8]	; (8004340 <USBD_LL_PrepareReceive+0x1c>)
 8004338:	5c1b      	ldrb	r3, [r3, r0]
}
 800433a:	0018      	movs	r0, r3
 800433c:	bd10      	pop	{r4, pc}
 800433e:	46c0      	nop			; (mov r8, r8)
 8004340:	08004e66 	.word	0x08004e66

08004344 <USBD_LL_GetRxDataSize>:
  return HAL_PCD_EP_GetRxCount((PCD_HandleTypeDef*) pdev->pData, ep_addr);
 8004344:	2388      	movs	r3, #136	; 0x88
{
 8004346:	b510      	push	{r4, lr}
  return HAL_PCD_EP_GetRxCount((PCD_HandleTypeDef*) pdev->pData, ep_addr);
 8004348:	009b      	lsls	r3, r3, #2
 800434a:	58c0      	ldr	r0, [r0, r3]
 800434c:	f7fd f856 	bl	80013fc <HAL_PCD_EP_GetRxCount>
}
 8004350:	bd10      	pop	{r4, pc}
	...

08004354 <USBD_static_malloc>:
}
 8004354:	4800      	ldr	r0, [pc, #0]	; (8004358 <USBD_static_malloc+0x4>)
 8004356:	4770      	bx	lr
 8004358:	20000f50 	.word	0x20000f50

0800435c <USBD_static_free>:
}
 800435c:	4770      	bx	lr
	...

08004360 <Reset_Handler>:

  .section .text.Reset_Handler
  .weak Reset_Handler
  .type Reset_Handler, %function
Reset_Handler:
  ldr   r0, =_estack
 8004360:	480d      	ldr	r0, [pc, #52]	; (8004398 <LoopForever+0x2>)
  mov   sp, r0          /* set stack pointer */
 8004362:	4685      	mov	sp, r0

/* Copy the data segment initializers from flash to SRAM */
  ldr r0, =_sdata
 8004364:	480d      	ldr	r0, [pc, #52]	; (800439c <LoopForever+0x6>)
  ldr r1, =_edata
 8004366:	490e      	ldr	r1, [pc, #56]	; (80043a0 <LoopForever+0xa>)
  ldr r2, =_sidata
 8004368:	4a0e      	ldr	r2, [pc, #56]	; (80043a4 <LoopForever+0xe>)
  movs r3, #0
 800436a:	2300      	movs	r3, #0
  b LoopCopyDataInit
 800436c:	e002      	b.n	8004374 <LoopCopyDataInit>

0800436e <CopyDataInit>:

CopyDataInit:
  ldr r4, [r2, r3]
 800436e:	58d4      	ldr	r4, [r2, r3]
  str r4, [r0, r3]
 8004370:	50c4      	str	r4, [r0, r3]
  adds r3, r3, #4
 8004372:	3304      	adds	r3, #4

08004374 <LoopCopyDataInit>:

LoopCopyDataInit:
  adds r4, r0, r3
 8004374:	18c4      	adds	r4, r0, r3
  cmp r4, r1
 8004376:	428c      	cmp	r4, r1
  bcc CopyDataInit
 8004378:	d3f9      	bcc.n	800436e <CopyDataInit>
  
/* Zero fill the bss segment. */
  ldr r2, =_sbss
 800437a:	4a0b      	ldr	r2, [pc, #44]	; (80043a8 <LoopForever+0x12>)
  ldr r4, =_ebss
 800437c:	4c0b      	ldr	r4, [pc, #44]	; (80043ac <LoopForever+0x16>)
  movs r3, #0
 800437e:	2300      	movs	r3, #0
  b LoopFillZerobss
 8004380:	e001      	b.n	8004386 <LoopFillZerobss>

08004382 <FillZerobss>:

FillZerobss:
  str  r3, [r2]
 8004382:	6013      	str	r3, [r2, #0]
  adds r2, r2, #4
 8004384:	3204      	adds	r2, #4

08004386 <LoopFillZerobss>:

LoopFillZerobss:
  cmp r2, r4
 8004386:	42a2      	cmp	r2, r4
  bcc FillZerobss
 8004388:	d3fb      	bcc.n	8004382 <FillZerobss>

/* Call the clock system intitialization function.*/
  bl  SystemInit
 800438a:	f7fc fa9d 	bl	80008c8 <SystemInit>
/* Call static constructors */
  bl __libc_init_array
 800438e:	f000 f817 	bl	80043c0 <__libc_init_array>
/* Call the application's entry point.*/
  bl main
 8004392:	f7fc f9d9 	bl	8000748 <main>

08004396 <LoopForever>:

LoopForever:
    b LoopForever
 8004396:	e7fe      	b.n	8004396 <LoopForever>
  ldr   r0, =_estack
 8004398:	20004000 	.word	0x20004000
  ldr r0, =_sdata
 800439c:	20000000 	.word	0x20000000
  ldr r1, =_edata
 80043a0:	200001e8 	.word	0x200001e8
  ldr r2, =_sidata
 80043a4:	08004ea8 	.word	0x08004ea8
  ldr r2, =_sbss
 80043a8:	200001e8 	.word	0x200001e8
  ldr r4, =_ebss
 80043ac:	2000210c 	.word	0x2000210c

080043b0 <ADC1_IRQHandler>:
 * @retval : None
*/
    .section .text.Default_Handler,"ax",%progbits
Default_Handler:
Infinite_Loop:
  b Infinite_Loop
 80043b0:	e7fe      	b.n	80043b0 <ADC1_IRQHandler>
	...

080043b4 <__errno>:
 80043b4:	4b01      	ldr	r3, [pc, #4]	; (80043bc <__errno+0x8>)
 80043b6:	6818      	ldr	r0, [r3, #0]
 80043b8:	4770      	bx	lr
 80043ba:	46c0      	nop			; (mov r8, r8)
 80043bc:	20000184 	.word	0x20000184

080043c0 <__libc_init_array>:
 80043c0:	b570      	push	{r4, r5, r6, lr}
 80043c2:	2600      	movs	r6, #0
 80043c4:	4d0c      	ldr	r5, [pc, #48]	; (80043f8 <__libc_init_array+0x38>)
 80043c6:	4c0d      	ldr	r4, [pc, #52]	; (80043fc <__libc_init_array+0x3c>)
 80043c8:	1b64      	subs	r4, r4, r5
 80043ca:	10a4      	asrs	r4, r4, #2
 80043cc:	42a6      	cmp	r6, r4
 80043ce:	d109      	bne.n	80043e4 <__libc_init_array+0x24>
 80043d0:	2600      	movs	r6, #0
 80043d2:	f000 fc5b 	bl	8004c8c <_init>
 80043d6:	4d0a      	ldr	r5, [pc, #40]	; (8004400 <__libc_init_array+0x40>)
 80043d8:	4c0a      	ldr	r4, [pc, #40]	; (8004404 <__libc_init_array+0x44>)
 80043da:	1b64      	subs	r4, r4, r5
 80043dc:	10a4      	asrs	r4, r4, #2
 80043de:	42a6      	cmp	r6, r4
 80043e0:	d105      	bne.n	80043ee <__libc_init_array+0x2e>
 80043e2:	bd70      	pop	{r4, r5, r6, pc}
 80043e4:	00b3      	lsls	r3, r6, #2
 80043e6:	58eb      	ldr	r3, [r5, r3]
 80043e8:	4798      	blx	r3
 80043ea:	3601      	adds	r6, #1
 80043ec:	e7ee      	b.n	80043cc <__libc_init_array+0xc>
 80043ee:	00b3      	lsls	r3, r6, #2
 80043f0:	58eb      	ldr	r3, [r5, r3]
 80043f2:	4798      	blx	r3
 80043f4:	3601      	adds	r6, #1
 80043f6:	e7f2      	b.n	80043de <__libc_init_array+0x1e>
 80043f8:	08004ea0 	.word	0x08004ea0
 80043fc:	08004ea0 	.word	0x08004ea0
 8004400:	08004ea0 	.word	0x08004ea0
 8004404:	08004ea4 	.word	0x08004ea4

08004408 <memcpy>:
 8004408:	2300      	movs	r3, #0
 800440a:	b510      	push	{r4, lr}
 800440c:	429a      	cmp	r2, r3
 800440e:	d100      	bne.n	8004412 <memcpy+0xa>
 8004410:	bd10      	pop	{r4, pc}
 8004412:	5ccc      	ldrb	r4, [r1, r3]
 8004414:	54c4      	strb	r4, [r0, r3]
 8004416:	3301      	adds	r3, #1
 8004418:	e7f8      	b.n	800440c <memcpy+0x4>

0800441a <memset>:
 800441a:	0003      	movs	r3, r0
 800441c:	1882      	adds	r2, r0, r2
 800441e:	4293      	cmp	r3, r2
 8004420:	d100      	bne.n	8004424 <memset+0xa>
 8004422:	4770      	bx	lr
 8004424:	7019      	strb	r1, [r3, #0]
 8004426:	3301      	adds	r3, #1
 8004428:	e7f9      	b.n	800441e <memset+0x4>
	...

0800442c <siprintf>:
 800442c:	b40e      	push	{r1, r2, r3}
 800442e:	b510      	push	{r4, lr}
 8004430:	b09d      	sub	sp, #116	; 0x74
 8004432:	a902      	add	r1, sp, #8
 8004434:	9002      	str	r0, [sp, #8]
 8004436:	6108      	str	r0, [r1, #16]
 8004438:	480b      	ldr	r0, [pc, #44]	; (8004468 <siprintf+0x3c>)
 800443a:	2482      	movs	r4, #130	; 0x82
 800443c:	6088      	str	r0, [r1, #8]
 800443e:	6148      	str	r0, [r1, #20]
 8004440:	2001      	movs	r0, #1
 8004442:	4240      	negs	r0, r0
 8004444:	ab1f      	add	r3, sp, #124	; 0x7c
 8004446:	81c8      	strh	r0, [r1, #14]
 8004448:	4808      	ldr	r0, [pc, #32]	; (800446c <siprintf+0x40>)
 800444a:	cb04      	ldmia	r3!, {r2}
 800444c:	00a4      	lsls	r4, r4, #2
 800444e:	6800      	ldr	r0, [r0, #0]
 8004450:	9301      	str	r3, [sp, #4]
 8004452:	818c      	strh	r4, [r1, #12]
 8004454:	f000 f886 	bl	8004564 <_svfiprintf_r>
 8004458:	2300      	movs	r3, #0
 800445a:	9a02      	ldr	r2, [sp, #8]
 800445c:	7013      	strb	r3, [r2, #0]
 800445e:	b01d      	add	sp, #116	; 0x74
 8004460:	bc10      	pop	{r4}
 8004462:	bc08      	pop	{r3}
 8004464:	b003      	add	sp, #12
 8004466:	4718      	bx	r3
 8004468:	7fffffff 	.word	0x7fffffff
 800446c:	20000184 	.word	0x20000184

08004470 <strstr>:
 8004470:	b510      	push	{r4, lr}
 8004472:	0002      	movs	r2, r0
 8004474:	7800      	ldrb	r0, [r0, #0]
 8004476:	2800      	cmp	r0, #0
 8004478:	d104      	bne.n	8004484 <strstr+0x14>
 800447a:	7809      	ldrb	r1, [r1, #0]
 800447c:	2900      	cmp	r1, #0
 800447e:	d00d      	beq.n	800449c <strstr+0x2c>
 8004480:	bd10      	pop	{r4, pc}
 8004482:	3201      	adds	r2, #1
 8004484:	7810      	ldrb	r0, [r2, #0]
 8004486:	2800      	cmp	r0, #0
 8004488:	d0fa      	beq.n	8004480 <strstr+0x10>
 800448a:	2300      	movs	r3, #0
 800448c:	5cc8      	ldrb	r0, [r1, r3]
 800448e:	2800      	cmp	r0, #0
 8004490:	d004      	beq.n	800449c <strstr+0x2c>
 8004492:	5cd4      	ldrb	r4, [r2, r3]
 8004494:	4284      	cmp	r4, r0
 8004496:	d1f4      	bne.n	8004482 <strstr+0x12>
 8004498:	3301      	adds	r3, #1
 800449a:	e7f7      	b.n	800448c <strstr+0x1c>
 800449c:	0010      	movs	r0, r2
 800449e:	e7ef      	b.n	8004480 <strstr+0x10>

080044a0 <__ssputs_r>:
 80044a0:	b5f0      	push	{r4, r5, r6, r7, lr}
 80044a2:	688e      	ldr	r6, [r1, #8]
 80044a4:	b085      	sub	sp, #20
 80044a6:	0007      	movs	r7, r0
 80044a8:	000c      	movs	r4, r1
 80044aa:	9203      	str	r2, [sp, #12]
 80044ac:	9301      	str	r3, [sp, #4]
 80044ae:	429e      	cmp	r6, r3
 80044b0:	d839      	bhi.n	8004526 <__ssputs_r+0x86>
 80044b2:	2390      	movs	r3, #144	; 0x90
 80044b4:	898a      	ldrh	r2, [r1, #12]
 80044b6:	00db      	lsls	r3, r3, #3
 80044b8:	421a      	tst	r2, r3
 80044ba:	d034      	beq.n	8004526 <__ssputs_r+0x86>
 80044bc:	2503      	movs	r5, #3
 80044be:	6909      	ldr	r1, [r1, #16]
 80044c0:	6823      	ldr	r3, [r4, #0]
 80044c2:	1a5b      	subs	r3, r3, r1
 80044c4:	9302      	str	r3, [sp, #8]
 80044c6:	6963      	ldr	r3, [r4, #20]
 80044c8:	9802      	ldr	r0, [sp, #8]
 80044ca:	435d      	muls	r5, r3
 80044cc:	0feb      	lsrs	r3, r5, #31
 80044ce:	195d      	adds	r5, r3, r5
 80044d0:	9b01      	ldr	r3, [sp, #4]
 80044d2:	106d      	asrs	r5, r5, #1
 80044d4:	3301      	adds	r3, #1
 80044d6:	181b      	adds	r3, r3, r0
 80044d8:	42ab      	cmp	r3, r5
 80044da:	d900      	bls.n	80044de <__ssputs_r+0x3e>
 80044dc:	001d      	movs	r5, r3
 80044de:	0553      	lsls	r3, r2, #21
 80044e0:	d532      	bpl.n	8004548 <__ssputs_r+0xa8>
 80044e2:	0029      	movs	r1, r5
 80044e4:	0038      	movs	r0, r7
 80044e6:	f000 fb31 	bl	8004b4c <_malloc_r>
 80044ea:	1e06      	subs	r6, r0, #0
 80044ec:	d109      	bne.n	8004502 <__ssputs_r+0x62>
 80044ee:	230c      	movs	r3, #12
 80044f0:	603b      	str	r3, [r7, #0]
 80044f2:	2340      	movs	r3, #64	; 0x40
 80044f4:	2001      	movs	r0, #1
 80044f6:	89a2      	ldrh	r2, [r4, #12]
 80044f8:	4240      	negs	r0, r0
 80044fa:	4313      	orrs	r3, r2
 80044fc:	81a3      	strh	r3, [r4, #12]
 80044fe:	b005      	add	sp, #20
 8004500:	bdf0      	pop	{r4, r5, r6, r7, pc}
 8004502:	9a02      	ldr	r2, [sp, #8]
 8004504:	6921      	ldr	r1, [r4, #16]
 8004506:	f7ff ff7f 	bl	8004408 <memcpy>
 800450a:	89a3      	ldrh	r3, [r4, #12]
 800450c:	4a14      	ldr	r2, [pc, #80]	; (8004560 <__ssputs_r+0xc0>)
 800450e:	401a      	ands	r2, r3
 8004510:	2380      	movs	r3, #128	; 0x80
 8004512:	4313      	orrs	r3, r2
 8004514:	81a3      	strh	r3, [r4, #12]
 8004516:	9b02      	ldr	r3, [sp, #8]
 8004518:	6126      	str	r6, [r4, #16]
 800451a:	18f6      	adds	r6, r6, r3
 800451c:	6026      	str	r6, [r4, #0]
 800451e:	6165      	str	r5, [r4, #20]
 8004520:	9e01      	ldr	r6, [sp, #4]
 8004522:	1aed      	subs	r5, r5, r3
 8004524:	60a5      	str	r5, [r4, #8]
 8004526:	9b01      	ldr	r3, [sp, #4]
 8004528:	42b3      	cmp	r3, r6
 800452a:	d200      	bcs.n	800452e <__ssputs_r+0x8e>
 800452c:	001e      	movs	r6, r3
 800452e:	0032      	movs	r2, r6
 8004530:	9903      	ldr	r1, [sp, #12]
 8004532:	6820      	ldr	r0, [r4, #0]
 8004534:	f000 faad 	bl	8004a92 <memmove>
 8004538:	68a3      	ldr	r3, [r4, #8]
 800453a:	2000      	movs	r0, #0
 800453c:	1b9b      	subs	r3, r3, r6
 800453e:	60a3      	str	r3, [r4, #8]
 8004540:	6823      	ldr	r3, [r4, #0]
 8004542:	199e      	adds	r6, r3, r6
 8004544:	6026      	str	r6, [r4, #0]
 8004546:	e7da      	b.n	80044fe <__ssputs_r+0x5e>
 8004548:	002a      	movs	r2, r5
 800454a:	0038      	movs	r0, r7
 800454c:	f000 fb5c 	bl	8004c08 <_realloc_r>
 8004550:	1e06      	subs	r6, r0, #0
 8004552:	d1e0      	bne.n	8004516 <__ssputs_r+0x76>
 8004554:	6921      	ldr	r1, [r4, #16]
 8004556:	0038      	movs	r0, r7
 8004558:	f000 faae 	bl	8004ab8 <_free_r>
 800455c:	e7c7      	b.n	80044ee <__ssputs_r+0x4e>
 800455e:	46c0      	nop			; (mov r8, r8)
 8004560:	fffffb7f 	.word	0xfffffb7f

08004564 <_svfiprintf_r>:
 8004564:	b5f0      	push	{r4, r5, r6, r7, lr}
 8004566:	b09f      	sub	sp, #124	; 0x7c
 8004568:	9002      	str	r0, [sp, #8]
 800456a:	9305      	str	r3, [sp, #20]
 800456c:	898b      	ldrh	r3, [r1, #12]
 800456e:	000f      	movs	r7, r1
 8004570:	0016      	movs	r6, r2
 8004572:	061b      	lsls	r3, r3, #24
 8004574:	d511      	bpl.n	800459a <_svfiprintf_r+0x36>
 8004576:	690b      	ldr	r3, [r1, #16]
 8004578:	2b00      	cmp	r3, #0
 800457a:	d10e      	bne.n	800459a <_svfiprintf_r+0x36>
 800457c:	2140      	movs	r1, #64	; 0x40
 800457e:	f000 fae5 	bl	8004b4c <_malloc_r>
 8004582:	6038      	str	r0, [r7, #0]
 8004584:	6138      	str	r0, [r7, #16]
 8004586:	2800      	cmp	r0, #0
 8004588:	d105      	bne.n	8004596 <_svfiprintf_r+0x32>
 800458a:	230c      	movs	r3, #12
 800458c:	9a02      	ldr	r2, [sp, #8]
 800458e:	3801      	subs	r0, #1
 8004590:	6013      	str	r3, [r2, #0]
 8004592:	b01f      	add	sp, #124	; 0x7c
 8004594:	bdf0      	pop	{r4, r5, r6, r7, pc}
 8004596:	2340      	movs	r3, #64	; 0x40
 8004598:	617b      	str	r3, [r7, #20]
 800459a:	2300      	movs	r3, #0
 800459c:	ad06      	add	r5, sp, #24
 800459e:	616b      	str	r3, [r5, #20]
 80045a0:	3320      	adds	r3, #32
 80045a2:	766b      	strb	r3, [r5, #25]
 80045a4:	3310      	adds	r3, #16
 80045a6:	76ab      	strb	r3, [r5, #26]
 80045a8:	0034      	movs	r4, r6
 80045aa:	7823      	ldrb	r3, [r4, #0]
 80045ac:	2b00      	cmp	r3, #0
 80045ae:	d147      	bne.n	8004640 <_svfiprintf_r+0xdc>
 80045b0:	1ba3      	subs	r3, r4, r6
 80045b2:	9304      	str	r3, [sp, #16]
 80045b4:	d00d      	beq.n	80045d2 <_svfiprintf_r+0x6e>
 80045b6:	1ba3      	subs	r3, r4, r6
 80045b8:	0032      	movs	r2, r6
 80045ba:	0039      	movs	r1, r7
 80045bc:	9802      	ldr	r0, [sp, #8]
 80045be:	f7ff ff6f 	bl	80044a0 <__ssputs_r>
 80045c2:	1c43      	adds	r3, r0, #1
 80045c4:	d100      	bne.n	80045c8 <_svfiprintf_r+0x64>
 80045c6:	e0b5      	b.n	8004734 <_svfiprintf_r+0x1d0>
 80045c8:	696a      	ldr	r2, [r5, #20]
 80045ca:	9b04      	ldr	r3, [sp, #16]
 80045cc:	4694      	mov	ip, r2
 80045ce:	4463      	add	r3, ip
 80045d0:	616b      	str	r3, [r5, #20]
 80045d2:	7823      	ldrb	r3, [r4, #0]
 80045d4:	2b00      	cmp	r3, #0
 80045d6:	d100      	bne.n	80045da <_svfiprintf_r+0x76>
 80045d8:	e0ac      	b.n	8004734 <_svfiprintf_r+0x1d0>
 80045da:	2201      	movs	r2, #1
 80045dc:	2300      	movs	r3, #0
 80045de:	4252      	negs	r2, r2
 80045e0:	606a      	str	r2, [r5, #4]
 80045e2:	a902      	add	r1, sp, #8
 80045e4:	3254      	adds	r2, #84	; 0x54
 80045e6:	1852      	adds	r2, r2, r1
 80045e8:	3401      	adds	r4, #1
 80045ea:	602b      	str	r3, [r5, #0]
 80045ec:	60eb      	str	r3, [r5, #12]
 80045ee:	60ab      	str	r3, [r5, #8]
 80045f0:	7013      	strb	r3, [r2, #0]
 80045f2:	65ab      	str	r3, [r5, #88]	; 0x58
 80045f4:	4e58      	ldr	r6, [pc, #352]	; (8004758 <_svfiprintf_r+0x1f4>)
 80045f6:	2205      	movs	r2, #5
 80045f8:	7821      	ldrb	r1, [r4, #0]
 80045fa:	0030      	movs	r0, r6
 80045fc:	f000 fa3e 	bl	8004a7c <memchr>
 8004600:	1c62      	adds	r2, r4, #1
 8004602:	2800      	cmp	r0, #0
 8004604:	d120      	bne.n	8004648 <_svfiprintf_r+0xe4>
 8004606:	6829      	ldr	r1, [r5, #0]
 8004608:	06cb      	lsls	r3, r1, #27
 800460a:	d504      	bpl.n	8004616 <_svfiprintf_r+0xb2>
 800460c:	2353      	movs	r3, #83	; 0x53
 800460e:	ae02      	add	r6, sp, #8
 8004610:	3020      	adds	r0, #32
 8004612:	199b      	adds	r3, r3, r6
 8004614:	7018      	strb	r0, [r3, #0]
 8004616:	070b      	lsls	r3, r1, #28
 8004618:	d504      	bpl.n	8004624 <_svfiprintf_r+0xc0>
 800461a:	2353      	movs	r3, #83	; 0x53
 800461c:	202b      	movs	r0, #43	; 0x2b
 800461e:	ae02      	add	r6, sp, #8
 8004620:	199b      	adds	r3, r3, r6
 8004622:	7018      	strb	r0, [r3, #0]
 8004624:	7823      	ldrb	r3, [r4, #0]
 8004626:	2b2a      	cmp	r3, #42	; 0x2a
 8004628:	d016      	beq.n	8004658 <_svfiprintf_r+0xf4>
 800462a:	2000      	movs	r0, #0
 800462c:	210a      	movs	r1, #10
 800462e:	9b09      	ldr	r3, [sp, #36]	; 0x24
 8004630:	7822      	ldrb	r2, [r4, #0]
 8004632:	3a30      	subs	r2, #48	; 0x30
 8004634:	2a09      	cmp	r2, #9
 8004636:	d955      	bls.n	80046e4 <_svfiprintf_r+0x180>
 8004638:	2800      	cmp	r0, #0
 800463a:	d015      	beq.n	8004668 <_svfiprintf_r+0x104>
 800463c:	9309      	str	r3, [sp, #36]	; 0x24
 800463e:	e013      	b.n	8004668 <_svfiprintf_r+0x104>
 8004640:	2b25      	cmp	r3, #37	; 0x25
 8004642:	d0b5      	beq.n	80045b0 <_svfiprintf_r+0x4c>
 8004644:	3401      	adds	r4, #1
 8004646:	e7b0      	b.n	80045aa <_svfiprintf_r+0x46>
 8004648:	2301      	movs	r3, #1
 800464a:	1b80      	subs	r0, r0, r6
 800464c:	4083      	lsls	r3, r0
 800464e:	6829      	ldr	r1, [r5, #0]
 8004650:	0014      	movs	r4, r2
 8004652:	430b      	orrs	r3, r1
 8004654:	602b      	str	r3, [r5, #0]
 8004656:	e7cd      	b.n	80045f4 <_svfiprintf_r+0x90>
 8004658:	9b05      	ldr	r3, [sp, #20]
 800465a:	1d18      	adds	r0, r3, #4
 800465c:	681b      	ldr	r3, [r3, #0]
 800465e:	9005      	str	r0, [sp, #20]
 8004660:	2b00      	cmp	r3, #0
 8004662:	db39      	blt.n	80046d8 <_svfiprintf_r+0x174>
 8004664:	9309      	str	r3, [sp, #36]	; 0x24
 8004666:	0014      	movs	r4, r2
 8004668:	7823      	ldrb	r3, [r4, #0]
 800466a:	2b2e      	cmp	r3, #46	; 0x2e
 800466c:	d10b      	bne.n	8004686 <_svfiprintf_r+0x122>
 800466e:	7863      	ldrb	r3, [r4, #1]
 8004670:	1c62      	adds	r2, r4, #1
 8004672:	2b2a      	cmp	r3, #42	; 0x2a
 8004674:	d13e      	bne.n	80046f4 <_svfiprintf_r+0x190>
 8004676:	9b05      	ldr	r3, [sp, #20]
 8004678:	3402      	adds	r4, #2
 800467a:	1d1a      	adds	r2, r3, #4
 800467c:	681b      	ldr	r3, [r3, #0]
 800467e:	9205      	str	r2, [sp, #20]
 8004680:	2b00      	cmp	r3, #0
 8004682:	db34      	blt.n	80046ee <_svfiprintf_r+0x18a>
 8004684:	9307      	str	r3, [sp, #28]
 8004686:	4e35      	ldr	r6, [pc, #212]	; (800475c <_svfiprintf_r+0x1f8>)
 8004688:	7821      	ldrb	r1, [r4, #0]
 800468a:	2203      	movs	r2, #3
 800468c:	0030      	movs	r0, r6
 800468e:	f000 f9f5 	bl	8004a7c <memchr>
 8004692:	2800      	cmp	r0, #0
 8004694:	d006      	beq.n	80046a4 <_svfiprintf_r+0x140>
 8004696:	2340      	movs	r3, #64	; 0x40
 8004698:	1b80      	subs	r0, r0, r6
 800469a:	4083      	lsls	r3, r0
 800469c:	682a      	ldr	r2, [r5, #0]
 800469e:	3401      	adds	r4, #1
 80046a0:	4313      	orrs	r3, r2
 80046a2:	602b      	str	r3, [r5, #0]
 80046a4:	7821      	ldrb	r1, [r4, #0]
 80046a6:	2206      	movs	r2, #6
 80046a8:	482d      	ldr	r0, [pc, #180]	; (8004760 <_svfiprintf_r+0x1fc>)
 80046aa:	1c66      	adds	r6, r4, #1
 80046ac:	7629      	strb	r1, [r5, #24]
 80046ae:	f000 f9e5 	bl	8004a7c <memchr>
 80046b2:	2800      	cmp	r0, #0
 80046b4:	d046      	beq.n	8004744 <_svfiprintf_r+0x1e0>
 80046b6:	4b2b      	ldr	r3, [pc, #172]	; (8004764 <_svfiprintf_r+0x200>)
 80046b8:	2b00      	cmp	r3, #0
 80046ba:	d12f      	bne.n	800471c <_svfiprintf_r+0x1b8>
 80046bc:	6829      	ldr	r1, [r5, #0]
 80046be:	9b05      	ldr	r3, [sp, #20]
 80046c0:	2207      	movs	r2, #7
 80046c2:	05c9      	lsls	r1, r1, #23
 80046c4:	d528      	bpl.n	8004718 <_svfiprintf_r+0x1b4>
 80046c6:	189b      	adds	r3, r3, r2
 80046c8:	4393      	bics	r3, r2
 80046ca:	3308      	adds	r3, #8
 80046cc:	9305      	str	r3, [sp, #20]
 80046ce:	696b      	ldr	r3, [r5, #20]
 80046d0:	9a03      	ldr	r2, [sp, #12]
 80046d2:	189b      	adds	r3, r3, r2
 80046d4:	616b      	str	r3, [r5, #20]
 80046d6:	e767      	b.n	80045a8 <_svfiprintf_r+0x44>
 80046d8:	425b      	negs	r3, r3
 80046da:	60eb      	str	r3, [r5, #12]
 80046dc:	2302      	movs	r3, #2
 80046de:	430b      	orrs	r3, r1
 80046e0:	602b      	str	r3, [r5, #0]
 80046e2:	e7c0      	b.n	8004666 <_svfiprintf_r+0x102>
 80046e4:	434b      	muls	r3, r1
 80046e6:	3401      	adds	r4, #1
 80046e8:	189b      	adds	r3, r3, r2
 80046ea:	2001      	movs	r0, #1
 80046ec:	e7a0      	b.n	8004630 <_svfiprintf_r+0xcc>
 80046ee:	2301      	movs	r3, #1
 80046f0:	425b      	negs	r3, r3
 80046f2:	e7c7      	b.n	8004684 <_svfiprintf_r+0x120>
 80046f4:	2300      	movs	r3, #0
 80046f6:	0014      	movs	r4, r2
 80046f8:	200a      	movs	r0, #10
 80046fa:	001a      	movs	r2, r3
 80046fc:	606b      	str	r3, [r5, #4]
 80046fe:	7821      	ldrb	r1, [r4, #0]
 8004700:	3930      	subs	r1, #48	; 0x30
 8004702:	2909      	cmp	r1, #9
 8004704:	d903      	bls.n	800470e <_svfiprintf_r+0x1aa>
 8004706:	2b00      	cmp	r3, #0
 8004708:	d0bd      	beq.n	8004686 <_svfiprintf_r+0x122>
 800470a:	9207      	str	r2, [sp, #28]
 800470c:	e7bb      	b.n	8004686 <_svfiprintf_r+0x122>
 800470e:	4342      	muls	r2, r0
 8004710:	3401      	adds	r4, #1
 8004712:	1852      	adds	r2, r2, r1
 8004714:	2301      	movs	r3, #1
 8004716:	e7f2      	b.n	80046fe <_svfiprintf_r+0x19a>
 8004718:	3307      	adds	r3, #7
 800471a:	e7d5      	b.n	80046c8 <_svfiprintf_r+0x164>
 800471c:	ab05      	add	r3, sp, #20
 800471e:	9300      	str	r3, [sp, #0]
 8004720:	003a      	movs	r2, r7
 8004722:	4b11      	ldr	r3, [pc, #68]	; (8004768 <_svfiprintf_r+0x204>)
 8004724:	0029      	movs	r1, r5
 8004726:	9802      	ldr	r0, [sp, #8]
 8004728:	e000      	b.n	800472c <_svfiprintf_r+0x1c8>
 800472a:	bf00      	nop
 800472c:	9003      	str	r0, [sp, #12]
 800472e:	9b03      	ldr	r3, [sp, #12]
 8004730:	3301      	adds	r3, #1
 8004732:	d1cc      	bne.n	80046ce <_svfiprintf_r+0x16a>
 8004734:	89bb      	ldrh	r3, [r7, #12]
 8004736:	980b      	ldr	r0, [sp, #44]	; 0x2c
 8004738:	065b      	lsls	r3, r3, #25
 800473a:	d400      	bmi.n	800473e <_svfiprintf_r+0x1da>
 800473c:	e729      	b.n	8004592 <_svfiprintf_r+0x2e>
 800473e:	2001      	movs	r0, #1
 8004740:	4240      	negs	r0, r0
 8004742:	e726      	b.n	8004592 <_svfiprintf_r+0x2e>
 8004744:	ab05      	add	r3, sp, #20
 8004746:	9300      	str	r3, [sp, #0]
 8004748:	003a      	movs	r2, r7
 800474a:	4b07      	ldr	r3, [pc, #28]	; (8004768 <_svfiprintf_r+0x204>)
 800474c:	0029      	movs	r1, r5
 800474e:	9802      	ldr	r0, [sp, #8]
 8004750:	f000 f87a 	bl	8004848 <_printf_i>
 8004754:	e7ea      	b.n	800472c <_svfiprintf_r+0x1c8>
 8004756:	46c0      	nop			; (mov r8, r8)
 8004758:	08004e6a 	.word	0x08004e6a
 800475c:	08004e70 	.word	0x08004e70
 8004760:	08004e74 	.word	0x08004e74
 8004764:	00000000 	.word	0x00000000
 8004768:	080044a1 	.word	0x080044a1

0800476c <_printf_common>:
 800476c:	b5f7      	push	{r0, r1, r2, r4, r5, r6, r7, lr}
 800476e:	0015      	movs	r5, r2
 8004770:	9301      	str	r3, [sp, #4]
 8004772:	688a      	ldr	r2, [r1, #8]
 8004774:	690b      	ldr	r3, [r1, #16]
 8004776:	9000      	str	r0, [sp, #0]
 8004778:	000c      	movs	r4, r1
 800477a:	4293      	cmp	r3, r2
 800477c:	da00      	bge.n	8004780 <_printf_common+0x14>
 800477e:	0013      	movs	r3, r2
 8004780:	0022      	movs	r2, r4
 8004782:	602b      	str	r3, [r5, #0]
 8004784:	3243      	adds	r2, #67	; 0x43
 8004786:	7812      	ldrb	r2, [r2, #0]
 8004788:	2a00      	cmp	r2, #0
 800478a:	d001      	beq.n	8004790 <_printf_common+0x24>
 800478c:	3301      	adds	r3, #1
 800478e:	602b      	str	r3, [r5, #0]
 8004790:	6823      	ldr	r3, [r4, #0]
 8004792:	069b      	lsls	r3, r3, #26
 8004794:	d502      	bpl.n	800479c <_printf_common+0x30>
 8004796:	682b      	ldr	r3, [r5, #0]
 8004798:	3302      	adds	r3, #2
 800479a:	602b      	str	r3, [r5, #0]
 800479c:	2706      	movs	r7, #6
 800479e:	6823      	ldr	r3, [r4, #0]
 80047a0:	401f      	ands	r7, r3
 80047a2:	d027      	beq.n	80047f4 <_printf_common+0x88>
 80047a4:	0023      	movs	r3, r4
 80047a6:	3343      	adds	r3, #67	; 0x43
 80047a8:	781b      	ldrb	r3, [r3, #0]
 80047aa:	1e5a      	subs	r2, r3, #1
 80047ac:	4193      	sbcs	r3, r2
 80047ae:	6822      	ldr	r2, [r4, #0]
 80047b0:	0692      	lsls	r2, r2, #26
 80047b2:	d430      	bmi.n	8004816 <_printf_common+0xaa>
 80047b4:	0022      	movs	r2, r4
 80047b6:	9901      	ldr	r1, [sp, #4]
 80047b8:	3243      	adds	r2, #67	; 0x43
 80047ba:	9800      	ldr	r0, [sp, #0]
 80047bc:	9e08      	ldr	r6, [sp, #32]
 80047be:	47b0      	blx	r6
 80047c0:	1c43      	adds	r3, r0, #1
 80047c2:	d025      	beq.n	8004810 <_printf_common+0xa4>
 80047c4:	2306      	movs	r3, #6
 80047c6:	6820      	ldr	r0, [r4, #0]
 80047c8:	682a      	ldr	r2, [r5, #0]
 80047ca:	68e1      	ldr	r1, [r4, #12]
 80047cc:	4003      	ands	r3, r0
 80047ce:	2500      	movs	r5, #0
 80047d0:	2b04      	cmp	r3, #4
 80047d2:	d103      	bne.n	80047dc <_printf_common+0x70>
 80047d4:	1a8d      	subs	r5, r1, r2
 80047d6:	43eb      	mvns	r3, r5
 80047d8:	17db      	asrs	r3, r3, #31
 80047da:	401d      	ands	r5, r3
 80047dc:	68a3      	ldr	r3, [r4, #8]
 80047de:	6922      	ldr	r2, [r4, #16]
 80047e0:	4293      	cmp	r3, r2
 80047e2:	dd01      	ble.n	80047e8 <_printf_common+0x7c>
 80047e4:	1a9b      	subs	r3, r3, r2
 80047e6:	18ed      	adds	r5, r5, r3
 80047e8:	2700      	movs	r7, #0
 80047ea:	42bd      	cmp	r5, r7
 80047ec:	d120      	bne.n	8004830 <_printf_common+0xc4>
 80047ee:	2000      	movs	r0, #0
 80047f0:	e010      	b.n	8004814 <_printf_common+0xa8>
 80047f2:	3701      	adds	r7, #1
 80047f4:	68e3      	ldr	r3, [r4, #12]
 80047f6:	682a      	ldr	r2, [r5, #0]
 80047f8:	1a9b      	subs	r3, r3, r2
 80047fa:	429f      	cmp	r7, r3
 80047fc:	dad2      	bge.n	80047a4 <_printf_common+0x38>
 80047fe:	0022      	movs	r2, r4
 8004800:	2301      	movs	r3, #1
 8004802:	3219      	adds	r2, #25
 8004804:	9901      	ldr	r1, [sp, #4]
 8004806:	9800      	ldr	r0, [sp, #0]
 8004808:	9e08      	ldr	r6, [sp, #32]
 800480a:	47b0      	blx	r6
 800480c:	1c43      	adds	r3, r0, #1
 800480e:	d1f0      	bne.n	80047f2 <_printf_common+0x86>
 8004810:	2001      	movs	r0, #1
 8004812:	4240      	negs	r0, r0
 8004814:	bdfe      	pop	{r1, r2, r3, r4, r5, r6, r7, pc}
 8004816:	2030      	movs	r0, #48	; 0x30
 8004818:	18e1      	adds	r1, r4, r3
 800481a:	3143      	adds	r1, #67	; 0x43
 800481c:	7008      	strb	r0, [r1, #0]
 800481e:	0021      	movs	r1, r4
 8004820:	1c5a      	adds	r2, r3, #1
 8004822:	3145      	adds	r1, #69	; 0x45
 8004824:	7809      	ldrb	r1, [r1, #0]
 8004826:	18a2      	adds	r2, r4, r2
 8004828:	3243      	adds	r2, #67	; 0x43
 800482a:	3302      	adds	r3, #2
 800482c:	7011      	strb	r1, [r2, #0]
 800482e:	e7c1      	b.n	80047b4 <_printf_common+0x48>
 8004830:	0022      	movs	r2, r4
 8004832:	2301      	movs	r3, #1
 8004834:	321a      	adds	r2, #26
 8004836:	9901      	ldr	r1, [sp, #4]
 8004838:	9800      	ldr	r0, [sp, #0]
 800483a:	9e08      	ldr	r6, [sp, #32]
 800483c:	47b0      	blx	r6
 800483e:	1c43      	adds	r3, r0, #1
 8004840:	d0e6      	beq.n	8004810 <_printf_common+0xa4>
 8004842:	3701      	adds	r7, #1
 8004844:	e7d1      	b.n	80047ea <_printf_common+0x7e>
	...

08004848 <_printf_i>:
 8004848:	b5f0      	push	{r4, r5, r6, r7, lr}
 800484a:	b08b      	sub	sp, #44	; 0x2c
 800484c:	9206      	str	r2, [sp, #24]
 800484e:	000a      	movs	r2, r1
 8004850:	3243      	adds	r2, #67	; 0x43
 8004852:	9307      	str	r3, [sp, #28]
 8004854:	9005      	str	r0, [sp, #20]
 8004856:	9204      	str	r2, [sp, #16]
 8004858:	7e0a      	ldrb	r2, [r1, #24]
 800485a:	000c      	movs	r4, r1
 800485c:	9b10      	ldr	r3, [sp, #64]	; 0x40
 800485e:	2a6e      	cmp	r2, #110	; 0x6e
 8004860:	d100      	bne.n	8004864 <_printf_i+0x1c>
 8004862:	e08f      	b.n	8004984 <_printf_i+0x13c>
 8004864:	d817      	bhi.n	8004896 <_printf_i+0x4e>
 8004866:	2a63      	cmp	r2, #99	; 0x63
 8004868:	d02c      	beq.n	80048c4 <_printf_i+0x7c>
 800486a:	d808      	bhi.n	800487e <_printf_i+0x36>
 800486c:	2a00      	cmp	r2, #0
 800486e:	d100      	bne.n	8004872 <_printf_i+0x2a>
 8004870:	e099      	b.n	80049a6 <_printf_i+0x15e>
 8004872:	2a58      	cmp	r2, #88	; 0x58
 8004874:	d054      	beq.n	8004920 <_printf_i+0xd8>
 8004876:	0026      	movs	r6, r4
 8004878:	3642      	adds	r6, #66	; 0x42
 800487a:	7032      	strb	r2, [r6, #0]
 800487c:	e029      	b.n	80048d2 <_printf_i+0x8a>
 800487e:	2a64      	cmp	r2, #100	; 0x64
 8004880:	d001      	beq.n	8004886 <_printf_i+0x3e>
 8004882:	2a69      	cmp	r2, #105	; 0x69
 8004884:	d1f7      	bne.n	8004876 <_printf_i+0x2e>
 8004886:	6821      	ldr	r1, [r4, #0]
 8004888:	681a      	ldr	r2, [r3, #0]
 800488a:	0608      	lsls	r0, r1, #24
 800488c:	d523      	bpl.n	80048d6 <_printf_i+0x8e>
 800488e:	1d11      	adds	r1, r2, #4
 8004890:	6019      	str	r1, [r3, #0]
 8004892:	6815      	ldr	r5, [r2, #0]
 8004894:	e025      	b.n	80048e2 <_printf_i+0x9a>
 8004896:	2a73      	cmp	r2, #115	; 0x73
 8004898:	d100      	bne.n	800489c <_printf_i+0x54>
 800489a:	e088      	b.n	80049ae <_printf_i+0x166>
 800489c:	d808      	bhi.n	80048b0 <_printf_i+0x68>
 800489e:	2a6f      	cmp	r2, #111	; 0x6f
 80048a0:	d029      	beq.n	80048f6 <_printf_i+0xae>
 80048a2:	2a70      	cmp	r2, #112	; 0x70
 80048a4:	d1e7      	bne.n	8004876 <_printf_i+0x2e>
 80048a6:	2220      	movs	r2, #32
 80048a8:	6809      	ldr	r1, [r1, #0]
 80048aa:	430a      	orrs	r2, r1
 80048ac:	6022      	str	r2, [r4, #0]
 80048ae:	e003      	b.n	80048b8 <_printf_i+0x70>
 80048b0:	2a75      	cmp	r2, #117	; 0x75
 80048b2:	d020      	beq.n	80048f6 <_printf_i+0xae>
 80048b4:	2a78      	cmp	r2, #120	; 0x78
 80048b6:	d1de      	bne.n	8004876 <_printf_i+0x2e>
 80048b8:	0022      	movs	r2, r4
 80048ba:	2178      	movs	r1, #120	; 0x78
 80048bc:	3245      	adds	r2, #69	; 0x45
 80048be:	7011      	strb	r1, [r2, #0]
 80048c0:	4a6c      	ldr	r2, [pc, #432]	; (8004a74 <_printf_i+0x22c>)
 80048c2:	e030      	b.n	8004926 <_printf_i+0xde>
 80048c4:	000e      	movs	r6, r1
 80048c6:	681a      	ldr	r2, [r3, #0]
 80048c8:	3642      	adds	r6, #66	; 0x42
 80048ca:	1d11      	adds	r1, r2, #4
 80048cc:	6019      	str	r1, [r3, #0]
 80048ce:	6813      	ldr	r3, [r2, #0]
 80048d0:	7033      	strb	r3, [r6, #0]
 80048d2:	2301      	movs	r3, #1
 80048d4:	e079      	b.n	80049ca <_printf_i+0x182>
 80048d6:	0649      	lsls	r1, r1, #25
 80048d8:	d5d9      	bpl.n	800488e <_printf_i+0x46>
 80048da:	1d11      	adds	r1, r2, #4
 80048dc:	6019      	str	r1, [r3, #0]
 80048de:	2300      	movs	r3, #0
 80048e0:	5ed5      	ldrsh	r5, [r2, r3]
 80048e2:	2d00      	cmp	r5, #0
 80048e4:	da03      	bge.n	80048ee <_printf_i+0xa6>
 80048e6:	232d      	movs	r3, #45	; 0x2d
 80048e8:	9a04      	ldr	r2, [sp, #16]
 80048ea:	426d      	negs	r5, r5
 80048ec:	7013      	strb	r3, [r2, #0]
 80048ee:	4b62      	ldr	r3, [pc, #392]	; (8004a78 <_printf_i+0x230>)
 80048f0:	270a      	movs	r7, #10
 80048f2:	9303      	str	r3, [sp, #12]
 80048f4:	e02f      	b.n	8004956 <_printf_i+0x10e>
 80048f6:	6820      	ldr	r0, [r4, #0]
 80048f8:	6819      	ldr	r1, [r3, #0]
 80048fa:	0605      	lsls	r5, r0, #24
 80048fc:	d503      	bpl.n	8004906 <_printf_i+0xbe>
 80048fe:	1d08      	adds	r0, r1, #4
 8004900:	6018      	str	r0, [r3, #0]
 8004902:	680d      	ldr	r5, [r1, #0]
 8004904:	e005      	b.n	8004912 <_printf_i+0xca>
 8004906:	0640      	lsls	r0, r0, #25
 8004908:	d5f9      	bpl.n	80048fe <_printf_i+0xb6>
 800490a:	680d      	ldr	r5, [r1, #0]
 800490c:	1d08      	adds	r0, r1, #4
 800490e:	6018      	str	r0, [r3, #0]
 8004910:	b2ad      	uxth	r5, r5
 8004912:	4b59      	ldr	r3, [pc, #356]	; (8004a78 <_printf_i+0x230>)
 8004914:	2708      	movs	r7, #8
 8004916:	9303      	str	r3, [sp, #12]
 8004918:	2a6f      	cmp	r2, #111	; 0x6f
 800491a:	d018      	beq.n	800494e <_printf_i+0x106>
 800491c:	270a      	movs	r7, #10
 800491e:	e016      	b.n	800494e <_printf_i+0x106>
 8004920:	3145      	adds	r1, #69	; 0x45
 8004922:	700a      	strb	r2, [r1, #0]
 8004924:	4a54      	ldr	r2, [pc, #336]	; (8004a78 <_printf_i+0x230>)
 8004926:	9203      	str	r2, [sp, #12]
 8004928:	681a      	ldr	r2, [r3, #0]
 800492a:	6821      	ldr	r1, [r4, #0]
 800492c:	1d10      	adds	r0, r2, #4
 800492e:	6018      	str	r0, [r3, #0]
 8004930:	6815      	ldr	r5, [r2, #0]
 8004932:	0608      	lsls	r0, r1, #24
 8004934:	d522      	bpl.n	800497c <_printf_i+0x134>
 8004936:	07cb      	lsls	r3, r1, #31
 8004938:	d502      	bpl.n	8004940 <_printf_i+0xf8>
 800493a:	2320      	movs	r3, #32
 800493c:	4319      	orrs	r1, r3
 800493e:	6021      	str	r1, [r4, #0]
 8004940:	2710      	movs	r7, #16
 8004942:	2d00      	cmp	r5, #0
 8004944:	d103      	bne.n	800494e <_printf_i+0x106>
 8004946:	2320      	movs	r3, #32
 8004948:	6822      	ldr	r2, [r4, #0]
 800494a:	439a      	bics	r2, r3
 800494c:	6022      	str	r2, [r4, #0]
 800494e:	0023      	movs	r3, r4
 8004950:	2200      	movs	r2, #0
 8004952:	3343      	adds	r3, #67	; 0x43
 8004954:	701a      	strb	r2, [r3, #0]
 8004956:	6863      	ldr	r3, [r4, #4]
 8004958:	60a3      	str	r3, [r4, #8]
 800495a:	2b00      	cmp	r3, #0
 800495c:	db5c      	blt.n	8004a18 <_printf_i+0x1d0>
 800495e:	2204      	movs	r2, #4
 8004960:	6821      	ldr	r1, [r4, #0]
 8004962:	4391      	bics	r1, r2
 8004964:	6021      	str	r1, [r4, #0]
 8004966:	2d00      	cmp	r5, #0
 8004968:	d158      	bne.n	8004a1c <_printf_i+0x1d4>
 800496a:	9e04      	ldr	r6, [sp, #16]
 800496c:	2b00      	cmp	r3, #0
 800496e:	d064      	beq.n	8004a3a <_printf_i+0x1f2>
 8004970:	0026      	movs	r6, r4
 8004972:	9b03      	ldr	r3, [sp, #12]
 8004974:	3642      	adds	r6, #66	; 0x42
 8004976:	781b      	ldrb	r3, [r3, #0]
 8004978:	7033      	strb	r3, [r6, #0]
 800497a:	e05e      	b.n	8004a3a <_printf_i+0x1f2>
 800497c:	0648      	lsls	r0, r1, #25
 800497e:	d5da      	bpl.n	8004936 <_printf_i+0xee>
 8004980:	b2ad      	uxth	r5, r5
 8004982:	e7d8      	b.n	8004936 <_printf_i+0xee>
 8004984:	6809      	ldr	r1, [r1, #0]
 8004986:	681a      	ldr	r2, [r3, #0]
 8004988:	0608      	lsls	r0, r1, #24
 800498a:	d505      	bpl.n	8004998 <_printf_i+0x150>
 800498c:	1d11      	adds	r1, r2, #4
 800498e:	6019      	str	r1, [r3, #0]
 8004990:	6813      	ldr	r3, [r2, #0]
 8004992:	6962      	ldr	r2, [r4, #20]
 8004994:	601a      	str	r2, [r3, #0]
 8004996:	e006      	b.n	80049a6 <_printf_i+0x15e>
 8004998:	0649      	lsls	r1, r1, #25
 800499a:	d5f7      	bpl.n	800498c <_printf_i+0x144>
 800499c:	1d11      	adds	r1, r2, #4
 800499e:	6019      	str	r1, [r3, #0]
 80049a0:	6813      	ldr	r3, [r2, #0]
 80049a2:	8aa2      	ldrh	r2, [r4, #20]
 80049a4:	801a      	strh	r2, [r3, #0]
 80049a6:	2300      	movs	r3, #0
 80049a8:	9e04      	ldr	r6, [sp, #16]
 80049aa:	6123      	str	r3, [r4, #16]
 80049ac:	e054      	b.n	8004a58 <_printf_i+0x210>
 80049ae:	681a      	ldr	r2, [r3, #0]
 80049b0:	1d11      	adds	r1, r2, #4
 80049b2:	6019      	str	r1, [r3, #0]
 80049b4:	6816      	ldr	r6, [r2, #0]
 80049b6:	2100      	movs	r1, #0
 80049b8:	6862      	ldr	r2, [r4, #4]
 80049ba:	0030      	movs	r0, r6
 80049bc:	f000 f85e 	bl	8004a7c <memchr>
 80049c0:	2800      	cmp	r0, #0
 80049c2:	d001      	beq.n	80049c8 <_printf_i+0x180>
 80049c4:	1b80      	subs	r0, r0, r6
 80049c6:	6060      	str	r0, [r4, #4]
 80049c8:	6863      	ldr	r3, [r4, #4]
 80049ca:	6123      	str	r3, [r4, #16]
 80049cc:	2300      	movs	r3, #0
 80049ce:	9a04      	ldr	r2, [sp, #16]
 80049d0:	7013      	strb	r3, [r2, #0]
 80049d2:	e041      	b.n	8004a58 <_printf_i+0x210>
 80049d4:	6923      	ldr	r3, [r4, #16]
 80049d6:	0032      	movs	r2, r6
 80049d8:	9906      	ldr	r1, [sp, #24]
 80049da:	9805      	ldr	r0, [sp, #20]
 80049dc:	9d07      	ldr	r5, [sp, #28]
 80049de:	47a8      	blx	r5
 80049e0:	1c43      	adds	r3, r0, #1
 80049e2:	d043      	beq.n	8004a6c <_printf_i+0x224>
 80049e4:	6823      	ldr	r3, [r4, #0]
 80049e6:	2500      	movs	r5, #0
 80049e8:	079b      	lsls	r3, r3, #30
 80049ea:	d40f      	bmi.n	8004a0c <_printf_i+0x1c4>
 80049ec:	9b09      	ldr	r3, [sp, #36]	; 0x24
 80049ee:	68e0      	ldr	r0, [r4, #12]
 80049f0:	4298      	cmp	r0, r3
 80049f2:	da3d      	bge.n	8004a70 <_printf_i+0x228>
 80049f4:	0018      	movs	r0, r3
 80049f6:	e03b      	b.n	8004a70 <_printf_i+0x228>
 80049f8:	0022      	movs	r2, r4
 80049fa:	2301      	movs	r3, #1
 80049fc:	3219      	adds	r2, #25
 80049fe:	9906      	ldr	r1, [sp, #24]
 8004a00:	9805      	ldr	r0, [sp, #20]
 8004a02:	9e07      	ldr	r6, [sp, #28]
 8004a04:	47b0      	blx	r6
 8004a06:	1c43      	adds	r3, r0, #1
 8004a08:	d030      	beq.n	8004a6c <_printf_i+0x224>
 8004a0a:	3501      	adds	r5, #1
 8004a0c:	68e3      	ldr	r3, [r4, #12]
 8004a0e:	9a09      	ldr	r2, [sp, #36]	; 0x24
 8004a10:	1a9b      	subs	r3, r3, r2
 8004a12:	429d      	cmp	r5, r3
 8004a14:	dbf0      	blt.n	80049f8 <_printf_i+0x1b0>
 8004a16:	e7e9      	b.n	80049ec <_printf_i+0x1a4>
 8004a18:	2d00      	cmp	r5, #0
 8004a1a:	d0a9      	beq.n	8004970 <_printf_i+0x128>
 8004a1c:	9e04      	ldr	r6, [sp, #16]
 8004a1e:	0028      	movs	r0, r5
 8004a20:	0039      	movs	r1, r7
 8004a22:	f7fb fc0b 	bl	800023c <__aeabi_uidivmod>
 8004a26:	9b03      	ldr	r3, [sp, #12]
 8004a28:	3e01      	subs	r6, #1
 8004a2a:	5c5b      	ldrb	r3, [r3, r1]
 8004a2c:	0028      	movs	r0, r5
 8004a2e:	7033      	strb	r3, [r6, #0]
 8004a30:	0039      	movs	r1, r7
 8004a32:	f7fb fb7d 	bl	8000130 <__udivsi3>
 8004a36:	1e05      	subs	r5, r0, #0
 8004a38:	d1f1      	bne.n	8004a1e <_printf_i+0x1d6>
 8004a3a:	2f08      	cmp	r7, #8
 8004a3c:	d109      	bne.n	8004a52 <_printf_i+0x20a>
 8004a3e:	6823      	ldr	r3, [r4, #0]
 8004a40:	07db      	lsls	r3, r3, #31
 8004a42:	d506      	bpl.n	8004a52 <_printf_i+0x20a>
 8004a44:	6863      	ldr	r3, [r4, #4]
 8004a46:	6922      	ldr	r2, [r4, #16]
 8004a48:	4293      	cmp	r3, r2
 8004a4a:	dc02      	bgt.n	8004a52 <_printf_i+0x20a>
 8004a4c:	2330      	movs	r3, #48	; 0x30
 8004a4e:	3e01      	subs	r6, #1
 8004a50:	7033      	strb	r3, [r6, #0]
 8004a52:	9b04      	ldr	r3, [sp, #16]
 8004a54:	1b9b      	subs	r3, r3, r6
 8004a56:	6123      	str	r3, [r4, #16]
 8004a58:	9b07      	ldr	r3, [sp, #28]
 8004a5a:	aa09      	add	r2, sp, #36	; 0x24
 8004a5c:	9300      	str	r3, [sp, #0]
 8004a5e:	0021      	movs	r1, r4
 8004a60:	9b06      	ldr	r3, [sp, #24]
 8004a62:	9805      	ldr	r0, [sp, #20]
 8004a64:	f7ff fe82 	bl	800476c <_printf_common>
 8004a68:	1c43      	adds	r3, r0, #1
 8004a6a:	d1b3      	bne.n	80049d4 <_printf_i+0x18c>
 8004a6c:	2001      	movs	r0, #1
 8004a6e:	4240      	negs	r0, r0
 8004a70:	b00b      	add	sp, #44	; 0x2c
 8004a72:	bdf0      	pop	{r4, r5, r6, r7, pc}
 8004a74:	08004e8c 	.word	0x08004e8c
 8004a78:	08004e7b 	.word	0x08004e7b

08004a7c <memchr>:
 8004a7c:	b2c9      	uxtb	r1, r1
 8004a7e:	1882      	adds	r2, r0, r2
 8004a80:	4290      	cmp	r0, r2
 8004a82:	d101      	bne.n	8004a88 <memchr+0xc>
 8004a84:	2000      	movs	r0, #0
 8004a86:	4770      	bx	lr
 8004a88:	7803      	ldrb	r3, [r0, #0]
 8004a8a:	428b      	cmp	r3, r1
 8004a8c:	d0fb      	beq.n	8004a86 <memchr+0xa>
 8004a8e:	3001      	adds	r0, #1
 8004a90:	e7f6      	b.n	8004a80 <memchr+0x4>

08004a92 <memmove>:
 8004a92:	b510      	push	{r4, lr}
 8004a94:	4288      	cmp	r0, r1
 8004a96:	d902      	bls.n	8004a9e <memmove+0xc>
 8004a98:	188b      	adds	r3, r1, r2
 8004a9a:	4298      	cmp	r0, r3
 8004a9c:	d308      	bcc.n	8004ab0 <memmove+0x1e>
 8004a9e:	2300      	movs	r3, #0
 8004aa0:	429a      	cmp	r2, r3
 8004aa2:	d007      	beq.n	8004ab4 <memmove+0x22>
 8004aa4:	5ccc      	ldrb	r4, [r1, r3]
 8004aa6:	54c4      	strb	r4, [r0, r3]
 8004aa8:	3301      	adds	r3, #1
 8004aaa:	e7f9      	b.n	8004aa0 <memmove+0xe>
 8004aac:	5c8b      	ldrb	r3, [r1, r2]
 8004aae:	5483      	strb	r3, [r0, r2]
 8004ab0:	3a01      	subs	r2, #1
 8004ab2:	d2fb      	bcs.n	8004aac <memmove+0x1a>
 8004ab4:	bd10      	pop	{r4, pc}
	...

08004ab8 <_free_r>:
 8004ab8:	b570      	push	{r4, r5, r6, lr}
 8004aba:	0005      	movs	r5, r0
 8004abc:	2900      	cmp	r1, #0
 8004abe:	d010      	beq.n	8004ae2 <_free_r+0x2a>
 8004ac0:	1f0c      	subs	r4, r1, #4
 8004ac2:	6823      	ldr	r3, [r4, #0]
 8004ac4:	2b00      	cmp	r3, #0
 8004ac6:	da00      	bge.n	8004aca <_free_r+0x12>
 8004ac8:	18e4      	adds	r4, r4, r3
 8004aca:	0028      	movs	r0, r5
 8004acc:	f000 f8d4 	bl	8004c78 <__malloc_lock>
 8004ad0:	4a1d      	ldr	r2, [pc, #116]	; (8004b48 <_free_r+0x90>)
 8004ad2:	6813      	ldr	r3, [r2, #0]
 8004ad4:	2b00      	cmp	r3, #0
 8004ad6:	d105      	bne.n	8004ae4 <_free_r+0x2c>
 8004ad8:	6063      	str	r3, [r4, #4]
 8004ada:	6014      	str	r4, [r2, #0]
 8004adc:	0028      	movs	r0, r5
 8004ade:	f000 f8cc 	bl	8004c7a <__malloc_unlock>
 8004ae2:	bd70      	pop	{r4, r5, r6, pc}
 8004ae4:	42a3      	cmp	r3, r4
 8004ae6:	d909      	bls.n	8004afc <_free_r+0x44>
 8004ae8:	6821      	ldr	r1, [r4, #0]
 8004aea:	1860      	adds	r0, r4, r1
 8004aec:	4283      	cmp	r3, r0
 8004aee:	d1f3      	bne.n	8004ad8 <_free_r+0x20>
 8004af0:	6818      	ldr	r0, [r3, #0]
 8004af2:	685b      	ldr	r3, [r3, #4]
 8004af4:	1841      	adds	r1, r0, r1
 8004af6:	6021      	str	r1, [r4, #0]
 8004af8:	e7ee      	b.n	8004ad8 <_free_r+0x20>
 8004afa:	0013      	movs	r3, r2
 8004afc:	685a      	ldr	r2, [r3, #4]
 8004afe:	2a00      	cmp	r2, #0
 8004b00:	d001      	beq.n	8004b06 <_free_r+0x4e>
 8004b02:	42a2      	cmp	r2, r4
 8004b04:	d9f9      	bls.n	8004afa <_free_r+0x42>
 8004b06:	6819      	ldr	r1, [r3, #0]
 8004b08:	1858      	adds	r0, r3, r1
 8004b0a:	42a0      	cmp	r0, r4
 8004b0c:	d10b      	bne.n	8004b26 <_free_r+0x6e>
 8004b0e:	6820      	ldr	r0, [r4, #0]
 8004b10:	1809      	adds	r1, r1, r0
 8004b12:	1858      	adds	r0, r3, r1
 8004b14:	6019      	str	r1, [r3, #0]
 8004b16:	4282      	cmp	r2, r0
 8004b18:	d1e0      	bne.n	8004adc <_free_r+0x24>
 8004b1a:	6810      	ldr	r0, [r2, #0]
 8004b1c:	6852      	ldr	r2, [r2, #4]
 8004b1e:	1841      	adds	r1, r0, r1
 8004b20:	6019      	str	r1, [r3, #0]
 8004b22:	605a      	str	r2, [r3, #4]
 8004b24:	e7da      	b.n	8004adc <_free_r+0x24>
 8004b26:	42a0      	cmp	r0, r4
 8004b28:	d902      	bls.n	8004b30 <_free_r+0x78>
 8004b2a:	230c      	movs	r3, #12
 8004b2c:	602b      	str	r3, [r5, #0]
 8004b2e:	e7d5      	b.n	8004adc <_free_r+0x24>
 8004b30:	6821      	ldr	r1, [r4, #0]
 8004b32:	1860      	adds	r0, r4, r1
 8004b34:	4282      	cmp	r2, r0
 8004b36:	d103      	bne.n	8004b40 <_free_r+0x88>
 8004b38:	6810      	ldr	r0, [r2, #0]
 8004b3a:	6852      	ldr	r2, [r2, #4]
 8004b3c:	1841      	adds	r1, r0, r1
 8004b3e:	6021      	str	r1, [r4, #0]
 8004b40:	6062      	str	r2, [r4, #4]
 8004b42:	605c      	str	r4, [r3, #4]
 8004b44:	e7ca      	b.n	8004adc <_free_r+0x24>
 8004b46:	46c0      	nop			; (mov r8, r8)
 8004b48:	20001170 	.word	0x20001170

08004b4c <_malloc_r>:
 8004b4c:	2303      	movs	r3, #3
 8004b4e:	b570      	push	{r4, r5, r6, lr}
 8004b50:	1ccd      	adds	r5, r1, #3
 8004b52:	439d      	bics	r5, r3
 8004b54:	3508      	adds	r5, #8
 8004b56:	0006      	movs	r6, r0
 8004b58:	2d0c      	cmp	r5, #12
 8004b5a:	d21e      	bcs.n	8004b9a <_malloc_r+0x4e>
 8004b5c:	250c      	movs	r5, #12
 8004b5e:	42a9      	cmp	r1, r5
 8004b60:	d81d      	bhi.n	8004b9e <_malloc_r+0x52>
 8004b62:	0030      	movs	r0, r6
 8004b64:	f000 f888 	bl	8004c78 <__malloc_lock>
 8004b68:	4a25      	ldr	r2, [pc, #148]	; (8004c00 <_malloc_r+0xb4>)
 8004b6a:	6814      	ldr	r4, [r2, #0]
 8004b6c:	0021      	movs	r1, r4
 8004b6e:	2900      	cmp	r1, #0
 8004b70:	d119      	bne.n	8004ba6 <_malloc_r+0x5a>
 8004b72:	4c24      	ldr	r4, [pc, #144]	; (8004c04 <_malloc_r+0xb8>)
 8004b74:	6823      	ldr	r3, [r4, #0]
 8004b76:	2b00      	cmp	r3, #0
 8004b78:	d103      	bne.n	8004b82 <_malloc_r+0x36>
 8004b7a:	0030      	movs	r0, r6
 8004b7c:	f000 f86a 	bl	8004c54 <_sbrk_r>
 8004b80:	6020      	str	r0, [r4, #0]
 8004b82:	0029      	movs	r1, r5
 8004b84:	0030      	movs	r0, r6
 8004b86:	f000 f865 	bl	8004c54 <_sbrk_r>
 8004b8a:	1c43      	adds	r3, r0, #1
 8004b8c:	d12c      	bne.n	8004be8 <_malloc_r+0x9c>
 8004b8e:	230c      	movs	r3, #12
 8004b90:	0030      	movs	r0, r6
 8004b92:	6033      	str	r3, [r6, #0]
 8004b94:	f000 f871 	bl	8004c7a <__malloc_unlock>
 8004b98:	e003      	b.n	8004ba2 <_malloc_r+0x56>
 8004b9a:	2d00      	cmp	r5, #0
 8004b9c:	dadf      	bge.n	8004b5e <_malloc_r+0x12>
 8004b9e:	230c      	movs	r3, #12
 8004ba0:	6033      	str	r3, [r6, #0]
 8004ba2:	2000      	movs	r0, #0
 8004ba4:	bd70      	pop	{r4, r5, r6, pc}
 8004ba6:	680b      	ldr	r3, [r1, #0]
 8004ba8:	1b5b      	subs	r3, r3, r5
 8004baa:	d41a      	bmi.n	8004be2 <_malloc_r+0x96>
 8004bac:	2b0b      	cmp	r3, #11
 8004bae:	d903      	bls.n	8004bb8 <_malloc_r+0x6c>
 8004bb0:	600b      	str	r3, [r1, #0]
 8004bb2:	18cc      	adds	r4, r1, r3
 8004bb4:	6025      	str	r5, [r4, #0]
 8004bb6:	e003      	b.n	8004bc0 <_malloc_r+0x74>
 8004bb8:	428c      	cmp	r4, r1
 8004bba:	d10e      	bne.n	8004bda <_malloc_r+0x8e>
 8004bbc:	6863      	ldr	r3, [r4, #4]
 8004bbe:	6013      	str	r3, [r2, #0]
 8004bc0:	0030      	movs	r0, r6
 8004bc2:	f000 f85a 	bl	8004c7a <__malloc_unlock>
 8004bc6:	0020      	movs	r0, r4
 8004bc8:	2207      	movs	r2, #7
 8004bca:	300b      	adds	r0, #11
 8004bcc:	1d23      	adds	r3, r4, #4
 8004bce:	4390      	bics	r0, r2
 8004bd0:	1ac3      	subs	r3, r0, r3
 8004bd2:	d0e7      	beq.n	8004ba4 <_malloc_r+0x58>
 8004bd4:	425a      	negs	r2, r3
 8004bd6:	50e2      	str	r2, [r4, r3]
 8004bd8:	e7e4      	b.n	8004ba4 <_malloc_r+0x58>
 8004bda:	684b      	ldr	r3, [r1, #4]
 8004bdc:	6063      	str	r3, [r4, #4]
 8004bde:	000c      	movs	r4, r1
 8004be0:	e7ee      	b.n	8004bc0 <_malloc_r+0x74>
 8004be2:	000c      	movs	r4, r1
 8004be4:	6849      	ldr	r1, [r1, #4]
 8004be6:	e7c2      	b.n	8004b6e <_malloc_r+0x22>
 8004be8:	2303      	movs	r3, #3
 8004bea:	1cc4      	adds	r4, r0, #3
 8004bec:	439c      	bics	r4, r3
 8004bee:	42a0      	cmp	r0, r4
 8004bf0:	d0e0      	beq.n	8004bb4 <_malloc_r+0x68>
 8004bf2:	1a21      	subs	r1, r4, r0
 8004bf4:	0030      	movs	r0, r6
 8004bf6:	f000 f82d 	bl	8004c54 <_sbrk_r>
 8004bfa:	1c43      	adds	r3, r0, #1
 8004bfc:	d1da      	bne.n	8004bb4 <_malloc_r+0x68>
 8004bfe:	e7c6      	b.n	8004b8e <_malloc_r+0x42>
 8004c00:	20001170 	.word	0x20001170
 8004c04:	20001174 	.word	0x20001174

08004c08 <_realloc_r>:
 8004c08:	b5f8      	push	{r3, r4, r5, r6, r7, lr}
 8004c0a:	0007      	movs	r7, r0
 8004c0c:	000d      	movs	r5, r1
 8004c0e:	0016      	movs	r6, r2
 8004c10:	2900      	cmp	r1, #0
 8004c12:	d105      	bne.n	8004c20 <_realloc_r+0x18>
 8004c14:	0011      	movs	r1, r2
 8004c16:	f7ff ff99 	bl	8004b4c <_malloc_r>
 8004c1a:	0004      	movs	r4, r0
 8004c1c:	0020      	movs	r0, r4
 8004c1e:	bdf8      	pop	{r3, r4, r5, r6, r7, pc}
 8004c20:	2a00      	cmp	r2, #0
 8004c22:	d103      	bne.n	8004c2c <_realloc_r+0x24>
 8004c24:	f7ff ff48 	bl	8004ab8 <_free_r>
 8004c28:	0034      	movs	r4, r6
 8004c2a:	e7f7      	b.n	8004c1c <_realloc_r+0x14>
 8004c2c:	f000 f826 	bl	8004c7c <_malloc_usable_size_r>
 8004c30:	002c      	movs	r4, r5
 8004c32:	4286      	cmp	r6, r0
 8004c34:	d9f2      	bls.n	8004c1c <_realloc_r+0x14>
 8004c36:	0031      	movs	r1, r6
 8004c38:	0038      	movs	r0, r7
 8004c3a:	f7ff ff87 	bl	8004b4c <_malloc_r>
 8004c3e:	1e04      	subs	r4, r0, #0
 8004c40:	d0ec      	beq.n	8004c1c <_realloc_r+0x14>
 8004c42:	0029      	movs	r1, r5
 8004c44:	0032      	movs	r2, r6
 8004c46:	f7ff fbdf 	bl	8004408 <memcpy>
 8004c4a:	0029      	movs	r1, r5
 8004c4c:	0038      	movs	r0, r7
 8004c4e:	f7ff ff33 	bl	8004ab8 <_free_r>
 8004c52:	e7e3      	b.n	8004c1c <_realloc_r+0x14>

08004c54 <_sbrk_r>:
 8004c54:	2300      	movs	r3, #0
 8004c56:	b570      	push	{r4, r5, r6, lr}
 8004c58:	4c06      	ldr	r4, [pc, #24]	; (8004c74 <_sbrk_r+0x20>)
 8004c5a:	0005      	movs	r5, r0
 8004c5c:	0008      	movs	r0, r1
 8004c5e:	6023      	str	r3, [r4, #0]
 8004c60:	f7fb fe18 	bl	8000894 <_sbrk>
 8004c64:	1c43      	adds	r3, r0, #1
 8004c66:	d103      	bne.n	8004c70 <_sbrk_r+0x1c>
 8004c68:	6823      	ldr	r3, [r4, #0]
 8004c6a:	2b00      	cmp	r3, #0
 8004c6c:	d000      	beq.n	8004c70 <_sbrk_r+0x1c>
 8004c6e:	602b      	str	r3, [r5, #0]
 8004c70:	bd70      	pop	{r4, r5, r6, pc}
 8004c72:	46c0      	nop			; (mov r8, r8)
 8004c74:	20002108 	.word	0x20002108

08004c78 <__malloc_lock>:
 8004c78:	4770      	bx	lr

08004c7a <__malloc_unlock>:
 8004c7a:	4770      	bx	lr

08004c7c <_malloc_usable_size_r>:
 8004c7c:	1f0b      	subs	r3, r1, #4
 8004c7e:	681b      	ldr	r3, [r3, #0]
 8004c80:	1f18      	subs	r0, r3, #4
 8004c82:	2b00      	cmp	r3, #0
 8004c84:	da01      	bge.n	8004c8a <_malloc_usable_size_r+0xe>
 8004c86:	580b      	ldr	r3, [r1, r0]
 8004c88:	18c0      	adds	r0, r0, r3
 8004c8a:	4770      	bx	lr

08004c8c <_init>:
 8004c8c:	b5f8      	push	{r3, r4, r5, r6, r7, lr}
 8004c8e:	46c0      	nop			; (mov r8, r8)
 8004c90:	bcf8      	pop	{r3, r4, r5, r6, r7}
 8004c92:	bc08      	pop	{r3}
 8004c94:	469e      	mov	lr, r3
 8004c96:	4770      	bx	lr

08004c98 <_fini>:
 8004c98:	b5f8      	push	{r3, r4, r5, r6, r7, lr}
 8004c9a:	46c0      	nop			; (mov r8, r8)
 8004c9c:	bcf8      	pop	{r3, r4, r5, r6, r7}
 8004c9e:	bc08      	pop	{r3}
 8004ca0:	469e      	mov	lr, r3
 8004ca2:	4770      	bx	lr
